
../clases/6_clase/ciaa//psf1/out/psf1.elf:     file format elf32-littlearm
../clases/6_clase/ciaa//psf1/out/psf1.elf
architecture: arm, flags 0x00000112:
EXEC_P, HAS_SYMS, D_PAGED
start address 0x1a0004a9

Program Header:
0x70000001 off    0x00024fe0 vaddr 0x1a014fe0 paddr 0x1a014fe0 align 2**2
         filesz 0x00000008 memsz 0x00000008 flags r--
    LOAD off    0x00000000 vaddr 0x10000000 paddr 0x10000000 align 2**16
         filesz 0x000000b4 memsz 0x00005a8c flags rw-
    LOAD off    0x00010000 vaddr 0x1a000000 paddr 0x1a000000 align 2**16
         filesz 0x00014fe8 memsz 0x00014fe8 flags rwx
    LOAD off    0x00030000 vaddr 0x10000000 paddr 0x1a014fe8 align 2**16
         filesz 0x00001240 memsz 0x00001240 flags rw-
private flags = 5000400: [Version5 EABI] [hard-float ABI]

Sections:
Idx Name          Size      VMA       LMA       File off  Algn
  0 .text         00014fdc  1a000000  1a000000  00010000  2**2
                  CONTENTS, ALLOC, LOAD, READONLY, CODE
  1 .data         00001240  10000000  1a014fe8  00030000  2**3
                  CONTENTS, ALLOC, LOAD, DATA
  2 .data_RAM2    00000000  10080000  10080000  00031240  2**2
                  CONTENTS
  3 .data_RAM3    00000000  20000000  20000000  00031240  2**2
                  CONTENTS
  4 .data_RAM4    00000000  20008000  20008000  00031240  2**2
                  CONTENTS
  5 .data_RAM5    00000000  2000c000  2000c000  00031240  2**2
                  CONTENTS
  6 .bss          0000484c  10001240  10001240  00001240  2**3
                  ALLOC
  7 .bss_RAM2     00000000  10080000  10080000  00031240  2**2
                  CONTENTS
  8 .bss_RAM3     00000000  20000000  20000000  00031240  2**2
                  CONTENTS
  9 .bss_RAM4     00000000  20008000  20008000  00031240  2**2
                  CONTENTS
 10 .bss_RAM5     00000000  2000c000  2000c000  00031240  2**2
                  CONTENTS
 11 .init_array   00000004  1a014fdc  1a014fdc  00024fdc  2**2
                  CONTENTS, ALLOC, LOAD, DATA
 12 .ARM.exidx    00000008  1a014fe0  1a014fe0  00024fe0  2**2
                  CONTENTS, ALLOC, LOAD, READONLY, DATA
 13 .uninit_RESERVED 00000000  10000000  10000000  00031240  2**2
                  CONTENTS
 14 .noinit_RAM2  00000000  10080000  10080000  00031240  2**2
                  CONTENTS
 15 .noinit_RAM3  00000000  20000000  20000000  00031240  2**2
                  CONTENTS
 16 .noinit_RAM4  00000000  20008000  20008000  00031240  2**2
                  CONTENTS
 17 .noinit_RAM5  00000000  2000c000  2000c000  00031240  2**2
                  CONTENTS
 18 .noinit       00000000  10005a8c  10005a8c  00031240  2**2
                  CONTENTS
 19 .debug_info   000226e3  00000000  00000000  00031240  2**0
                  CONTENTS, READONLY, DEBUGGING
 20 .debug_abbrev 00004a34  00000000  00000000  00053923  2**0
                  CONTENTS, READONLY, DEBUGGING
 21 .debug_loc    0000d483  00000000  00000000  00058357  2**0
                  CONTENTS, READONLY, DEBUGGING
 22 .debug_aranges 00000b40  00000000  00000000  000657e0  2**3
                  CONTENTS, READONLY, DEBUGGING
 23 .debug_ranges 00000b10  00000000  00000000  00066320  2**0
                  CONTENTS, READONLY, DEBUGGING
 24 .debug_macro  0000c1f7  00000000  00000000  00066e30  2**0
                  CONTENTS, READONLY, DEBUGGING
 25 .debug_line   0000ceb8  00000000  00000000  00073027  2**0
                  CONTENTS, READONLY, DEBUGGING
 26 .debug_str    0002aee6  00000000  00000000  0007fedf  2**0
                  CONTENTS, READONLY, DEBUGGING
 27 .comment      0000011c  00000000  00000000  000aadc5  2**0
                  CONTENTS, READONLY
 28 .ARM.attributes 00000037  00000000  00000000  000aaee1  2**0
                  CONTENTS, READONLY
 29 .debug_frame  000019d4  00000000  00000000  000aaf18  2**2
                  CONTENTS, READONLY, DEBUGGING
SYMBOL TABLE:
1a000000 l    d  .text	00000000 .text
10000000 l    d  .data	00000000 .data
10080000 l    d  .data_RAM2	00000000 .data_RAM2
20000000 l    d  .data_RAM3	00000000 .data_RAM3
20008000 l    d  .data_RAM4	00000000 .data_RAM4
2000c000 l    d  .data_RAM5	00000000 .data_RAM5
10001240 l    d  .bss	00000000 .bss
10080000 l    d  .bss_RAM2	00000000 .bss_RAM2
20000000 l    d  .bss_RAM3	00000000 .bss_RAM3
20008000 l    d  .bss_RAM4	00000000 .bss_RAM4
2000c000 l    d  .bss_RAM5	00000000 .bss_RAM5
1a014fdc l    d  .init_array	00000000 .init_array
1a014fe0 l    d  .ARM.exidx	00000000 .ARM.exidx
10000000 l    d  .uninit_RESERVED	00000000 .uninit_RESERVED
10080000 l    d  .noinit_RAM2	00000000 .noinit_RAM2
20000000 l    d  .noinit_RAM3	00000000 .noinit_RAM3
20008000 l    d  .noinit_RAM4	00000000 .noinit_RAM4
2000c000 l    d  .noinit_RAM5	00000000 .noinit_RAM5
10005a8c l    d  .noinit	00000000 .noinit
00000000 l    d  .debug_info	00000000 .debug_info
00000000 l    d  .debug_abbrev	00000000 .debug_abbrev
00000000 l    d  .debug_loc	00000000 .debug_loc
00000000 l    d  .debug_aranges	00000000 .debug_aranges
00000000 l    d  .debug_ranges	00000000 .debug_ranges
00000000 l    d  .debug_macro	00000000 .debug_macro
00000000 l    d  .debug_line	00000000 .debug_line
00000000 l    d  .debug_str	00000000 .debug_str
00000000 l    d  .comment	00000000 .comment
00000000 l    d  .ARM.attributes	00000000 .ARM.attributes
00000000 l    d  .debug_frame	00000000 .debug_frame
00000000 l    df *ABS*	00000000 armv7m_startup.c
00000000 l    df *ABS*	00000000 vendor_interrupt.c
00000000 l    df *ABS*	00000000 crp.c
00000000 l    df *ABS*	00000000 psf.c
00000000 l    df *ABS*	00000000 board.c
1a000534 l     F .text	00000044 Board_LED_Init
1a000578 l     F .text	00000040 Board_TEC_Init
1a0005b8 l     F .text	00000040 Board_GPIO_Init
1a0005f8 l     F .text	00000030 Board_ADC_Init
1a000628 l     F .text	00000038 Board_SPI_Init
1a000660 l     F .text	00000024 Board_I2C_Init
1a002ed8 l     O .text	00000008 GpioButtons
1a002ee0 l     O .text	0000000c GpioLeds
1a002eec l     O .text	00000012 GpioPorts
00000000 l    df *ABS*	00000000 board_sysinit.c
1a002f04 l     O .text	00000004 InitClkStates
1a002f08 l     O .text	00000074 pinmuxing
00000000 l    df *ABS*	00000000 uart_18xx_43xx.c
1a000790 l     F .text	0000002c Chip_UART_GetIndex
1a002f7c l     O .text	00000008 UART_BClock
1a002f84 l     O .text	00000008 UART_PClock
00000000 l    df *ABS*	00000000 adc_18xx_43xx.c
1a000938 l     F .text	00000014 Chip_ADC_GetClockIndex
1a00094c l     F .text	00000032 getClkDiv
00000000 l    df *ABS*	00000000 clock_18xx_43xx.c
1a000b00 l     F .text	000000a4 pll_calc_divs
1a000ba4 l     F .text	0000010c pll_get_frac
1a000cb0 l     F .text	0000004c Chip_Clock_FindBaseClock
1a000f24 l     F .text	00000022 Chip_Clock_GetDivRate
1000124c l     O .bss	00000008 audio_usb_pll_freq
1a002f98 l     O .text	0000006c periph_to_base
00000000 l    df *ABS*	00000000 chip_18xx_43xx.c
00000000 l    df *ABS*	00000000 sysinit_18xx_43xx.c
1a003004 l     O .text	00000048 InitClkStates
00000000 l    df *ABS*	00000000 gpio_18xx_43xx.c
00000000 l    df *ABS*	00000000 i2c_18xx_43xx.c
100011fc l     O .data	00000038 i2c
00000000 l    df *ABS*	00000000 ssp_18xx_43xx.c
1a0012ac l     F .text	00000014 Chip_SSP_GetClockIndex
1a0012c0 l     F .text	00000018 Chip_SSP_GetPeriphClockIndex
00000000 l    df *ABS*	00000000 sysinit.c
00000000 l    df *ABS*	00000000 sapi_cyclesCounter.c
10001234 l     O .data	00000004 ClockSpeed
00000000 l    df *ABS*	00000000 sapi_uart.c
1a00304c l     O .text	00000048 lpcUarts
00000000 l    df *ABS*	00000000 sapi_tick.c
10001254 l     O .bss	00000004 callBackFuncParams
10001258 l     O .bss	00000008 tickCounter
10001260 l     O .bss	00000004 tickHookFunction
00000000 l    df *ABS*	00000000 sapi_adc.c
00000000 l    df *ABS*	00000000 sapi_gpio.c
1a00166c l     F .text	00000034 gpioObtainPinInit
00000000 l    df *ABS*	00000000 sapi_usb_device.c
10001264 l     O .bss	00000004 g_hUsb
00000000 l    df *ABS*	00000000 sapi_board.c
00000000 l    df *ABS*	00000000 arm_max_q15.c
00000000 l    df *ABS*	00000000 arm_rfft_q15.c
00000000 l    df *ABS*	00000000 arm_rfft_init_q15.c
00000000 l    df *ABS*	00000000 arm_conv_fast_q15.c
00000000 l    df *ABS*	00000000 arm_cmplx_mag_squared_q15.c
00000000 l    df *ABS*	00000000 arm_cfft_q15.c
00000000 l    df *ABS*	00000000 arm_bitreversal2.o
1a002588 l       .text	00000000 arm_bitreversal_32_0
1a0025f2 l       .text	00000000 arm_bitreversal_16_0
00000000 l    df *ABS*	00000000 arm_cfft_radix4_q15.c
00000000 l    df *ABS*	00000000 _aeabi_uldivmod.o
00000000 l    df *ABS*	00000000 libgcc2.c
00000000 l    df *ABS*	00000000 _dvmd_tls.o
00000000 l    df *ABS*	00000000 init.c
00000000 l    df *ABS*	00000000 memset.c
00000000 l    df *ABS*	00000000 arm_const_structs.c
00000000 l    df *ABS*	00000000 arm_common_tables.c
00000000 l    df *ABS*	00000000 system.c
00000000 l    df *ABS*	00000000 
1a014fe0 l       .init_array	00000000 __init_array_end
1a014fdc l       .bss_RAM5	00000000 __preinit_array_end
1a014fdc l       .init_array	00000000 __init_array_start
1a014fdc l       .bss_RAM5	00000000 __preinit_array_start
1a000d48 g     F .text	0000001c Chip_Clock_GetDividerSource
1a012644 g     O .text	000000c0 twiddleCoef_64_q15
1a0001ba  w    F .text	00000002 TIMER2_IRQHandler
1a001476 g     F .text	0000001c uartWriteByteArray
1a000184  w    F .text	00000002 DebugMon_Handler
1a0001ba  w    F .text	00000002 RIT_IRQHandler
1a0009e4 g     F .text	00000016 Chip_ADC_DeInit
1a080000 g       *ABS*	00000000 __top_MFlashA512
1a0001ba  w    F .text	00000002 ADCHS_IRQHandler
1a000114 g       .text	00000000 __section_table_start
1a0001ba  w    F .text	00000002 FLASH_EEPROM_IRQHandler
1a0001ba  w    F .text	00000002 I2C0_IRQHandler
1a00f614 g     O .text	00003000 twiddleCoef_4096_q15
1a0006d8 g     F .text	00000008 __stdio_init
1a00017a  w    F .text	00000002 HardFault_Handler
1a000000 g       *ABS*	00000000 __vectors_start__
1a000aaa g     F .text	0000000c Chip_ADC_SetResolution
1a001528 g     F .text	00000034 SysTick_Handler
1a000810 g     F .text	00000040 Chip_UART_SetBaud
10001268 g     O .bss	00001000 x
1a0004a4  w    F .text	00000002 initialise_monitor_handles
1a0023f4 g     F .text	000000c6 arm_cfft_radix4by2_inverse_q15
1a0001ba  w    F .text	00000002 SDIO_IRQHandler
1a0001ba  w    F .text	00000002 ATIMER_IRQHandler
1a007184 g     O .text	00004000 realCoefBQ15
1a000186  w    F .text	00000002 PendSV_Handler
1a000178  w    F .text	00000002 NMI_Handler
1a014fe8 g       .ARM.exidx	00000000 __exidx_end
1a000150 g       .text	00000000 __data_section_table_end
1a0001ba  w    F .text	00000002 I2C1_IRQHandler
1a014d8c g     O .text	000001e0 armBitRevIndexTable_fixed_256
1a0001ba  w    F .text	00000002 UART1_IRQHandler
1a0001ba  w    F .text	00000002 GPIO5_IRQHandler
1a0001ba  w    F .text	00000002 CAN1_IRQHandler
1a00b194 g     O .text	00000010 arm_cfft_sR_q15_len128
53ff73e6 g       *ABS*	00000000 __valid_user_code_checksum
1a002638 g     F .text	0000025a arm_radix4_butterfly_q15
1a014fe8 g       .ARM.exidx	00000000 _etext
1a0001ba  w    F .text	00000002 USB1_IRQHandler
1a0001ba  w    F .text	00000002 I2S0_IRQHandler
1a0001ba  w    F .text	00000002 TIMER3_IRQHandler
1a000fc6 g     F .text	0000000c Chip_Clock_GetBaseClocktHz
1a0001ba  w    F .text	00000002 UART0_IRQHandler
1a00b1f4 g     O .text	00000010 arm_cfft_sR_q15_len16
1a0001a8 g     F .text	00000012 bss_init
1a000314 g     F .text	0000000e sendStr
1a0001ba  w    F .text	00000002 SGPIO_IRQHandler
1a0025e2 g     F .text	00000000 arm_bitreversal_16
1a002af0 g     F .text	00000000 .hidden __aeabi_uldivmod
10005a8c g       .noinit	00000000 _noinit
10005a84 g     O .bss	00000004 SystemCoreClock
1a001be4 g     F .text	000000fc arm_rfft_init_q15
1a0007bc g     F .text	00000054 Chip_UART_Init
1a0001ba  w    F .text	00000002 ADC0_IRQHandler
1a00098c g     F .text	00000018 readAdcVal
1a000180  w    F .text	00000002 UsageFault_Handler
1a001078 g     F .text	0000004c Chip_Clock_GetRate
1a0001ba  w    F .text	00000002 GPIO6_IRQHandler
1a000718 g     F .text	0000006c Board_SetupClocking
20008000 g       *ABS*	00000000 __top_RamAHB32
1a000322 g     F .text	0000000e sendBlock
10001248 g     O .bss	00000002 maxValue
1a002b20 g     F .text	000002cc .hidden __udivmoddi4
100011f8 g     O .data	00000002 hLength
1a000300 g     F .text	00000014 calcFftLength
1a002ed4 g     O .text	00000004 ExtRateIn
1a0001ba  w    F .text	00000002 IntDefaultHandler
1a000300 g       .text	00000000 __CRP_WORD_END__
1a0001ba  w    F .text	00000002 GPIO1_IRQHandler
1a00b184 g     O .text	00000010 arm_cfft_sR_q15_len256
1a0001ba  w    F .text	00000002 SSP0_IRQHandler
1a014fe0 g       .ARM.exidx	00000000 __exidx_start
10000000 g     O .data	00000002 fftLength
1a00c274 g     O .text	00001f80 armBitRevIndexTable_fixed_4096
1a0002fc g     O .text	00000004 CRP_WORD
1a00097e g     F .text	0000000e setStartMode
1a002df0 g     F .text	00000048 __libc_init_array
1a00155c g     F .text	000000b8 adcInit
1a0001ba  w    F .text	00000002 ADC1_IRQHandler
1a0006a8 g     F .text	00000030 Board_Init
10002268 g     O .bss	00000018 S
1a000532  w    F .text	00000002 _init
1a002894 g     F .text	0000025a arm_radix4_butterfly_inverse_q15
1a000114 g       .text	00000000 __data_section_table
1a014804 g     O .text	000003c0 armBitRevIndexTable_fixed_512
1a0001ba  w    F .text	00000002 RTC_IRQHandler
10005a8c g       .bss	00000000 _ebss
1a000ab6 g     F .text	00000028 Chip_ADC_EnableChannel
1a0001ba  w    F .text	00000002 TIMER0_IRQHandler
1a0004a8 g     F .text	00000088 Reset_Handler
1a0014ac g     F .text	0000007c tickInit
20010000 g       *ABS*	00000000 __top_RamAHB_ETB16
1a0001ba  w    F .text	00000002 SPI_IRQHandler
1a001274 g     F .text	00000038 Chip_I2C_SetClockRate
1a0001ba  w    F .text	00000002 LCD_IRQHandler
1a000cfc g     F .text	0000004c Chip_Clock_EnableCrystal
1a0009fa g     F .text	00000008 Chip_ADC_ReadValue
1a00b1e4 g     O .text	00000010 arm_cfft_sR_q15_len4096
10008000 g       *ABS*	00000000 __top_RamLoc32
1a00018a g     F .text	0000001e data_init
1a000a58 g     F .text	00000020 Chip_ADC_SetStartMode
1a0001ba  w    F .text	00000002 TIMER1_IRQHandler
1a001250 g     F .text	00000024 Chip_I2C_Init
1a0001ba  w    F .text	00000002 UART2_IRQHandler
1a000eb8 g     F .text	0000006c Chip_Clock_GetMainPLLHz
1a00309c g     O .text	000000e6 gpioPinsInit
1a00145c g     F .text	0000001a uartWriteByte
1a0012d8 g     F .text	00000012 Chip_SSP_SetClockRate
1a00191e g     F .text	00000016 gpioToggle
1a0001ba  w    F .text	00000002 GPIO2_IRQHandler
1a001614 g     F .text	00000058 adcRead
1a000fa0 g     F .text	00000026 Chip_Clock_GetBaseClock
10001240 g       .bss	00000000 _bss
1a000a02 g     F .text	00000036 Chip_ADC_ReadStatus
1a000a78 g     F .text	00000032 Chip_ADC_SetSampleRate
1a00b1b4 g     O .text	00000010 arm_cfft_sR_q15_len1024
1a014f6c g     O .text	00000070 armBitRevIndexTable_fixed_64
1a00b1c4 g     O .text	00000010 arm_cfft_sR_q15_len64
1a0001ba  w    F .text	00000002 I2S1_IRQHandler
1a0012ea g     F .text	0000003e Chip_SSP_SetBitRate
1a00122c g     F .text	00000002 Chip_GPIO_Init
1a014bdc g     O .text	00000180 twiddleCoef_128_q15
10001240 g     O .bss	00000002 convLength
1a002f00 g     O .text	00000004 OscRateIn
1a0013e0 g     F .text	0000007c uartInit
10005a8c g       .noinit	00000000 _end_noinit
10008000 g       *ABS*	00000000 _vStackTop
10002280 g     O .bss	00001000 adc
1a0001ba  w    F .text	00000002 SSP1_IRQHandler
1a000178 g       .text	00000000 __bss_section_table_end
1a014d5c g     O .text	00000030 armBitRevIndexTable_fixed_32
1a0022ac g     F .text	00000080 arm_cmplx_mag_squared_q15
1a0016a0 g     F .text	000001ac gpioInit
10001244 g     O .bss	00000004 maxIndex
1a002dec  w    F .text	00000002 .hidden __aeabi_ldiv0
1a001934 g     F .text	0000001c USB0_IRQHandler
1a001044 g     F .text	00000034 Chip_Clock_Disable
1a0001ba  w    F .text	00000002 GPIO3_IRQHandler
1a0019c4 g     F .text	000000b4 arm_max_q15
1a0001ba  w    F .text	00000002 SCT_IRQHandler
1a000d64 g     F .text	0000001c Chip_Clock_GetDividerDivisor
1a0002fc g       .text	00000000 __CRP_WORD_START__
1a002e38 g     F .text	00000094 memset
1a00017c  w    F .text	00000002 MemManage_Handler
1a000330 g     F .text	00000174 main
1a00f5b4 g     O .text	00000060 twiddleCoef_32_q15
1a012614 g     O .text	00000030 twiddleCoef_16_q15
1a0001ba  w    F .text	00000002 WDT_IRQHandler
2000c000 g       *ABS*	00000000 __top_RamAHB16
1008a000 g       *ABS*	00000000 __top_RamLoc40
1a000182  w    F .text	00000002 SVC_Handler
1a0013b4 g     F .text	00000018 uartTxReady
1a0001ba  w    F .text	00000002 GPIO7_IRQHandler
1a000fd4 g     F .text	0000003c Chip_Clock_EnableOpts
1a000d80 g     F .text	000000b8 Chip_Clock_GetClockInputHz
1a003184 g     O .text	00004000 realCoefAQ15
1a002578 g     F .text	00000000 arm_bitreversal_32
1a000e38 g     F .text	00000080 Chip_Clock_CalcMainPLLValue
1a001360 g     F .text	00000038 SystemInit
1a00e9b4 g     O .text	00000c00 twiddleCoef_1024_q15
1a0001ba  w    F .text	00000002 SPIFI_IRQHandler
1a0001ba  w    F .text	00000002 QEI_IRQHandler
1a000150 g       .text	00000000 __bss_section_table
1a00184c g     F .text	0000006a gpioWrite
1a000530  w    F .text	00000002 _fini
1a0009a4 g     F .text	00000040 Chip_ADC_Init
10005a88 g     O .bss	00000004 g_pUsbApi
1a0006e0 g     F .text	00000038 Board_SetupMuxing
1a000850 g     F .text	000000e8 Chip_UART_SetBaudFDR
10001238 g     O .data	00000008 tickRateMS
1a000ade g     F .text	00000022 Chip_ADC_SetBurstCmd
1a0001ba  w    F .text	00000002 ETH_IRQHandler
10000000 g       .uninit_RESERVED	00000000 _end_uninit_RESERVED
1a00232c g     F .text	000000c6 arm_cfft_radix4by2_q15
10000004 g     O .data	000011f4 h
1a001ce0 g     F .text	000005cc arm_conv_fast_q15
1a0013cc g     F .text	00000014 uartTxWrite
1a0001ba  w    F .text	00000002 CAN0_IRQHandler
10000000 g       .data	00000000 _data
10005a8c g       .bss	00000000 _pvHeapStart
1a000178 g       .text	00000000 __section_table_end
1a001328 g     F .text	00000038 Chip_SSP_Init
1a0001ba  w    F .text	00000002 GINT0_IRQHandler
1a00b1a4 g     O .text	00000010 arm_cfft_sR_q15_len512
1a0001ba  w    F .text	00000002 DAC_IRQHandler
1a000684 g     F .text	00000024 Board_Debug_Init
1a001b2c g     F .text	000000b8 arm_rfft_q15
10003280 g     O .bss	00002000 fftOut
1a000a38 g     F .text	00000020 Chip_ADC_Int_SetChannelCmd
10001240 g       .data	00000000 _edata
10005280 g     O .bss	00000802 fftMag
1a001230 g     F .text	00000020 Chip_I2C_EventHandler
1a0001ba  w    F .text	00000002 M0SUB_IRQHandler
1a013f04 g     O .text	00000300 twiddleCoef_256_q15
1a0010d8 g     F .text	00000154 Chip_SetupCoreClock
1a0001ba  w    F .text	00000002 GPIO0_IRQHandler
1a000000 g     O .text	00000040 g_pfnVectors
1a00b214 g     O .text	000000e0 armBitRevIndexTable_fixed_128
1a0010c4 g     F .text	00000014 SystemCoreClockUpdate
1a0001ba  w    F .text	00000002 DMA_IRQHandler
1a0001ba  w    F .text	00000002 EVRT_IRQHandler
1b080000 g       *ABS*	00000000 __top_MFlashB512
1a002dec  w    F .text	00000002 .hidden __aeabi_idiv0
1a00017e  w    F .text	00000002 BusFault_Handler
1a00b204 g     O .text	00000010 arm_cfft_sR_q15_len32
1a001010 g     F .text	00000034 Chip_Clock_Enable
1a00b1d4 g     O .text	00000010 arm_cfft_sR_q15_len2048
1a0001ba  w    F .text	00000002 UART3_IRQHandler
1a001a78 g     F .text	000000b4 arm_split_rfft_q15
1a0001ba  w    F .text	00000002 MCPWM_IRQHandler
1a0024bc g     F .text	000000bc arm_cfft_q15
1a014bc4 g     O .text	00000018 armBitRevIndexTable_fixed_16
1a0001ba  w    F .text	00000002 M0APP_IRQHandler
1a0018b6 g     F .text	00000068 gpioRead
1a00b2f4 g     O .text	00000f80 armBitRevIndexTable_fixed_2048
1a001950 g     F .text	00000074 boardInit
1a012704 g     O .text	00001800 twiddleCoef_2048_q15
1000124a g     O .bss	00000002 sample
1a000040 g     O .text	000000d4 g_pfnVendorVectors
1a0001ba  w    F .text	00000002 GINT1_IRQHandler
1a014204 g     O .text	00000600 twiddleCoef_512_q15
1a00e1f4 g     O .text	000007c0 armBitRevIndexTable_fixed_1024
1a001494 g     F .text	00000018 tickPowerSet
1a000f48 g     F .text	00000058 Chip_Clock_SetBaseClock
1a001398 g     F .text	0000001c cyclesCounterInit
1a0001ba  w    F .text	00000002 GPIO4_IRQHandler
1a000784 g     F .text	0000000c Board_SystemInit



Disassembly of section .text:

1a000000 <g_pfnVectors>:
1a000000:	00 80 00 10 a9 04 00 1a 79 01 00 1a 7b 01 00 1a     ........y...{...
1a000010:	7d 01 00 1a 7f 01 00 1a 81 01 00 1a e6 73 ff 53     }............s.S
	...
1a00002c:	83 01 00 1a 85 01 00 1a 00 00 00 00 87 01 00 1a     ................
1a00003c:	29 15 00 1a                                         )...

1a000040 <g_pfnVendorVectors>:
1a000040:	bb 01 00 1a bb 01 00 1a bb 01 00 1a 00 00 00 00     ................
1a000050:	bb 01 00 1a bb 01 00 1a bb 01 00 1a bb 01 00 1a     ................
1a000060:	35 19 00 1a bb 01 00 1a bb 01 00 1a bb 01 00 1a     5...............
1a000070:	bb 01 00 1a bb 01 00 1a bb 01 00 1a bb 01 00 1a     ................
1a000080:	bb 01 00 1a bb 01 00 1a bb 01 00 1a bb 01 00 1a     ................
1a000090:	bb 01 00 1a bb 01 00 1a bb 01 00 1a bb 01 00 1a     ................
1a0000a0:	bb 01 00 1a bb 01 00 1a bb 01 00 1a bb 01 00 1a     ................
1a0000b0:	bb 01 00 1a bb 01 00 1a bb 01 00 1a bb 01 00 1a     ................
1a0000c0:	bb 01 00 1a bb 01 00 1a bb 01 00 1a bb 01 00 1a     ................
1a0000d0:	bb 01 00 1a bb 01 00 1a bb 01 00 1a bb 01 00 1a     ................
1a0000e0:	bb 01 00 1a bb 01 00 1a bb 01 00 1a bb 01 00 1a     ................
1a0000f0:	00 00 00 00 bb 01 00 1a bb 01 00 1a bb 01 00 1a     ................
1a000100:	00 00 00 00 bb 01 00 1a bb 01 00 1a bb 01 00 1a     ................
1a000110:	bb 01 00 1a                                         ....

1a000114 <__data_section_table>:
1a000114:	1a014fe8 	.word	0x1a014fe8
1a000118:	10000000 	.word	0x10000000
1a00011c:	00001240 	.word	0x00001240
1a000120:	1a014fe8 	.word	0x1a014fe8
1a000124:	10080000 	.word	0x10080000
1a000128:	00000000 	.word	0x00000000
1a00012c:	1a014fe8 	.word	0x1a014fe8
1a000130:	20000000 	.word	0x20000000
1a000134:	00000000 	.word	0x00000000
1a000138:	1a014fe8 	.word	0x1a014fe8
1a00013c:	20008000 	.word	0x20008000
1a000140:	00000000 	.word	0x00000000
1a000144:	1a014fe8 	.word	0x1a014fe8
1a000148:	2000c000 	.word	0x2000c000
1a00014c:	00000000 	.word	0x00000000

1a000150 <__bss_section_table>:
1a000150:	10001240 	.word	0x10001240
1a000154:	0000484c 	.word	0x0000484c
1a000158:	10080000 	.word	0x10080000
1a00015c:	00000000 	.word	0x00000000
1a000160:	20000000 	.word	0x20000000
1a000164:	00000000 	.word	0x00000000
1a000168:	20008000 	.word	0x20008000
1a00016c:	00000000 	.word	0x00000000
1a000170:	2000c000 	.word	0x2000c000
1a000174:	00000000 	.word	0x00000000

1a000178 <NMI_Handler>:


}

__attribute__ ((section(".after_vectors")))
void NMI_Handler(void) {
1a000178:	e7fe      	b.n	1a000178 <NMI_Handler>

1a00017a <HardFault_Handler>:
    while (1) {
    }
}
__attribute__ ((section(".after_vectors")))
void HardFault_Handler(void) {
1a00017a:	e7fe      	b.n	1a00017a <HardFault_Handler>

1a00017c <MemManage_Handler>:
    while (1) {
    }
}
__attribute__ ((section(".after_vectors")))
void MemManage_Handler(void) {
1a00017c:	e7fe      	b.n	1a00017c <MemManage_Handler>

1a00017e <BusFault_Handler>:
    while (1) {
    }
}
__attribute__ ((section(".after_vectors")))
void BusFault_Handler(void) {
1a00017e:	e7fe      	b.n	1a00017e <BusFault_Handler>

1a000180 <UsageFault_Handler>:
    while (1) {
    }
}
__attribute__ ((section(".after_vectors")))
void UsageFault_Handler(void) {
1a000180:	e7fe      	b.n	1a000180 <UsageFault_Handler>

1a000182 <SVC_Handler>:
    while (1) {
    }
}
__attribute__ ((section(".after_vectors")))
void SVC_Handler(void) {
1a000182:	e7fe      	b.n	1a000182 <SVC_Handler>

1a000184 <DebugMon_Handler>:
    while (1) {
    }
}
__attribute__ ((section(".after_vectors")))
void DebugMon_Handler(void) {
1a000184:	e7fe      	b.n	1a000184 <DebugMon_Handler>

1a000186 <PendSV_Handler>:
    while (1) {
    }
}
__attribute__ ((section(".after_vectors")))
void PendSV_Handler(void) {
1a000186:	e7fe      	b.n	1a000186 <PendSV_Handler>
    while (1) {
    }
}
__attribute__ ((section(".after_vectors")))
void SysTick_Handler(void) {
1a000188:	e7fe      	b.n	1a000188 <PendSV_Handler+0x2>

1a00018a <data_init>:
    for (loop = 0; loop < len; loop = loop + 4)
1a00018a:	2300      	movs	r3, #0
1a00018c:	4293      	cmp	r3, r2
1a00018e:	d20a      	bcs.n	1a0001a6 <data_init+0x1c>
void data_init(unsigned int romstart, unsigned int start, unsigned int len) {
1a000190:	b410      	push	{r4}
        *pulDest++ = *pulSrc++;
1a000192:	6804      	ldr	r4, [r0, #0]
1a000194:	600c      	str	r4, [r1, #0]
    for (loop = 0; loop < len; loop = loop + 4)
1a000196:	3304      	adds	r3, #4
        *pulDest++ = *pulSrc++;
1a000198:	3004      	adds	r0, #4
1a00019a:	3104      	adds	r1, #4
    for (loop = 0; loop < len; loop = loop + 4)
1a00019c:	4293      	cmp	r3, r2
1a00019e:	d3f8      	bcc.n	1a000192 <data_init+0x8>
}
1a0001a0:	f85d 4b04 	ldr.w	r4, [sp], #4
1a0001a4:	4770      	bx	lr
1a0001a6:	4770      	bx	lr

1a0001a8 <bss_init>:
    for (loop = 0; loop < len; loop = loop + 4)
1a0001a8:	2300      	movs	r3, #0
1a0001aa:	e003      	b.n	1a0001b4 <bss_init+0xc>
        *pulDest++ = 0;
1a0001ac:	2200      	movs	r2, #0
1a0001ae:	6002      	str	r2, [r0, #0]
    for (loop = 0; loop < len; loop = loop + 4)
1a0001b0:	3304      	adds	r3, #4
        *pulDest++ = 0;
1a0001b2:	3004      	adds	r0, #4
    for (loop = 0; loop < len; loop = loop + 4)
1a0001b4:	428b      	cmp	r3, r1
1a0001b6:	d3f9      	bcc.n	1a0001ac <bss_init+0x4>
}
1a0001b8:	4770      	bx	lr

1a0001ba <ADC0_IRQHandler>:
    CAN0_IRQHandler,          // 67
    QEI_IRQHandler,           // 68
};

__attribute__ ((section(".after_vectors")))
void IntDefaultHandler(void) {
1a0001ba:	e7fe      	b.n	1a0001ba <ADC0_IRQHandler>
1a0001bc:	ffff ffff 			; <UNDEFINED> instruction: 0xffffffff
1a0001c0:	ffff ffff 			; <UNDEFINED> instruction: 0xffffffff
1a0001c4:	ffff ffff 			; <UNDEFINED> instruction: 0xffffffff
1a0001c8:	ffff ffff 			; <UNDEFINED> instruction: 0xffffffff
1a0001cc:	ffff ffff 			; <UNDEFINED> instruction: 0xffffffff
1a0001d0:	ffff ffff 			; <UNDEFINED> instruction: 0xffffffff
1a0001d4:	ffff ffff 			; <UNDEFINED> instruction: 0xffffffff
1a0001d8:	ffff ffff 			; <UNDEFINED> instruction: 0xffffffff
1a0001dc:	ffff ffff 			; <UNDEFINED> instruction: 0xffffffff
1a0001e0:	ffff ffff 			; <UNDEFINED> instruction: 0xffffffff
1a0001e4:	ffff ffff 			; <UNDEFINED> instruction: 0xffffffff
1a0001e8:	ffff ffff 			; <UNDEFINED> instruction: 0xffffffff
1a0001ec:	ffff ffff 			; <UNDEFINED> instruction: 0xffffffff
1a0001f0:	ffff ffff 			; <UNDEFINED> instruction: 0xffffffff
1a0001f4:	ffff ffff 			; <UNDEFINED> instruction: 0xffffffff
1a0001f8:	ffff ffff 			; <UNDEFINED> instruction: 0xffffffff
1a0001fc:	ffff ffff 			; <UNDEFINED> instruction: 0xffffffff
1a000200:	ffff ffff 			; <UNDEFINED> instruction: 0xffffffff
1a000204:	ffff ffff 			; <UNDEFINED> instruction: 0xffffffff
1a000208:	ffff ffff 			; <UNDEFINED> instruction: 0xffffffff
1a00020c:	ffff ffff 			; <UNDEFINED> instruction: 0xffffffff
1a000210:	ffff ffff 			; <UNDEFINED> instruction: 0xffffffff
1a000214:	ffff ffff 			; <UNDEFINED> instruction: 0xffffffff
1a000218:	ffff ffff 			; <UNDEFINED> instruction: 0xffffffff
1a00021c:	ffff ffff 			; <UNDEFINED> instruction: 0xffffffff
1a000220:	ffff ffff 			; <UNDEFINED> instruction: 0xffffffff
1a000224:	ffff ffff 			; <UNDEFINED> instruction: 0xffffffff
1a000228:	ffff ffff 			; <UNDEFINED> instruction: 0xffffffff
1a00022c:	ffff ffff 			; <UNDEFINED> instruction: 0xffffffff
1a000230:	ffff ffff 			; <UNDEFINED> instruction: 0xffffffff
1a000234:	ffff ffff 			; <UNDEFINED> instruction: 0xffffffff
1a000238:	ffff ffff 			; <UNDEFINED> instruction: 0xffffffff
1a00023c:	ffff ffff 			; <UNDEFINED> instruction: 0xffffffff
1a000240:	ffff ffff 			; <UNDEFINED> instruction: 0xffffffff
1a000244:	ffff ffff 			; <UNDEFINED> instruction: 0xffffffff
1a000248:	ffff ffff 			; <UNDEFINED> instruction: 0xffffffff
1a00024c:	ffff ffff 			; <UNDEFINED> instruction: 0xffffffff
1a000250:	ffff ffff 			; <UNDEFINED> instruction: 0xffffffff
1a000254:	ffff ffff 			; <UNDEFINED> instruction: 0xffffffff
1a000258:	ffff ffff 			; <UNDEFINED> instruction: 0xffffffff
1a00025c:	ffff ffff 			; <UNDEFINED> instruction: 0xffffffff
1a000260:	ffff ffff 			; <UNDEFINED> instruction: 0xffffffff
1a000264:	ffff ffff 			; <UNDEFINED> instruction: 0xffffffff
1a000268:	ffff ffff 			; <UNDEFINED> instruction: 0xffffffff
1a00026c:	ffff ffff 			; <UNDEFINED> instruction: 0xffffffff
1a000270:	ffff ffff 			; <UNDEFINED> instruction: 0xffffffff
1a000274:	ffff ffff 			; <UNDEFINED> instruction: 0xffffffff
1a000278:	ffff ffff 			; <UNDEFINED> instruction: 0xffffffff
1a00027c:	ffff ffff 			; <UNDEFINED> instruction: 0xffffffff
1a000280:	ffff ffff 			; <UNDEFINED> instruction: 0xffffffff
1a000284:	ffff ffff 			; <UNDEFINED> instruction: 0xffffffff
1a000288:	ffff ffff 			; <UNDEFINED> instruction: 0xffffffff
1a00028c:	ffff ffff 			; <UNDEFINED> instruction: 0xffffffff
1a000290:	ffff ffff 			; <UNDEFINED> instruction: 0xffffffff
1a000294:	ffff ffff 			; <UNDEFINED> instruction: 0xffffffff
1a000298:	ffff ffff 			; <UNDEFINED> instruction: 0xffffffff
1a00029c:	ffff ffff 			; <UNDEFINED> instruction: 0xffffffff
1a0002a0:	ffff ffff 			; <UNDEFINED> instruction: 0xffffffff
1a0002a4:	ffff ffff 			; <UNDEFINED> instruction: 0xffffffff
1a0002a8:	ffff ffff 			; <UNDEFINED> instruction: 0xffffffff
1a0002ac:	ffff ffff 			; <UNDEFINED> instruction: 0xffffffff
1a0002b0:	ffff ffff 			; <UNDEFINED> instruction: 0xffffffff
1a0002b4:	ffff ffff 			; <UNDEFINED> instruction: 0xffffffff
1a0002b8:	ffff ffff 			; <UNDEFINED> instruction: 0xffffffff
1a0002bc:	ffff ffff 			; <UNDEFINED> instruction: 0xffffffff
1a0002c0:	ffff ffff 			; <UNDEFINED> instruction: 0xffffffff
1a0002c4:	ffff ffff 			; <UNDEFINED> instruction: 0xffffffff
1a0002c8:	ffff ffff 			; <UNDEFINED> instruction: 0xffffffff
1a0002cc:	ffff ffff 			; <UNDEFINED> instruction: 0xffffffff
1a0002d0:	ffff ffff 			; <UNDEFINED> instruction: 0xffffffff
1a0002d4:	ffff ffff 			; <UNDEFINED> instruction: 0xffffffff
1a0002d8:	ffff ffff 			; <UNDEFINED> instruction: 0xffffffff
1a0002dc:	ffff ffff 			; <UNDEFINED> instruction: 0xffffffff
1a0002e0:	ffff ffff 			; <UNDEFINED> instruction: 0xffffffff
1a0002e4:	ffff ffff 			; <UNDEFINED> instruction: 0xffffffff
1a0002e8:	ffff ffff 			; <UNDEFINED> instruction: 0xffffffff
1a0002ec:	ffff ffff 			; <UNDEFINED> instruction: 0xffffffff
1a0002f0:	ffff ffff 			; <UNDEFINED> instruction: 0xffffffff
1a0002f4:	ffff ffff 			; <UNDEFINED> instruction: 0xffffffff
1a0002f8:	ffff ffff 			; <UNDEFINED> instruction: 0xffffffff

1a0002fc <CRP_WORD>:
1a0002fc:	ffff ffff                                   ....

1a000300 <calcFftLength>:
arm_rfft_instance_q15 S;
uint16_t convLength = 0;
uint16_t sample     = 0;

int calcFftLength(int N,int M) {
   int convLength=N+M-1,i;
1a000300:	4401      	add	r1, r0
1a000302:	3901      	subs	r1, #1
   for(i=MAX_FFT_LENGTH;i>=convLength;i>>=1)
1a000304:	f44f 6000 	mov.w	r0, #2048	; 0x800
1a000308:	e000      	b.n	1a00030c <calcFftLength+0xc>
1a00030a:	1040      	asrs	r0, r0, #1
1a00030c:	4288      	cmp	r0, r1
1a00030e:	dafc      	bge.n	1a00030a <calcFftLength+0xa>
      ;
   return i<<1;
}
1a000310:	0040      	lsls	r0, r0, #1
1a000312:	4770      	bx	lr

1a000314 <sendStr>:
int sendStr(char A[],int N) { uartWriteByteArray ( UART_USB ,A ,N ); }
1a000314:	b508      	push	{r3, lr}
1a000316:	460a      	mov	r2, r1
1a000318:	4601      	mov	r1, r0
1a00031a:	2003      	movs	r0, #3
1a00031c:	f001 f8ab 	bl	1a001476 <uartWriteByteArray>
1a000320:	bd08      	pop	{r3, pc}

1a000322 <sendBlock>:
int sendBlock(q15_t A[],int N) { uartWriteByteArray ( UART_USB ,(uint8_t* )A ,2*N ); }
1a000322:	b508      	push	{r3, lr}
1a000324:	004a      	lsls	r2, r1, #1
1a000326:	4601      	mov	r1, r0
1a000328:	2003      	movs	r0, #3
1a00032a:	f001 f8a4 	bl	1a001476 <uartWriteByteArray>
1a00032e:	bd08      	pop	{r3, pc}

1a000330 <main>:


int main ( void ) {
1a000330:	b580      	push	{r7, lr}
1a000332:	b082      	sub	sp, #8
   boardConfig        (                          );
1a000334:	f001 fb0c 	bl	1a001950 <boardInit>
   uartConfig         ( UART_USB, 460800         );
1a000338:	f44f 21e1 	mov.w	r1, #460800	; 0x70800
1a00033c:	2003      	movs	r0, #3
1a00033e:	f001 f84f 	bl	1a0013e0 <uartInit>
   adcConfig          ( ADC_ENABLE               );
1a000342:	2000      	movs	r0, #0
1a000344:	f001 f90a 	bl	1a00155c <adcInit>
   cyclesCounterInit  ( EDU_CIAA_NXP_CLOCK_SPEED );
1a000348:	4847      	ldr	r0, [pc, #284]	; (1a000468 <main+0x138>)
1a00034a:	f001 f825 	bl	1a001398 <cyclesCounterInit>
1a00034e:	e07d      	b.n	1a00044c <main+0x11c>
   while(1) {
      convLength=calcFftLength(fftLength,hLength);
      for(sample=0;sample<fftLength;sample++) {
         cyclesCounterReset();
1a000350:	2000      	movs	r0, #0
1a000352:	4b46      	ldr	r3, [pc, #280]	; (1a00046c <main+0x13c>)
1a000354:	6018      	str	r0, [r3, #0]
         adc[sample] = ((int16_t )adcRead(CH1)-512)<<6;
1a000356:	f001 f95d 	bl	1a001614 <adcRead>
1a00035a:	b200      	sxth	r0, r0
1a00035c:	f5a0 7000 	sub.w	r0, r0, #512	; 0x200
1a000360:	0180      	lsls	r0, r0, #6
1a000362:	4b43      	ldr	r3, [pc, #268]	; (1a000470 <main+0x140>)
1a000364:	881a      	ldrh	r2, [r3, #0]
1a000366:	4b43      	ldr	r3, [pc, #268]	; (1a000474 <main+0x144>)
1a000368:	f823 0012 	strh.w	r0, [r3, r2, lsl #1]
         gpioToggle( LEDB);
1a00036c:	202a      	movs	r0, #42	; 0x2a
1a00036e:	f001 fad6 	bl	1a00191e <gpioToggle>
         while(cyclesCounterRead()< 20400)
1a000372:	4b3e      	ldr	r3, [pc, #248]	; (1a00046c <main+0x13c>)
1a000374:	681a      	ldr	r2, [r3, #0]
1a000376:	f644 73af 	movw	r3, #20399	; 0x4faf
1a00037a:	429a      	cmp	r2, r3
1a00037c:	d9f9      	bls.n	1a000372 <main+0x42>
      for(sample=0;sample<fftLength;sample++) {
1a00037e:	4a3c      	ldr	r2, [pc, #240]	; (1a000470 <main+0x140>)
1a000380:	8813      	ldrh	r3, [r2, #0]
1a000382:	3301      	adds	r3, #1
1a000384:	8013      	strh	r3, [r2, #0]
1a000386:	4b3a      	ldr	r3, [pc, #232]	; (1a000470 <main+0x140>)
1a000388:	881a      	ldrh	r2, [r3, #0]
1a00038a:	4b3b      	ldr	r3, [pc, #236]	; (1a000478 <main+0x148>)
1a00038c:	f9b3 3000 	ldrsh.w	r3, [r3]
1a000390:	429a      	cmp	r2, r3
1a000392:	dbdd      	blt.n	1a000350 <main+0x20>
            ;
      }
      for(sample=fftLength;sample<convLength;sample++)
1a000394:	4a36      	ldr	r2, [pc, #216]	; (1a000470 <main+0x140>)
1a000396:	8013      	strh	r3, [r2, #0]
1a000398:	e006      	b.n	1a0003a8 <main+0x78>
         adc[sample]=0;
1a00039a:	4a36      	ldr	r2, [pc, #216]	; (1a000474 <main+0x144>)
1a00039c:	2100      	movs	r1, #0
1a00039e:	f822 1013 	strh.w	r1, [r2, r3, lsl #1]
      for(sample=fftLength;sample<convLength;sample++)
1a0003a2:	3301      	adds	r3, #1
1a0003a4:	4a32      	ldr	r2, [pc, #200]	; (1a000470 <main+0x140>)
1a0003a6:	8013      	strh	r3, [r2, #0]
1a0003a8:	4b31      	ldr	r3, [pc, #196]	; (1a000470 <main+0x140>)
1a0003aa:	881b      	ldrh	r3, [r3, #0]
1a0003ac:	4a33      	ldr	r2, [pc, #204]	; (1a00047c <main+0x14c>)
1a0003ae:	8812      	ldrh	r2, [r2, #0]
1a0003b0:	4293      	cmp	r3, r2
1a0003b2:	d3f2      	bcc.n	1a00039a <main+0x6a>
      sendStr   ( "header"   ,6 );
1a0003b4:	2106      	movs	r1, #6
1a0003b6:	4832      	ldr	r0, [pc, #200]	; (1a000480 <main+0x150>)
1a0003b8:	f7ff ffac 	bl	1a000314 <sendStr>
      sendBlock ( &fftLength ,1 );
1a0003bc:	4d2e      	ldr	r5, [pc, #184]	; (1a000478 <main+0x148>)
1a0003be:	2101      	movs	r1, #1
1a0003c0:	4628      	mov	r0, r5
1a0003c2:	f7ff ffae 	bl	1a000322 <sendBlock>
      sendBlock ( &convLength   ,1 );
1a0003c6:	4c2d      	ldr	r4, [pc, #180]	; (1a00047c <main+0x14c>)
1a0003c8:	2101      	movs	r1, #1
1a0003ca:	4620      	mov	r0, r4
1a0003cc:	f7ff ffa9 	bl	1a000322 <sendBlock>
      arm_conv_fast_q15 ( adc,fftLength,h,convLength-fftLength+1,x );
1a0003d0:	f9b5 1000 	ldrsh.w	r1, [r5]
1a0003d4:	8823      	ldrh	r3, [r4, #0]
1a0003d6:	1a5b      	subs	r3, r3, r1
1a0003d8:	4e2a      	ldr	r6, [pc, #168]	; (1a000484 <main+0x154>)
1a0003da:	9600      	str	r6, [sp, #0]
1a0003dc:	3301      	adds	r3, #1
1a0003de:	4a2a      	ldr	r2, [pc, #168]	; (1a000488 <main+0x158>)
1a0003e0:	4824      	ldr	r0, [pc, #144]	; (1a000474 <main+0x144>)
1a0003e2:	f001 fc7d 	bl	1a001ce0 <arm_conv_fast_q15>
      sendBlock         ( x ,convLength        );
1a0003e6:	8821      	ldrh	r1, [r4, #0]
1a0003e8:	4630      	mov	r0, r6
1a0003ea:	f7ff ff9a 	bl	1a000322 <sendBlock>
      arm_rfft_init_q15 ( &S ,convLength ,0 ,1 );
1a0003ee:	4f27      	ldr	r7, [pc, #156]	; (1a00048c <main+0x15c>)
1a0003f0:	2301      	movs	r3, #1
1a0003f2:	2200      	movs	r2, #0
1a0003f4:	8821      	ldrh	r1, [r4, #0]
1a0003f6:	4638      	mov	r0, r7
1a0003f8:	f001 fbf4 	bl	1a001be4 <arm_rfft_init_q15>
      arm_rfft_q15      ( &S ,x     ,fftOut    );
1a0003fc:	4d24      	ldr	r5, [pc, #144]	; (1a000490 <main+0x160>)
1a0003fe:	462a      	mov	r2, r5
1a000400:	4631      	mov	r1, r6
1a000402:	4638      	mov	r0, r7
1a000404:	f001 fb92 	bl	1a001b2c <arm_rfft_q15>
      arm_cmplx_mag_squared_q15 ( fftOut ,fftMag ,convLength/2+1               );
1a000408:	8822      	ldrh	r2, [r4, #0]
1a00040a:	0852      	lsrs	r2, r2, #1
1a00040c:	f8df 8090 	ldr.w	r8, [pc, #144]	; 1a0004a0 <main+0x170>
1a000410:	3201      	adds	r2, #1
1a000412:	4641      	mov	r1, r8
1a000414:	4628      	mov	r0, r5
1a000416:	f001 ff49 	bl	1a0022ac <arm_cmplx_mag_squared_q15>
      arm_max_q15               ( fftMag ,convLength/2+1 ,&maxValue ,&maxIndex );
1a00041a:	8821      	ldrh	r1, [r4, #0]
1a00041c:	0849      	lsrs	r1, r1, #1
1a00041e:	4e1d      	ldr	r6, [pc, #116]	; (1a000494 <main+0x164>)
1a000420:	4f1d      	ldr	r7, [pc, #116]	; (1a000498 <main+0x168>)
1a000422:	4633      	mov	r3, r6
1a000424:	463a      	mov	r2, r7
1a000426:	3101      	adds	r1, #1
1a000428:	4640      	mov	r0, r8
1a00042a:	f001 facb 	bl	1a0019c4 <arm_max_q15>
      sendBlock ( fftOut    ,convLength );
1a00042e:	8821      	ldrh	r1, [r4, #0]
1a000430:	4628      	mov	r0, r5
1a000432:	f7ff ff76 	bl	1a000322 <sendBlock>
      sendBlock ( &maxValue  ,1 );
1a000436:	2101      	movs	r1, #1
1a000438:	4638      	mov	r0, r7
1a00043a:	f7ff ff72 	bl	1a000322 <sendBlock>
      sendBlock ( (q15_t* )&maxIndex ,1 );
1a00043e:	2101      	movs	r1, #1
1a000440:	4630      	mov	r0, r6
1a000442:	f7ff ff6e 	bl	1a000322 <sendBlock>
      gpioToggle( LEDR);
1a000446:	2028      	movs	r0, #40	; 0x28
1a000448:	f001 fa69 	bl	1a00191e <gpioToggle>
      convLength=calcFftLength(fftLength,hLength);
1a00044c:	4b13      	ldr	r3, [pc, #76]	; (1a00049c <main+0x16c>)
1a00044e:	f9b3 1000 	ldrsh.w	r1, [r3]
1a000452:	4b09      	ldr	r3, [pc, #36]	; (1a000478 <main+0x148>)
1a000454:	f9b3 0000 	ldrsh.w	r0, [r3]
1a000458:	f7ff ff52 	bl	1a000300 <calcFftLength>
1a00045c:	4b07      	ldr	r3, [pc, #28]	; (1a00047c <main+0x14c>)
1a00045e:	8018      	strh	r0, [r3, #0]
      for(sample=0;sample<fftLength;sample++) {
1a000460:	4b03      	ldr	r3, [pc, #12]	; (1a000470 <main+0x140>)
1a000462:	2200      	movs	r2, #0
1a000464:	801a      	strh	r2, [r3, #0]
1a000466:	e78e      	b.n	1a000386 <main+0x56>
1a000468:	0c28cb00 	.word	0x0c28cb00
1a00046c:	e0001004 	.word	0xe0001004
1a000470:	1000124a 	.word	0x1000124a
1a000474:	10002280 	.word	0x10002280
1a000478:	10000000 	.word	0x10000000
1a00047c:	10001240 	.word	0x10001240
1a000480:	1a002ecc 	.word	0x1a002ecc
1a000484:	10001268 	.word	0x10001268
1a000488:	10000004 	.word	0x10000004
1a00048c:	10002268 	.word	0x10002268
1a000490:	10003280 	.word	0x10003280
1a000494:	10001244 	.word	0x10001244
1a000498:	10001248 	.word	0x10001248
1a00049c:	100011f8 	.word	0x100011f8
1a0004a0:	10005280 	.word	0x10005280

1a0004a4 <initialise_monitor_handles>:
}
1a0004a4:	4770      	bx	lr
1a0004a6:	Address 0x000000001a0004a6 is out of bounds.


1a0004a8 <Reset_Handler>:
void Reset_Handler(void) {
1a0004a8:	b510      	push	{r4, lr}
    __asm__ volatile("cpsid i");
1a0004aa:	b672      	cpsid	i
    *(RESET_CONTROL + 0) = 0x10DF1000;
1a0004ac:	4b19      	ldr	r3, [pc, #100]	; (1a000514 <Reset_Handler+0x6c>)
1a0004ae:	4a1a      	ldr	r2, [pc, #104]	; (1a000518 <Reset_Handler+0x70>)
1a0004b0:	601a      	str	r2, [r3, #0]
    *(RESET_CONTROL + 1) = 0x01DFF7FF;
1a0004b2:	3304      	adds	r3, #4
1a0004b4:	4a19      	ldr	r2, [pc, #100]	; (1a00051c <Reset_Handler+0x74>)
1a0004b6:	601a      	str	r2, [r3, #0]
    for (irqpendloop = 0; irqpendloop < 8; irqpendloop++) {
1a0004b8:	2300      	movs	r3, #0
1a0004ba:	e005      	b.n	1a0004c8 <Reset_Handler+0x20>
        *(NVIC_ICPR + irqpendloop) = 0xFFFFFFFF;
1a0004bc:	4a18      	ldr	r2, [pc, #96]	; (1a000520 <Reset_Handler+0x78>)
1a0004be:	f04f 31ff 	mov.w	r1, #4294967295	; 0xffffffff
1a0004c2:	f842 1023 	str.w	r1, [r2, r3, lsl #2]
    for (irqpendloop = 0; irqpendloop < 8; irqpendloop++) {
1a0004c6:	3301      	adds	r3, #1
1a0004c8:	2b07      	cmp	r3, #7
1a0004ca:	d9f7      	bls.n	1a0004bc <Reset_Handler+0x14>
    __asm__ volatile("cpsie i");
1a0004cc:	b662      	cpsie	i
    SectionTableAddr = &__data_section_table;
1a0004ce:	4b15      	ldr	r3, [pc, #84]	; (1a000524 <Reset_Handler+0x7c>)
    while (SectionTableAddr < &__data_section_table_end) {
1a0004d0:	e007      	b.n	1a0004e2 <Reset_Handler+0x3a>
        SectionLen = *SectionTableAddr++;
1a0004d2:	f103 040c 	add.w	r4, r3, #12
        data_init(LoadAddr, ExeAddr, SectionLen);
1a0004d6:	689a      	ldr	r2, [r3, #8]
1a0004d8:	6859      	ldr	r1, [r3, #4]
1a0004da:	6818      	ldr	r0, [r3, #0]
1a0004dc:	f7ff fe55 	bl	1a00018a <data_init>
        SectionLen = *SectionTableAddr++;
1a0004e0:	4623      	mov	r3, r4
    while (SectionTableAddr < &__data_section_table_end) {
1a0004e2:	4a11      	ldr	r2, [pc, #68]	; (1a000528 <Reset_Handler+0x80>)
1a0004e4:	4293      	cmp	r3, r2
1a0004e6:	d3f4      	bcc.n	1a0004d2 <Reset_Handler+0x2a>
1a0004e8:	e006      	b.n	1a0004f8 <Reset_Handler+0x50>
        ExeAddr = *SectionTableAddr++;
1a0004ea:	461c      	mov	r4, r3
        bss_init(ExeAddr, SectionLen);
1a0004ec:	6859      	ldr	r1, [r3, #4]
1a0004ee:	f854 0b08 	ldr.w	r0, [r4], #8
1a0004f2:	f7ff fe59 	bl	1a0001a8 <bss_init>
        SectionLen = *SectionTableAddr++;
1a0004f6:	4623      	mov	r3, r4
    while (SectionTableAddr < &__bss_section_table_end) {
1a0004f8:	4a0c      	ldr	r2, [pc, #48]	; (1a00052c <Reset_Handler+0x84>)
1a0004fa:	4293      	cmp	r3, r2
1a0004fc:	d3f5      	bcc.n	1a0004ea <Reset_Handler+0x42>
    SystemInit();
1a0004fe:	f000 ff2f 	bl	1a001360 <SystemInit>
    __libc_init_array();
1a000502:	f002 fc75 	bl	1a002df0 <__libc_init_array>
    initialise_monitor_handles();
1a000506:	f7ff ffcd 	bl	1a0004a4 <initialise_monitor_handles>
    main();
1a00050a:	f7ff ff11 	bl	1a000330 <main>
        __asm__ volatile("wfi");
1a00050e:	bf30      	wfi
1a000510:	e7fd      	b.n	1a00050e <Reset_Handler+0x66>
1a000512:	bf00      	nop
1a000514:	40053100 	.word	0x40053100
1a000518:	10df1000 	.word	0x10df1000
1a00051c:	01dff7ff 	.word	0x01dff7ff
1a000520:	e000e280 	.word	0xe000e280
1a000524:	1a000114 	.word	0x1a000114
1a000528:	1a000150 	.word	0x1a000150
1a00052c:	1a000178 	.word	0x1a000178

1a000530 <_fini>:
void _fini(void) {}
1a000530:	4770      	bx	lr

1a000532 <_init>:
void _init(void) {}
1a000532:	4770      	bx	lr

1a000534 <Board_LED_Init>:
#define GPIO_PORTS_SIZE     (sizeof(GpioPorts) / sizeof(struct gpio_t))


static void Board_LED_Init()
{
   for (uint32_t i = 0; i < GPIO_LEDS_SIZE; ++i) {
1a000534:	2200      	movs	r2, #0
1a000536:	2a05      	cmp	r2, #5
1a000538:	d819      	bhi.n	1a00056e <Board_LED_Init+0x3a>
{
1a00053a:	b470      	push	{r4, r5, r6}
      const struct gpio_t *io = &GpioLeds[i];
      Chip_GPIO_SetPinDIROutput(LPC_GPIO_PORT, io->port, io->pin);
1a00053c:	490c      	ldr	r1, [pc, #48]	; (1a000570 <Board_LED_Init+0x3c>)
1a00053e:	f811 5012 	ldrb.w	r5, [r1, r2, lsl #1]
1a000542:	eb01 0142 	add.w	r1, r1, r2, lsl #1
1a000546:	784c      	ldrb	r4, [r1, #1]
 * @param	pin		: GPIO pin to set direction on as output
 * @return	Nothing
 */
STATIC INLINE void Chip_GPIO_SetPinDIROutput(LPC_GPIO_T *pGPIO, uint8_t port, uint8_t pin)
{
	pGPIO->DIR[port] |= 1UL << pin;
1a000548:	4b0a      	ldr	r3, [pc, #40]	; (1a000574 <Board_LED_Init+0x40>)
1a00054a:	f505 6600 	add.w	r6, r5, #2048	; 0x800
1a00054e:	f853 1026 	ldr.w	r1, [r3, r6, lsl #2]
1a000552:	2001      	movs	r0, #1
1a000554:	40a0      	lsls	r0, r4
1a000556:	4301      	orrs	r1, r0
1a000558:	f843 1026 	str.w	r1, [r3, r6, lsl #2]
	pGPIO->B[port][pin] = setting;
1a00055c:	eb03 1345 	add.w	r3, r3, r5, lsl #5
1a000560:	2100      	movs	r1, #0
1a000562:	5519      	strb	r1, [r3, r4]
   for (uint32_t i = 0; i < GPIO_LEDS_SIZE; ++i) {
1a000564:	3201      	adds	r2, #1
1a000566:	2a05      	cmp	r2, #5
1a000568:	d9e8      	bls.n	1a00053c <Board_LED_Init+0x8>
      Chip_GPIO_SetPinState(LPC_GPIO_PORT, io->port, io->pin, false);
   }
}
1a00056a:	bc70      	pop	{r4, r5, r6}
1a00056c:	4770      	bx	lr
1a00056e:	4770      	bx	lr
1a000570:	1a002ee0 	.word	0x1a002ee0
1a000574:	400f4000 	.word	0x400f4000

1a000578 <Board_TEC_Init>:


static void Board_TEC_Init()
{
   for (uint32_t i = 0; i < GPIO_BUTTONS_SIZE; ++i) {
1a000578:	2300      	movs	r3, #0
1a00057a:	2b03      	cmp	r3, #3
1a00057c:	d816      	bhi.n	1a0005ac <Board_TEC_Init+0x34>
{
1a00057e:	b430      	push	{r4, r5}
      const struct gpio_t *io = &GpioButtons[i];
      Chip_GPIO_SetPinDIRInput(LPC_GPIO_PORT, io->port, io->pin);
1a000580:	490b      	ldr	r1, [pc, #44]	; (1a0005b0 <Board_TEC_Init+0x38>)
1a000582:	f811 2013 	ldrb.w	r2, [r1, r3, lsl #1]
1a000586:	eb01 0143 	add.w	r1, r1, r3, lsl #1
1a00058a:	784d      	ldrb	r5, [r1, #1]
 * @param	pin		: GPIO pin to set direction on as input
 * @return	Nothing
 */
STATIC INLINE void Chip_GPIO_SetPinDIRInput(LPC_GPIO_T *pGPIO, uint8_t port, uint8_t pin)
{
	pGPIO->DIR[port] &= ~(1UL << pin);
1a00058c:	4c09      	ldr	r4, [pc, #36]	; (1a0005b4 <Board_TEC_Init+0x3c>)
1a00058e:	f502 6200 	add.w	r2, r2, #2048	; 0x800
1a000592:	f854 1022 	ldr.w	r1, [r4, r2, lsl #2]
1a000596:	2001      	movs	r0, #1
1a000598:	40a8      	lsls	r0, r5
1a00059a:	ea21 0100 	bic.w	r1, r1, r0
1a00059e:	f844 1022 	str.w	r1, [r4, r2, lsl #2]
   for (uint32_t i = 0; i < GPIO_BUTTONS_SIZE; ++i) {
1a0005a2:	3301      	adds	r3, #1
1a0005a4:	2b03      	cmp	r3, #3
1a0005a6:	d9eb      	bls.n	1a000580 <Board_TEC_Init+0x8>
   }
}
1a0005a8:	bc30      	pop	{r4, r5}
1a0005aa:	4770      	bx	lr
1a0005ac:	4770      	bx	lr
1a0005ae:	bf00      	nop
1a0005b0:	1a002ed8 	.word	0x1a002ed8
1a0005b4:	400f4000 	.word	0x400f4000

1a0005b8 <Board_GPIO_Init>:


static void Board_GPIO_Init()
{
   for (uint32_t i = 0; i < GPIO_PORTS_SIZE; ++i) {
1a0005b8:	2300      	movs	r3, #0
1a0005ba:	2b08      	cmp	r3, #8
1a0005bc:	d816      	bhi.n	1a0005ec <Board_GPIO_Init+0x34>
{
1a0005be:	b430      	push	{r4, r5}
      const struct gpio_t *io = &GpioPorts[i];
      Chip_GPIO_SetPinDIRInput(LPC_GPIO_PORT, io->port, io->pin);
1a0005c0:	490b      	ldr	r1, [pc, #44]	; (1a0005f0 <Board_GPIO_Init+0x38>)
1a0005c2:	f811 2013 	ldrb.w	r2, [r1, r3, lsl #1]
1a0005c6:	eb01 0143 	add.w	r1, r1, r3, lsl #1
1a0005ca:	784d      	ldrb	r5, [r1, #1]
1a0005cc:	4c09      	ldr	r4, [pc, #36]	; (1a0005f4 <Board_GPIO_Init+0x3c>)
1a0005ce:	f502 6200 	add.w	r2, r2, #2048	; 0x800
1a0005d2:	f854 1022 	ldr.w	r1, [r4, r2, lsl #2]
1a0005d6:	2001      	movs	r0, #1
1a0005d8:	40a8      	lsls	r0, r5
1a0005da:	ea21 0100 	bic.w	r1, r1, r0
1a0005de:	f844 1022 	str.w	r1, [r4, r2, lsl #2]
   for (uint32_t i = 0; i < GPIO_PORTS_SIZE; ++i) {
1a0005e2:	3301      	adds	r3, #1
1a0005e4:	2b08      	cmp	r3, #8
1a0005e6:	d9eb      	bls.n	1a0005c0 <Board_GPIO_Init+0x8>
   }
}
1a0005e8:	bc30      	pop	{r4, r5}
1a0005ea:	4770      	bx	lr
1a0005ec:	4770      	bx	lr
1a0005ee:	bf00      	nop
1a0005f0:	1a002eec 	.word	0x1a002eec
1a0005f4:	400f4000 	.word	0x400f4000

1a0005f8 <Board_ADC_Init>:
   Chip_SSP_Enable(LPC_SSP1);
}


static void Board_ADC_Init()
{
1a0005f8:	b510      	push	{r4, lr}
1a0005fa:	b082      	sub	sp, #8
   ADC_CLOCK_SETUP_T cs;

   Chip_ADC_Init(LPC_ADC0, &cs);
1a0005fc:	4c08      	ldr	r4, [pc, #32]	; (1a000620 <Board_ADC_Init+0x28>)
1a0005fe:	4669      	mov	r1, sp
1a000600:	4620      	mov	r0, r4
1a000602:	f000 f9cf 	bl	1a0009a4 <Chip_ADC_Init>
   Chip_ADC_SetSampleRate(LPC_ADC0, &cs, BOARD_ADC_SAMPLE_RATE);
1a000606:	4a07      	ldr	r2, [pc, #28]	; (1a000624 <Board_ADC_Init+0x2c>)
1a000608:	4669      	mov	r1, sp
1a00060a:	4620      	mov	r0, r4
1a00060c:	f000 fa34 	bl	1a000a78 <Chip_ADC_SetSampleRate>
   Chip_ADC_SetResolution(LPC_ADC0, &cs, BOARD_ADC_RESOLUTION);
1a000610:	2200      	movs	r2, #0
1a000612:	4669      	mov	r1, sp
1a000614:	4620      	mov	r0, r4
1a000616:	f000 fa48 	bl	1a000aaa <Chip_ADC_SetResolution>
}
1a00061a:	b002      	add	sp, #8
1a00061c:	bd10      	pop	{r4, pc}
1a00061e:	bf00      	nop
1a000620:	400e3000 	.word	0x400e3000
1a000624:	00061a80 	.word	0x00061a80

1a000628 <Board_SPI_Init>:
{
1a000628:	b510      	push	{r4, lr}
   Chip_SSP_Init(LPC_SSP1);
1a00062a:	4c0b      	ldr	r4, [pc, #44]	; (1a000658 <Board_SPI_Init+0x30>)
1a00062c:	4620      	mov	r0, r4
1a00062e:	f000 fe7b 	bl	1a001328 <Chip_SSP_Init>
 *						- SSP_MODE_SLAVE
 * @return	 Nothing
 */
STATIC INLINE void Chip_SSP_Set_Mode(LPC_SSP_T *pSSP, uint32_t mode)
{
	pSSP->CR1 = (pSSP->CR1 & ~(1 << 2)) | mode;
1a000632:	6863      	ldr	r3, [r4, #4]
1a000634:	f023 0304 	bic.w	r3, r3, #4
1a000638:	6063      	str	r3, [r4, #4]
	pSSP->CR0 = (pSSP->CR0 & ~0xFF) | bits | frameFormat | clockMode;
1a00063a:	6823      	ldr	r3, [r4, #0]
1a00063c:	f023 03ff 	bic.w	r3, r3, #255	; 0xff
1a000640:	f043 0307 	orr.w	r3, r3, #7
1a000644:	6023      	str	r3, [r4, #0]
   Chip_SSP_SetBitRate(LPC_SSP1, BOARD_SPI_SPEED);
1a000646:	4905      	ldr	r1, [pc, #20]	; (1a00065c <Board_SPI_Init+0x34>)
1a000648:	4620      	mov	r0, r4
1a00064a:	f000 fe4e 	bl	1a0012ea <Chip_SSP_SetBitRate>
	pSSP->CR1 |= SSP_CR1_SSP_EN;
1a00064e:	6863      	ldr	r3, [r4, #4]
1a000650:	f043 0302 	orr.w	r3, r3, #2
1a000654:	6063      	str	r3, [r4, #4]
}
1a000656:	bd10      	pop	{r4, pc}
1a000658:	400c5000 	.word	0x400c5000
1a00065c:	000186a0 	.word	0x000186a0

1a000660 <Board_I2C_Init>:
{
1a000660:	b508      	push	{r3, lr}
   Chip_I2C_Init(I2C0);
1a000662:	2000      	movs	r0, #0
1a000664:	f000 fdf4 	bl	1a001250 <Chip_I2C_Init>
 *                  - I2C0_FAST_MODE_PLUS: Fast-mode Plus transmit
 * @return	Nothing
 */
STATIC INLINE void Chip_SCU_I2C0PinConfig(uint32_t I2C0Mode)
{
	LPC_SCU->SFSI2C0 = I2C0Mode;
1a000668:	4b04      	ldr	r3, [pc, #16]	; (1a00067c <Board_I2C_Init+0x1c>)
1a00066a:	f640 0208 	movw	r2, #2056	; 0x808
1a00066e:	f8c3 2c84 	str.w	r2, [r3, #3204]	; 0xc84
   Chip_I2C_SetClockRate(I2C0, BOARD_I2C_SPEED);
1a000672:	4903      	ldr	r1, [pc, #12]	; (1a000680 <Board_I2C_Init+0x20>)
1a000674:	2000      	movs	r0, #0
1a000676:	f000 fdfd 	bl	1a001274 <Chip_I2C_SetClockRate>
}
1a00067a:	bd08      	pop	{r3, pc}
1a00067c:	40086000 	.word	0x40086000
1a000680:	000f4240 	.word	0x000f4240

1a000684 <Board_Debug_Init>:


void Board_Debug_Init(void)
{
1a000684:	b510      	push	{r4, lr}
   Chip_UART_Init(DEBUG_UART);
1a000686:	4c07      	ldr	r4, [pc, #28]	; (1a0006a4 <Board_Debug_Init+0x20>)
1a000688:	4620      	mov	r0, r4
1a00068a:	f000 f897 	bl	1a0007bc <Chip_UART_Init>
   Chip_UART_SetBaudFDR(DEBUG_UART, DEBUG_UART_BAUD_RATE);
1a00068e:	f44f 31e1 	mov.w	r1, #115200	; 0x1c200
1a000692:	4620      	mov	r0, r4
1a000694:	f000 f8dc 	bl	1a000850 <Chip_UART_SetBaudFDR>
 *			stop bit, and even (enabled) parity would be
 *			(UART_LCR_WLEN8 | UART_LCR_SBS_1BIT | UART_LCR_PARITY_EN | UART_LCR_PARITY_EVEN)
 */
STATIC INLINE void Chip_UART_ConfigData(LPC_USART_T *pUART, uint32_t config)
{
	pUART->LCR = config;
1a000698:	2303      	movs	r3, #3
1a00069a:	60e3      	str	r3, [r4, #12]
    pUART->TER2 = UART_TER2_TXEN;
1a00069c:	2301      	movs	r3, #1
1a00069e:	65e3      	str	r3, [r4, #92]	; 0x5c
   Chip_UART_ConfigData(DEBUG_UART, DEBUG_UART_CONFIG);
   Chip_UART_TXEnable(DEBUG_UART);
}
1a0006a0:	bd10      	pop	{r4, pc}
1a0006a2:	bf00      	nop
1a0006a4:	400c1000 	.word	0x400c1000

1a0006a8 <Board_Init>:
   Board_LED_Set(LEDNumber, !Board_LED_Test(LEDNumber));
}


void Board_Init(void)
{
1a0006a8:	b508      	push	{r3, lr}
   DEBUGINIT();
1a0006aa:	f7ff ffeb 	bl	1a000684 <Board_Debug_Init>
   Chip_GPIO_Init (LPC_GPIO_PORT);
1a0006ae:	4809      	ldr	r0, [pc, #36]	; (1a0006d4 <Board_Init+0x2c>)
1a0006b0:	f000 fdbc 	bl	1a00122c <Chip_GPIO_Init>

   Board_GPIO_Init();
1a0006b4:	f7ff ff80 	bl	1a0005b8 <Board_GPIO_Init>
   Board_ADC_Init();
1a0006b8:	f7ff ff9e 	bl	1a0005f8 <Board_ADC_Init>
   Board_SPI_Init();
1a0006bc:	f7ff ffb4 	bl	1a000628 <Board_SPI_Init>
   Board_I2C_Init();
1a0006c0:	f7ff ffce 	bl	1a000660 <Board_I2C_Init>

   Board_LED_Init();
1a0006c4:	f7ff ff36 	bl	1a000534 <Board_LED_Init>
   Board_TEC_Init();
1a0006c8:	f7ff ff56 	bl	1a000578 <Board_TEC_Init>
#ifdef USE_RMII
   Chip_ENET_RMIIEnable(LPC_ETHERNET);
#endif

   // Read clock settings and update SystemCoreClock variable
   SystemCoreClockUpdate(); // @Eric
1a0006cc:	f000 fcfa 	bl	1a0010c4 <SystemCoreClockUpdate>
}
1a0006d0:	bd08      	pop	{r3, pc}
1a0006d2:	bf00      	nop
1a0006d4:	400f4000 	.word	0x400f4000

1a0006d8 <__stdio_init>:
{
   return Board_UARTGetChar();;
}

void __stdio_init()
{
1a0006d8:	b508      	push	{r3, lr}
   Board_Debug_Init();
1a0006da:	f7ff ffd3 	bl	1a000684 <Board_Debug_Init>
1a0006de:	bd08      	pop	{r3, pc}

1a0006e0 <Board_SetupMuxing>:
 * @return	Nothing
 */
STATIC INLINE void Chip_SCU_SetPinMuxing(const PINMUX_GRP_T *pinArray, uint32_t arrayLength)
{
	uint32_t ix;
	for (ix = 0; ix < arrayLength; ix++ ) {
1a0006e0:	2300      	movs	r3, #0
1a0006e2:	2b1c      	cmp	r3, #28
1a0006e4:	d812      	bhi.n	1a00070c <Board_SetupMuxing+0x2c>
    #endif
};


void Board_SetupMuxing(void)
{
1a0006e6:	b410      	push	{r4}
		Chip_SCU_PinMuxSet(pinArray[ix].pingrp, pinArray[ix].pinnum, pinArray[ix].modefunc);
1a0006e8:	4a09      	ldr	r2, [pc, #36]	; (1a000710 <Board_SetupMuxing+0x30>)
1a0006ea:	eb02 0183 	add.w	r1, r2, r3, lsl #2
1a0006ee:	f812 4023 	ldrb.w	r4, [r2, r3, lsl #2]
1a0006f2:	784a      	ldrb	r2, [r1, #1]
1a0006f4:	8848      	ldrh	r0, [r1, #2]
	LPC_SCU->SFSP[port][pin] = modefunc;
1a0006f6:	eb02 1244 	add.w	r2, r2, r4, lsl #5
1a0006fa:	4906      	ldr	r1, [pc, #24]	; (1a000714 <Board_SetupMuxing+0x34>)
1a0006fc:	f841 0022 	str.w	r0, [r1, r2, lsl #2]
	for (ix = 0; ix < arrayLength; ix++ ) {
1a000700:	3301      	adds	r3, #1
1a000702:	2b1c      	cmp	r3, #28
1a000704:	d9f0      	bls.n	1a0006e8 <Board_SetupMuxing+0x8>
    Chip_SCU_SetPinMuxing(pinmuxing, sizeof(pinmuxing) / sizeof(PINMUX_GRP_T));
}
1a000706:	f85d 4b04 	ldr.w	r4, [sp], #4
1a00070a:	4770      	bx	lr
1a00070c:	4770      	bx	lr
1a00070e:	bf00      	nop
1a000710:	1a002f08 	.word	0x1a002f08
1a000714:	40086000 	.word	0x40086000

1a000718 <Board_SetupClocking>:


void Board_SetupClocking(void)
{
1a000718:	b510      	push	{r4, lr}
 */
STATIC INLINE void Chip_CREG_SetFlashAcceleration(uint32_t Hz)
{
	uint32_t FAValue = Hz / 21510000;

	LPC_CREG->FLASHCFGA = (LPC_CREG->FLASHCFGA & (~(0xF << 12))) | (FAValue << 12);
1a00071a:	4a17      	ldr	r2, [pc, #92]	; (1a000778 <Board_SetupClocking+0x60>)
1a00071c:	f8d2 3120 	ldr.w	r3, [r2, #288]	; 0x120
1a000720:	f423 4370 	bic.w	r3, r3, #61440	; 0xf000
1a000724:	f443 4310 	orr.w	r3, r3, #36864	; 0x9000
1a000728:	f8c2 3120 	str.w	r3, [r2, #288]	; 0x120
	LPC_CREG->FLASHCFGB = (LPC_CREG->FLASHCFGB & (~(0xF << 12))) | (FAValue << 12);
1a00072c:	f8d2 3124 	ldr.w	r3, [r2, #292]	; 0x124
1a000730:	f423 4370 	bic.w	r3, r3, #61440	; 0xf000
1a000734:	f443 4310 	orr.w	r3, r3, #36864	; 0x9000
1a000738:	f8c2 3124 	str.w	r3, [r2, #292]	; 0x124
    Chip_CREG_SetFlashAcceleration(MAX_CLOCK_FREQ);
    Chip_SetupCoreClock(CLKIN_CRYSTAL, MAX_CLOCK_FREQ, true);
1a00073c:	2201      	movs	r2, #1
1a00073e:	490f      	ldr	r1, [pc, #60]	; (1a00077c <Board_SetupClocking+0x64>)
1a000740:	2006      	movs	r0, #6
1a000742:	f000 fcc9 	bl	1a0010d8 <Chip_SetupCoreClock>

    /* Setup system base clocks and initial states. This won't enable and
       disable individual clocks, but sets up the base clock sources for
       each individual peripheral clock. */
    for (uint32_t i = 0; i < (sizeof(InitClkStates) / sizeof(InitClkStates[0])); ++i)
1a000746:	2400      	movs	r4, #0
1a000748:	b14c      	cbz	r4, 1a00075e <Board_SetupClocking+0x46>
        Chip_Clock_SetBaseClock (c->clk, c->clkin, c->autoblock_enab,
                                c->powerdn);
    }

    /* Reset and enable 32Khz oscillator */
    LPC_CREG->CREG0 &= ~((1 << 3) | (1 << 2));
1a00074a:	4b0b      	ldr	r3, [pc, #44]	; (1a000778 <Board_SetupClocking+0x60>)
1a00074c:	685a      	ldr	r2, [r3, #4]
1a00074e:	f022 020c 	bic.w	r2, r2, #12
1a000752:	605a      	str	r2, [r3, #4]
    LPC_CREG->CREG0 |= (1 << 1) | (1 << 0);
1a000754:	685a      	ldr	r2, [r3, #4]
1a000756:	f042 0203 	orr.w	r2, r2, #3
1a00075a:	605a      	str	r2, [r3, #4]
}
1a00075c:	bd10      	pop	{r4, pc}
        Chip_Clock_SetBaseClock (c->clk, c->clkin, c->autoblock_enab,
1a00075e:	4808      	ldr	r0, [pc, #32]	; (1a000780 <Board_SetupClocking+0x68>)
1a000760:	eb00 0184 	add.w	r1, r0, r4, lsl #2
1a000764:	2301      	movs	r3, #1
1a000766:	788a      	ldrb	r2, [r1, #2]
1a000768:	7849      	ldrb	r1, [r1, #1]
1a00076a:	f810 0024 	ldrb.w	r0, [r0, r4, lsl #2]
1a00076e:	f000 fbeb 	bl	1a000f48 <Chip_Clock_SetBaseClock>
    for (uint32_t i = 0; i < (sizeof(InitClkStates) / sizeof(InitClkStates[0])); ++i)
1a000772:	3401      	adds	r4, #1
1a000774:	e7e8      	b.n	1a000748 <Board_SetupClocking+0x30>
1a000776:	bf00      	nop
1a000778:	40043000 	.word	0x40043000
1a00077c:	0c28cb00 	.word	0x0c28cb00
1a000780:	1a002f04 	.word	0x1a002f04

1a000784 <Board_SystemInit>:


/* Set up and initialize hardware prior to call to main */
void Board_SystemInit(void)
{
1a000784:	b508      	push	{r3, lr}
    /* Setup system clocking and memory. This is done early to allow the
       application and tools to clear memory and use scatter loading to
       external memory. */
    Board_SetupMuxing();
1a000786:	f7ff ffab 	bl	1a0006e0 <Board_SetupMuxing>
    Board_SetupClocking();
1a00078a:	f7ff ffc5 	bl	1a000718 <Board_SetupClocking>
}
1a00078e:	bd08      	pop	{r3, pc}

1a000790 <Chip_UART_GetIndex>:

/* Returns clock index for the peripheral block */
static int Chip_UART_GetIndex(LPC_USART_T *pUART)
{
	uint32_t base = (uint32_t) pUART;
	switch(base) {
1a000790:	4b09      	ldr	r3, [pc, #36]	; (1a0007b8 <Chip_UART_GetIndex+0x28>)
1a000792:	4298      	cmp	r0, r3
1a000794:	d009      	beq.n	1a0007aa <Chip_UART_GetIndex+0x1a>
1a000796:	f503 5380 	add.w	r3, r3, #4096	; 0x1000
1a00079a:	4298      	cmp	r0, r3
1a00079c:	d007      	beq.n	1a0007ae <Chip_UART_GetIndex+0x1e>
1a00079e:	f5a3 2380 	sub.w	r3, r3, #262144	; 0x40000
1a0007a2:	4298      	cmp	r0, r3
1a0007a4:	d005      	beq.n	1a0007b2 <Chip_UART_GetIndex+0x22>
		case LPC_USART0_BASE:
			return 0;
1a0007a6:	2000      	movs	r0, #0
1a0007a8:	4770      	bx	lr
		case LPC_UART1_BASE:
			return 1;
		case LPC_USART2_BASE:
			return 2;
1a0007aa:	2002      	movs	r0, #2
1a0007ac:	4770      	bx	lr
		case LPC_USART3_BASE:
			return 3;
1a0007ae:	2003      	movs	r0, #3
1a0007b0:	4770      	bx	lr
			return 1;
1a0007b2:	2001      	movs	r0, #1
		default:
			return 0; /* Should never come here */
	}
}
1a0007b4:	4770      	bx	lr
1a0007b6:	bf00      	nop
1a0007b8:	400c1000 	.word	0x400c1000

1a0007bc <Chip_UART_Init>:
 * Public functions
 ****************************************************************************/

/* Initializes the pUART peripheral */
void Chip_UART_Init(LPC_USART_T *pUART)
{
1a0007bc:	b530      	push	{r4, r5, lr}
1a0007be:	b083      	sub	sp, #12
1a0007c0:	4604      	mov	r4, r0
    volatile uint32_t tmp;

	/* Enable UART clocking. UART base clock(s) must already be enabled */
	Chip_Clock_EnableOpts(UART_PClock[Chip_UART_GetIndex(pUART)], true, true, 1);
1a0007c2:	f7ff ffe5 	bl	1a000790 <Chip_UART_GetIndex>
1a0007c6:	2301      	movs	r3, #1
1a0007c8:	461a      	mov	r2, r3
1a0007ca:	4619      	mov	r1, r3
1a0007cc:	4d0e      	ldr	r5, [pc, #56]	; (1a000808 <Chip_UART_Init+0x4c>)
1a0007ce:	f835 0010 	ldrh.w	r0, [r5, r0, lsl #1]
1a0007d2:	f000 fbff 	bl	1a000fd4 <Chip_Clock_EnableOpts>
	pUART->FCR = fcr;
1a0007d6:	2307      	movs	r3, #7
1a0007d8:	60a3      	str	r3, [r4, #8]
    pUART->TER2 = 0;
1a0007da:	2300      	movs	r3, #0
1a0007dc:	65e3      	str	r3, [r4, #92]	; 0x5c

    /* Disable Tx */
    Chip_UART_TXDisable(pUART);

    /* Disable interrupts */
	pUART->IER = 0;
1a0007de:	6063      	str	r3, [r4, #4]
	/* Set LCR to default state */
	pUART->LCR = 0;
1a0007e0:	60e3      	str	r3, [r4, #12]
	/* Set ACR to default state */
	pUART->ACR = 0;
1a0007e2:	6223      	str	r3, [r4, #32]
    /* Set RS485 control to default state */
	pUART->RS485CTRL = 0;
1a0007e4:	64e3      	str	r3, [r4, #76]	; 0x4c
	/* Set RS485 delay timer to default state */
	pUART->RS485DLY = 0;
1a0007e6:	6563      	str	r3, [r4, #84]	; 0x54
	/* Set RS485 addr match to default state */
	pUART->RS485ADRMATCH = 0;
1a0007e8:	6523      	str	r3, [r4, #80]	; 0x50

    /* Clear MCR */
    if (pUART == LPC_UART1) {
1a0007ea:	4b08      	ldr	r3, [pc, #32]	; (1a00080c <Chip_UART_Init+0x50>)
1a0007ec:	429c      	cmp	r4, r3
1a0007ee:	d006      	beq.n	1a0007fe <Chip_UART_Init+0x42>
	pUART->LCR = config;
1a0007f0:	2303      	movs	r3, #3
1a0007f2:	60e3      	str	r3, [r4, #12]

	/* Default 8N1, with DLAB disabled */
	Chip_UART_ConfigData(pUART, (UART_LCR_WLEN8 | UART_LCR_SBS_1BIT | UART_LCR_PARITY_DIS));

	/* Disable fractional divider */
	pUART->FDR = 0x10;
1a0007f4:	2310      	movs	r3, #16
1a0007f6:	62a3      	str	r3, [r4, #40]	; 0x28

    (void) tmp;
1a0007f8:	9b01      	ldr	r3, [sp, #4]
}
1a0007fa:	b003      	add	sp, #12
1a0007fc:	bd30      	pop	{r4, r5, pc}
		pUART->MCR = 0;
1a0007fe:	2300      	movs	r3, #0
1a000800:	6123      	str	r3, [r4, #16]
		tmp = pUART->MSR;
1a000802:	69a3      	ldr	r3, [r4, #24]
1a000804:	9301      	str	r3, [sp, #4]
1a000806:	e7f3      	b.n	1a0007f0 <Chip_UART_Init+0x34>
1a000808:	1a002f84 	.word	0x1a002f84
1a00080c:	40082000 	.word	0x40082000

1a000810 <Chip_UART_SetBaud>:
	return readBytes;
}

/* Determines and sets best dividers to get a target bit rate */
uint32_t Chip_UART_SetBaud(LPC_USART_T *pUART, uint32_t baudrate)
{
1a000810:	b538      	push	{r3, r4, r5, lr}
1a000812:	4605      	mov	r5, r0
1a000814:	460c      	mov	r4, r1
	uint32_t div, divh, divl, clkin;

	/* Determine UART clock in rate without FDR */
	clkin = Chip_Clock_GetRate(UART_BClock[Chip_UART_GetIndex(pUART)]);
1a000816:	f7ff ffbb 	bl	1a000790 <Chip_UART_GetIndex>
1a00081a:	4b0c      	ldr	r3, [pc, #48]	; (1a00084c <Chip_UART_SetBaud+0x3c>)
1a00081c:	f833 0010 	ldrh.w	r0, [r3, r0, lsl #1]
1a000820:	f000 fc2a 	bl	1a001078 <Chip_Clock_GetRate>
	div = clkin / (baudrate * 16);
1a000824:	0123      	lsls	r3, r4, #4
1a000826:	fbb0 f3f3 	udiv	r3, r0, r3
1a00082a:	b2d9      	uxtb	r1, r3
 * @param	pUART	: Pointer to selected UART peripheral
 * @return	Nothing
 */
STATIC INLINE void Chip_UART_EnableDivisorAccess(LPC_USART_T *pUART)
{
	pUART->LCR |= UART_LCR_DLAB_EN;
1a00082c:	68ea      	ldr	r2, [r5, #12]
1a00082e:	f042 0280 	orr.w	r2, r2, #128	; 0x80
1a000832:	60ea      	str	r2, [r5, #12]
 *			order to access the USART Divisor Latches. This function
 *			doesn't alter the DLAB state.
 */
STATIC INLINE void Chip_UART_SetDivisorLatches(LPC_USART_T *pUART, uint8_t dll, uint8_t dlm)
{
	pUART->DLL = (uint32_t) dll;
1a000834:	6029      	str	r1, [r5, #0]
1a000836:	f3c3 2207 	ubfx	r2, r3, #8, #8
	pUART->DLM = (uint32_t) dlm;
1a00083a:	606a      	str	r2, [r5, #4]
	pUART->LCR &= ~UART_LCR_DLAB_EN;
1a00083c:	68ea      	ldr	r2, [r5, #12]
1a00083e:	f022 0280 	bic.w	r2, r2, #128	; 0x80
1a000842:	60ea      	str	r2, [r5, #12]
	Chip_UART_SetDivisorLatches(pUART, divl, divh);
	Chip_UART_DisableDivisorAccess(pUART);

	/* Fractional FDR alreadt setup for 1 in UART init */

	return (clkin / div) >> 4;
1a000844:	fbb0 f0f3 	udiv	r0, r0, r3
}
1a000848:	0900      	lsrs	r0, r0, #4
1a00084a:	bd38      	pop	{r3, r4, r5, pc}
1a00084c:	1a002f7c 	.word	0x1a002f7c

1a000850 <Chip_UART_SetBaudFDR>:
    Chip_UART_ABIntHandler(pUART);
}

/* Determines and sets best dividers to get a target baud rate */
uint32_t Chip_UART_SetBaudFDR(LPC_USART_T *pUART, uint32_t baud)
{
1a000850:	e92d 4ff0 	stmdb	sp!, {r4, r5, r6, r7, r8, r9, sl, fp, lr}
1a000854:	b083      	sub	sp, #12
1a000856:	4683      	mov	fp, r0
1a000858:	4688      	mov	r8, r1
	uint32_t sdiv = 0, sm = 1, sd = 0;
	uint32_t pclk, m, d;
	uint32_t odiff = -1UL; /* old best diff */

	/* Get base clock for the corresponding UART */
	pclk = Chip_Clock_GetRate(UART_BClock[Chip_UART_GetIndex(pUART)]);
1a00085a:	f7ff ff99 	bl	1a000790 <Chip_UART_GetIndex>
1a00085e:	4b35      	ldr	r3, [pc, #212]	; (1a000934 <Chip_UART_SetBaudFDR+0xe4>)
1a000860:	f833 0010 	ldrh.w	r0, [r3, r0, lsl #1]
1a000864:	f000 fc08 	bl	1a001078 <Chip_Clock_GetRate>
1a000868:	4606      	mov	r6, r0
	uint32_t odiff = -1UL; /* old best diff */
1a00086a:	f04f 37ff 	mov.w	r7, #4294967295	; 0xffffffff

	/* Loop through all possible fractional divider values */
	for (m = 1; odiff && m < 16; m++) {
1a00086e:	2401      	movs	r4, #1
	uint32_t sdiv = 0, sm = 1, sd = 0;
1a000870:	2300      	movs	r3, #0
1a000872:	9301      	str	r3, [sp, #4]
1a000874:	46a2      	mov	sl, r4
1a000876:	4699      	mov	r9, r3
	for (m = 1; odiff && m < 16; m++) {
1a000878:	e02a      	b.n	1a0008d0 <Chip_UART_SetBaudFDR+0x80>
			/* Upper 32-bit of dval has div */
			div = (uint32_t) (dval >> 32);

			/* Closer to next div */
			if ((int)diff < 0) {
				diff = -diff;
1a00087a:	4242      	negs	r2, r0
				div ++;
1a00087c:	1c4b      	adds	r3, r1, #1
1a00087e:	e017      	b.n	1a0008b0 <Chip_UART_SetBaudFDR+0x60>
			sd = d;
			sm = m;
			odiff = diff;

			/* On perfect match, break loop */
			if(!diff) {
1a000880:	b30a      	cbz	r2, 1a0008c6 <Chip_UART_SetBaudFDR+0x76>
			odiff = diff;
1a000882:	4617      	mov	r7, r2
			sd = d;
1a000884:	9501      	str	r5, [sp, #4]
			sm = m;
1a000886:	46a2      	mov	sl, r4
			sdiv = div;
1a000888:	4699      	mov	r9, r3
		for (d = 0; d < m; d++) {
1a00088a:	3501      	adds	r5, #1
1a00088c:	42ac      	cmp	r4, r5
1a00088e:	d91e      	bls.n	1a0008ce <Chip_UART_SetBaudFDR+0x7e>
			uint64_t dval = (((uint64_t) pclk << 28) * m) / (baud * (m + d));
1a000890:	0933      	lsrs	r3, r6, #4
1a000892:	0730      	lsls	r0, r6, #28
1a000894:	fba4 0100 	umull	r0, r1, r4, r0
1a000898:	fb04 1103 	mla	r1, r4, r3, r1
1a00089c:	1962      	adds	r2, r4, r5
1a00089e:	fb08 f202 	mul.w	r2, r8, r2
1a0008a2:	2300      	movs	r3, #0
1a0008a4:	f002 f924 	bl	1a002af0 <__aeabi_uldivmod>
			diff = (uint32_t) dval;
1a0008a8:	4602      	mov	r2, r0
			div = (uint32_t) (dval >> 32);
1a0008aa:	460b      	mov	r3, r1
			if ((int)diff < 0) {
1a0008ac:	2800      	cmp	r0, #0
1a0008ae:	dbe4      	blt.n	1a00087a <Chip_UART_SetBaudFDR+0x2a>
			if (odiff < diff || !div || (div >> 16) || (div < 3 && d)) {
1a0008b0:	4297      	cmp	r7, r2
1a0008b2:	d3ea      	bcc.n	1a00088a <Chip_UART_SetBaudFDR+0x3a>
1a0008b4:	2b00      	cmp	r3, #0
1a0008b6:	d0e8      	beq.n	1a00088a <Chip_UART_SetBaudFDR+0x3a>
1a0008b8:	0c19      	lsrs	r1, r3, #16
1a0008ba:	d1e6      	bne.n	1a00088a <Chip_UART_SetBaudFDR+0x3a>
1a0008bc:	2b02      	cmp	r3, #2
1a0008be:	d8df      	bhi.n	1a000880 <Chip_UART_SetBaudFDR+0x30>
1a0008c0:	2d00      	cmp	r5, #0
1a0008c2:	d0dd      	beq.n	1a000880 <Chip_UART_SetBaudFDR+0x30>
1a0008c4:	e7e1      	b.n	1a00088a <Chip_UART_SetBaudFDR+0x3a>
			odiff = diff;
1a0008c6:	4617      	mov	r7, r2
			sd = d;
1a0008c8:	9501      	str	r5, [sp, #4]
			sm = m;
1a0008ca:	46a2      	mov	sl, r4
			sdiv = div;
1a0008cc:	4699      	mov	r9, r3
	for (m = 1; odiff && m < 16; m++) {
1a0008ce:	3401      	adds	r4, #1
1a0008d0:	b11f      	cbz	r7, 1a0008da <Chip_UART_SetBaudFDR+0x8a>
1a0008d2:	2c0f      	cmp	r4, #15
1a0008d4:	d801      	bhi.n	1a0008da <Chip_UART_SetBaudFDR+0x8a>
		for (d = 0; d < m; d++) {
1a0008d6:	2500      	movs	r5, #0
1a0008d8:	e7d8      	b.n	1a00088c <Chip_UART_SetBaudFDR+0x3c>
			}
		}
	}

	/* Return 0 if a vaild divisor is not possible */
	if (!sdiv) {
1a0008da:	f1b9 0f00 	cmp.w	r9, #0
1a0008de:	d024      	beq.n	1a00092a <Chip_UART_SetBaudFDR+0xda>
	pUART->LCR |= UART_LCR_DLAB_EN;
1a0008e0:	f8db 300c 	ldr.w	r3, [fp, #12]
1a0008e4:	f043 0380 	orr.w	r3, r3, #128	; 0x80
1a0008e8:	f8cb 300c 	str.w	r3, [fp, #12]
1a0008ec:	fa5f f389 	uxtb.w	r3, r9
	pUART->DLL = (uint32_t) dll;
1a0008f0:	f8cb 3000 	str.w	r3, [fp]
1a0008f4:	f3c9 2307 	ubfx	r3, r9, #8, #8
	pUART->DLM = (uint32_t) dlm;
1a0008f8:	f8cb 3004 	str.w	r3, [fp, #4]
	pUART->LCR &= ~UART_LCR_DLAB_EN;
1a0008fc:	f8db 300c 	ldr.w	r3, [fp, #12]
1a000900:	f023 0380 	bic.w	r3, r3, #128	; 0x80
1a000904:	f8cb 300c 	str.w	r3, [fp, #12]
	Chip_UART_EnableDivisorAccess(pUART);
	Chip_UART_SetDivisorLatches(pUART, UART_LOAD_DLL(sdiv), UART_LOAD_DLM(sdiv));
	Chip_UART_DisableDivisorAccess(pUART);

	/* Set best fractional divider */
	pUART->FDR = (UART_FDR_MULVAL(sm) | UART_FDR_DIVADDVAL(sd));
1a000908:	ea4f 130a 	mov.w	r3, sl, lsl #4
1a00090c:	b2db      	uxtb	r3, r3
1a00090e:	9901      	ldr	r1, [sp, #4]
1a000910:	f001 020f 	and.w	r2, r1, #15
1a000914:	4313      	orrs	r3, r2
1a000916:	f8cb 3028 	str.w	r3, [fp, #40]	; 0x28

	/* Return actual baud rate */
	return (pclk >> 4) * sm / (sdiv * (sm + sd));
1a00091a:	0933      	lsrs	r3, r6, #4
1a00091c:	fb0a f303 	mul.w	r3, sl, r3
1a000920:	448a      	add	sl, r1
1a000922:	fb09 f90a 	mul.w	r9, r9, sl
1a000926:	fbb3 f9f9 	udiv	r9, r3, r9
}
1a00092a:	4648      	mov	r0, r9
1a00092c:	b003      	add	sp, #12
1a00092e:	e8bd 8ff0 	ldmia.w	sp!, {r4, r5, r6, r7, r8, r9, sl, fp, pc}
1a000932:	bf00      	nop
1a000934:	1a002f7c 	.word	0x1a002f7c

1a000938 <Chip_ADC_GetClockIndex>:
/* Returns clock index for the peripheral block */
STATIC CHIP_CCU_CLK_T Chip_ADC_GetClockIndex(LPC_ADC_T *pADC)
{
	CHIP_CCU_CLK_T clkADC;

	if (pADC == LPC_ADC1) {
1a000938:	4b03      	ldr	r3, [pc, #12]	; (1a000948 <Chip_ADC_GetClockIndex+0x10>)
1a00093a:	4298      	cmp	r0, r3
1a00093c:	d001      	beq.n	1a000942 <Chip_ADC_GetClockIndex+0xa>
		clkADC = CLK_APB3_ADC1;
	}
	else {
		clkADC = CLK_APB3_ADC0;
1a00093e:	2003      	movs	r0, #3
	}

	return clkADC;
}
1a000940:	4770      	bx	lr
		clkADC = CLK_APB3_ADC1;
1a000942:	2004      	movs	r0, #4
1a000944:	4770      	bx	lr
1a000946:	bf00      	nop
1a000948:	400e4000 	.word	0x400e4000

1a00094c <getClkDiv>:

/* Get divider value */
STATIC uint8_t getClkDiv(LPC_ADC_T *pADC, bool burstMode, uint32_t adcRate, uint8_t clks)
{
1a00094c:	b570      	push	{r4, r5, r6, lr}
1a00094e:	460d      	mov	r5, r1
1a000950:	4614      	mov	r4, r2
1a000952:	461e      	mov	r6, r3
	   A/D converter, which should be less than or equal to 4.5MHz.
	   A fully conversion requires (bits_accuracy+1) of these clocks.
	   ADC Clock = PCLK_ADC0 / (CLKDIV + 1);
	   ADC rate = ADC clock / (the number of clocks required for each conversion);
	 */
	adcBlockFreq = Chip_Clock_GetRate(Chip_ADC_GetClockIndex(pADC));
1a000954:	f7ff fff0 	bl	1a000938 <Chip_ADC_GetClockIndex>
1a000958:	f000 fb8e 	bl	1a001078 <Chip_Clock_GetRate>
	if (burstMode) {
1a00095c:	b965      	cbnz	r5, 1a000978 <getClkDiv+0x2c>
		fullAdcRate = adcRate * clks;
	}
	else {
		fullAdcRate = adcRate * getFullConvClk();
1a00095e:	eb04 0384 	add.w	r3, r4, r4, lsl #2
1a000962:	eb04 0443 	add.w	r4, r4, r3, lsl #1
	}

	/* Get the round value by fomular: (2*A + B)/(2*B) */
	div = ((adcBlockFreq * 2 + fullAdcRate) / (fullAdcRate * 2)) - 1;
1a000966:	eb04 0040 	add.w	r0, r4, r0, lsl #1
1a00096a:	0064      	lsls	r4, r4, #1
1a00096c:	fbb0 f0f4 	udiv	r0, r0, r4
1a000970:	b2c0      	uxtb	r0, r0
1a000972:	3801      	subs	r0, #1
	return div;
}
1a000974:	b2c0      	uxtb	r0, r0
1a000976:	bd70      	pop	{r4, r5, r6, pc}
		fullAdcRate = adcRate * clks;
1a000978:	fb04 f406 	mul.w	r4, r4, r6
1a00097c:	e7f3      	b.n	1a000966 <getClkDiv+0x1a>

1a00097e <setStartMode>:

/* Set start mode for ADC */
void setStartMode(LPC_ADC_T *pADC, uint8_t start_mode)
{
	uint32_t temp;
	temp = pADC->CR & (~ADC_CR_START_MASK);
1a00097e:	6803      	ldr	r3, [r0, #0]
1a000980:	f023 63e0 	bic.w	r3, r3, #117440512	; 0x7000000
	pADC->CR = temp | (ADC_CR_START_MODE_SEL((uint32_t) start_mode));
1a000984:	ea43 6101 	orr.w	r1, r3, r1, lsl #24
1a000988:	6001      	str	r1, [r0, #0]
}
1a00098a:	4770      	bx	lr

1a00098c <readAdcVal>:

/* Get the ADC value */
Status readAdcVal(LPC_ADC_T *pADC, uint8_t channel, uint16_t *data)
{
	uint32_t temp;
	temp = pADC->DR[channel];
1a00098c:	3104      	adds	r1, #4
1a00098e:	f850 3021 	ldr.w	r3, [r0, r1, lsl #2]
	if (!ADC_DR_DONE(temp)) {
1a000992:	2b00      	cmp	r3, #0
1a000994:	db01      	blt.n	1a00099a <readAdcVal+0xe>
		return ERROR;
1a000996:	2000      	movs	r0, #0
	}
	/*	if(ADC_DR_OVERRUN(temp) && (pADC->CR & ADC_CR_BURST)) */
	/*	return ERROR; */
	*data = (uint16_t) ADC_DR_RESULT(temp);
	return SUCCESS;
}
1a000998:	4770      	bx	lr
	*data = (uint16_t) ADC_DR_RESULT(temp);
1a00099a:	f3c3 1389 	ubfx	r3, r3, #6, #10
1a00099e:	8013      	strh	r3, [r2, #0]
	return SUCCESS;
1a0009a0:	2001      	movs	r0, #1
1a0009a2:	4770      	bx	lr

1a0009a4 <Chip_ADC_Init>:
 * Public functions
 ****************************************************************************/

/* Initialize the ADC peripheral and the ADC setup structure to default value */
void Chip_ADC_Init(LPC_ADC_T *pADC, ADC_CLOCK_SETUP_T *ADCSetup)
{
1a0009a4:	b538      	push	{r3, r4, r5, lr}
1a0009a6:	4605      	mov	r5, r0
1a0009a8:	460c      	mov	r4, r1
	uint8_t div;
	uint32_t cr = 0;
	uint32_t clk;

	Chip_Clock_EnableOpts(Chip_ADC_GetClockIndex(pADC), true, true, 1);
1a0009aa:	f7ff ffc5 	bl	1a000938 <Chip_ADC_GetClockIndex>
1a0009ae:	2301      	movs	r3, #1
1a0009b0:	461a      	mov	r2, r3
1a0009b2:	4619      	mov	r1, r3
1a0009b4:	f000 fb0e 	bl	1a000fd4 <Chip_Clock_EnableOpts>

	pADC->INTEN = 0;		/* Disable all interrupts */
1a0009b8:	2100      	movs	r1, #0
1a0009ba:	60e9      	str	r1, [r5, #12]

	cr |= ADC_CR_PDN;
	ADCSetup->adcRate = ADC_MAX_SAMPLE_RATE;
1a0009bc:	4a08      	ldr	r2, [pc, #32]	; (1a0009e0 <Chip_ADC_Init+0x3c>)
1a0009be:	6022      	str	r2, [r4, #0]
	ADCSetup->bitsAccuracy = ADC_10BITS;
1a0009c0:	7121      	strb	r1, [r4, #4]
	clk = 11;
	ADCSetup->burstMode = false;
1a0009c2:	7161      	strb	r1, [r4, #5]
	div = getClkDiv(pADC, false, ADCSetup->adcRate, clk);
1a0009c4:	230b      	movs	r3, #11
1a0009c6:	4628      	mov	r0, r5
1a0009c8:	f7ff ffc0 	bl	1a00094c <getClkDiv>
	cr |= ADC_CR_CLKDIV(div);
1a0009cc:	0200      	lsls	r0, r0, #8
1a0009ce:	f440 1300 	orr.w	r3, r0, #2097152	; 0x200000
	cr |= ADC_CR_BITACC(ADCSetup->bitsAccuracy);
1a0009d2:	7920      	ldrb	r0, [r4, #4]
1a0009d4:	0440      	lsls	r0, r0, #17
1a0009d6:	f400 2060 	and.w	r0, r0, #917504	; 0xe0000
1a0009da:	4318      	orrs	r0, r3
	pADC->CR = cr;
1a0009dc:	6028      	str	r0, [r5, #0]
}
1a0009de:	bd38      	pop	{r3, r4, r5, pc}
1a0009e0:	00061a80 	.word	0x00061a80

1a0009e4 <Chip_ADC_DeInit>:

/* Shutdown ADC */
void Chip_ADC_DeInit(LPC_ADC_T *pADC)
{
1a0009e4:	b508      	push	{r3, lr}
	pADC->INTEN = 0x00000100;
1a0009e6:	f44f 7280 	mov.w	r2, #256	; 0x100
1a0009ea:	60c2      	str	r2, [r0, #12]
	pADC->CR = 0;
1a0009ec:	2200      	movs	r2, #0
1a0009ee:	6002      	str	r2, [r0, #0]
	Chip_Clock_Disable(Chip_ADC_GetClockIndex(pADC));
1a0009f0:	f7ff ffa2 	bl	1a000938 <Chip_ADC_GetClockIndex>
1a0009f4:	f000 fb26 	bl	1a001044 <Chip_Clock_Disable>
}
1a0009f8:	bd08      	pop	{r3, pc}

1a0009fa <Chip_ADC_ReadValue>:

/* Get the ADC value */
Status Chip_ADC_ReadValue(LPC_ADC_T *pADC, uint8_t channel, uint16_t *data)
{
1a0009fa:	b508      	push	{r3, lr}
	return readAdcVal(pADC, channel, data);
1a0009fc:	f7ff ffc6 	bl	1a00098c <readAdcVal>
}
1a000a00:	bd08      	pop	{r3, pc}

1a000a02 <Chip_ADC_ReadStatus>:

/* Get ADC Channel status from ADC data register */
FlagStatus Chip_ADC_ReadStatus(LPC_ADC_T *pADC, uint8_t channel, uint32_t StatusType)
{
	switch (StatusType) {
1a000a02:	2a01      	cmp	r2, #1
1a000a04:	d00a      	beq.n	1a000a1c <Chip_ADC_ReadStatus+0x1a>
1a000a06:	b11a      	cbz	r2, 1a000a10 <Chip_ADC_ReadStatus+0xe>
1a000a08:	2a02      	cmp	r2, #2
1a000a0a:	d00f      	beq.n	1a000a2c <Chip_ADC_ReadStatus+0x2a>
		return pADC->STAT >> 16 ? SET : RESET;

	default:
		break;
	}
	return RESET;
1a000a0c:	2000      	movs	r0, #0
}
1a000a0e:	4770      	bx	lr
		return (pADC->STAT & (1UL << channel)) ? SET : RESET;
1a000a10:	6b00      	ldr	r0, [r0, #48]	; 0x30
1a000a12:	40c8      	lsrs	r0, r1
1a000a14:	f000 0001 	and.w	r0, r0, #1
1a000a18:	b2c0      	uxtb	r0, r0
1a000a1a:	4770      	bx	lr
		channel += 8;
1a000a1c:	3108      	adds	r1, #8
1a000a1e:	b2c9      	uxtb	r1, r1
		return (pADC->STAT & (1UL << channel)) ? SET : RESET;
1a000a20:	6b00      	ldr	r0, [r0, #48]	; 0x30
1a000a22:	40c8      	lsrs	r0, r1
1a000a24:	f000 0001 	and.w	r0, r0, #1
1a000a28:	b2c0      	uxtb	r0, r0
1a000a2a:	4770      	bx	lr
		return pADC->STAT >> 16 ? SET : RESET;
1a000a2c:	6b03      	ldr	r3, [r0, #48]	; 0x30
1a000a2e:	0c1b      	lsrs	r3, r3, #16
1a000a30:	bf14      	ite	ne
1a000a32:	2001      	movne	r0, #1
1a000a34:	2000      	moveq	r0, #0
1a000a36:	4770      	bx	lr

1a000a38 <Chip_ADC_Int_SetChannelCmd>:

/* Enable/Disable interrupt for ADC channel */
void Chip_ADC_Int_SetChannelCmd(LPC_ADC_T *pADC, uint8_t channel, FunctionalState NewState)
{
	if (NewState == ENABLE) {
1a000a38:	2a01      	cmp	r2, #1
1a000a3a:	d007      	beq.n	1a000a4c <Chip_ADC_Int_SetChannelCmd+0x14>
		pADC->INTEN |= (1UL << channel);
	}
	else {
		pADC->INTEN &= (~(1UL << channel));
1a000a3c:	68c3      	ldr	r3, [r0, #12]
1a000a3e:	2201      	movs	r2, #1
1a000a40:	fa02 f101 	lsl.w	r1, r2, r1
1a000a44:	ea23 0101 	bic.w	r1, r3, r1
1a000a48:	60c1      	str	r1, [r0, #12]
	}
}
1a000a4a:	4770      	bx	lr
		pADC->INTEN |= (1UL << channel);
1a000a4c:	68c3      	ldr	r3, [r0, #12]
1a000a4e:	fa02 f101 	lsl.w	r1, r2, r1
1a000a52:	4319      	orrs	r1, r3
1a000a54:	60c1      	str	r1, [r0, #12]
1a000a56:	4770      	bx	lr

1a000a58 <Chip_ADC_SetStartMode>:

/* Select the mode starting the AD conversion */
void Chip_ADC_SetStartMode(LPC_ADC_T *pADC, ADC_START_MODE_T mode, ADC_EDGE_CFG_T EdgeOption)
{
1a000a58:	b508      	push	{r3, lr}
	if ((mode != ADC_START_NOW) && (mode != ADC_NO_START)) {
1a000a5a:	2901      	cmp	r1, #1
1a000a5c:	d904      	bls.n	1a000a68 <Chip_ADC_SetStartMode+0x10>
		if (EdgeOption) {
1a000a5e:	b932      	cbnz	r2, 1a000a6e <Chip_ADC_SetStartMode+0x16>
			pADC->CR |= ADC_CR_EDGE;
		}
		else {
			pADC->CR &= ~ADC_CR_EDGE;
1a000a60:	6803      	ldr	r3, [r0, #0]
1a000a62:	f023 6300 	bic.w	r3, r3, #134217728	; 0x8000000
1a000a66:	6003      	str	r3, [r0, #0]
		}
	}
	setStartMode(pADC, (uint8_t) mode);
1a000a68:	f7ff ff89 	bl	1a00097e <setStartMode>
}
1a000a6c:	bd08      	pop	{r3, pc}
			pADC->CR |= ADC_CR_EDGE;
1a000a6e:	6803      	ldr	r3, [r0, #0]
1a000a70:	f043 6300 	orr.w	r3, r3, #134217728	; 0x8000000
1a000a74:	6003      	str	r3, [r0, #0]
1a000a76:	e7f7      	b.n	1a000a68 <Chip_ADC_SetStartMode+0x10>

1a000a78 <Chip_ADC_SetSampleRate>:

/* Set the ADC Sample rate */
void Chip_ADC_SetSampleRate(LPC_ADC_T *pADC, ADC_CLOCK_SETUP_T *ADCSetup, uint32_t rate)
{
1a000a78:	b570      	push	{r4, r5, r6, lr}
1a000a7a:	4605      	mov	r5, r0
1a000a7c:	460e      	mov	r6, r1
	uint8_t div;
	uint32_t cr;

	cr = pADC->CR & (~ADC_SAMPLE_RATE_CONFIG_MASK);
1a000a7e:	6804      	ldr	r4, [r0, #0]
1a000a80:	f424 246f 	bic.w	r4, r4, #978944	; 0xef000
1a000a84:	f424 6470 	bic.w	r4, r4, #3840	; 0xf00
	ADCSetup->adcRate = rate;
1a000a88:	600a      	str	r2, [r1, #0]
	div = getClkDiv(pADC, ADCSetup->burstMode, rate, (11 - ADCSetup->bitsAccuracy));
1a000a8a:	790b      	ldrb	r3, [r1, #4]
1a000a8c:	f1c3 030b 	rsb	r3, r3, #11
1a000a90:	b2db      	uxtb	r3, r3
1a000a92:	7949      	ldrb	r1, [r1, #5]
1a000a94:	f7ff ff5a 	bl	1a00094c <getClkDiv>
	cr |= ADC_CR_CLKDIV(div);
1a000a98:	ea44 2400 	orr.w	r4, r4, r0, lsl #8
	cr |= ADC_CR_BITACC(ADCSetup->bitsAccuracy);
1a000a9c:	7930      	ldrb	r0, [r6, #4]
1a000a9e:	0440      	lsls	r0, r0, #17
1a000aa0:	f400 2060 	and.w	r0, r0, #917504	; 0xe0000
1a000aa4:	4320      	orrs	r0, r4
	pADC->CR = cr;
1a000aa6:	6028      	str	r0, [r5, #0]
}
1a000aa8:	bd70      	pop	{r4, r5, r6, pc}

1a000aaa <Chip_ADC_SetResolution>:

/* Set the ADC accuracy bits */
void Chip_ADC_SetResolution(LPC_ADC_T *pADC, ADC_CLOCK_SETUP_T *ADCSetup, ADC_RESOLUTION_T resolution)
{
1a000aaa:	b508      	push	{r3, lr}
	ADCSetup->bitsAccuracy = resolution;
1a000aac:	710a      	strb	r2, [r1, #4]
	Chip_ADC_SetSampleRate(pADC, ADCSetup, ADCSetup->adcRate);
1a000aae:	680a      	ldr	r2, [r1, #0]
1a000ab0:	f7ff ffe2 	bl	1a000a78 <Chip_ADC_SetSampleRate>
}
1a000ab4:	bd08      	pop	{r3, pc}

1a000ab6 <Chip_ADC_EnableChannel>:

/* Enable or disable the ADC channel on ADC peripheral */
void Chip_ADC_EnableChannel(LPC_ADC_T *pADC, ADC_CHANNEL_T channel, FunctionalState NewState)
{
	if (NewState == ENABLE) {
1a000ab6:	2a01      	cmp	r2, #1
1a000ab8:	d00b      	beq.n	1a000ad2 <Chip_ADC_EnableChannel+0x1c>
		pADC->CR |= ADC_CR_CH_SEL(channel);
	}
	else {
		pADC->CR &= ~ADC_CR_START_MASK;
1a000aba:	6803      	ldr	r3, [r0, #0]
1a000abc:	f023 63e0 	bic.w	r3, r3, #117440512	; 0x7000000
1a000ac0:	6003      	str	r3, [r0, #0]
		pADC->CR &= ~ADC_CR_CH_SEL(channel);
1a000ac2:	6803      	ldr	r3, [r0, #0]
1a000ac4:	2201      	movs	r2, #1
1a000ac6:	fa02 f101 	lsl.w	r1, r2, r1
1a000aca:	ea23 0101 	bic.w	r1, r3, r1
1a000ace:	6001      	str	r1, [r0, #0]
	}
}
1a000ad0:	4770      	bx	lr
		pADC->CR |= ADC_CR_CH_SEL(channel);
1a000ad2:	6803      	ldr	r3, [r0, #0]
1a000ad4:	fa02 f101 	lsl.w	r1, r2, r1
1a000ad8:	4319      	orrs	r1, r3
1a000ada:	6001      	str	r1, [r0, #0]
1a000adc:	4770      	bx	lr

1a000ade <Chip_ADC_SetBurstCmd>:

/* Enable burst mode */
void Chip_ADC_SetBurstCmd(LPC_ADC_T *pADC, FunctionalState NewState)
{
1a000ade:	b538      	push	{r3, r4, r5, lr}
1a000ae0:	4604      	mov	r4, r0
1a000ae2:	460d      	mov	r5, r1
	setStartMode(pADC, ADC_NO_START);
1a000ae4:	2100      	movs	r1, #0
1a000ae6:	f7ff ff4a 	bl	1a00097e <setStartMode>
	
    if (NewState == DISABLE) {
1a000aea:	b125      	cbz	r5, 1a000af6 <Chip_ADC_SetBurstCmd+0x18>
		pADC->CR &= ~ADC_CR_BURST;
	}
	else {
		pADC->CR |= ADC_CR_BURST;
1a000aec:	6823      	ldr	r3, [r4, #0]
1a000aee:	f443 3380 	orr.w	r3, r3, #65536	; 0x10000
1a000af2:	6023      	str	r3, [r4, #0]
	}
}
1a000af4:	bd38      	pop	{r3, r4, r5, pc}
		pADC->CR &= ~ADC_CR_BURST;
1a000af6:	6823      	ldr	r3, [r4, #0]
1a000af8:	f423 3380 	bic.w	r3, r3, #65536	; 0x10000
1a000afc:	6023      	str	r3, [r4, #0]
1a000afe:	e7f9      	b.n	1a000af4 <Chip_ADC_SetBurstCmd+0x16>

1a000b00 <pll_calc_divs>:
		return -val;
	return val;
}

static void pll_calc_divs(uint32_t freq, PLL_PARAM_T *ppll)
{
1a000b00:	b4f0      	push	{r4, r5, r6, r7}

	uint32_t prev = freq;
	int n, m, p;

	/* When direct mode is set FBSEL should be a don't care */
	if (ppll->ctrl & (1 << 7)) {
1a000b02:	680b      	ldr	r3, [r1, #0]
1a000b04:	f013 0f80 	tst.w	r3, #128	; 0x80
1a000b08:	d002      	beq.n	1a000b10 <pll_calc_divs+0x10>
		ppll->ctrl &= ~(1 << 6);
1a000b0a:	f023 0340 	bic.w	r3, r3, #64	; 0x40
1a000b0e:	600b      	str	r3, [r1, #0]
	}
	for (n = 1; n <= 4; n++) {
		for (p = 0; p < 4; p ++) {
1a000b10:	4607      	mov	r7, r0
1a000b12:	2501      	movs	r5, #1
1a000b14:	e03b      	b.n	1a000b8e <pll_calc_divs+0x8e>
			for (m = 1; m <= 256; m++) {
				uint32_t fcco, fout;
				if (ppll->ctrl & (1 << 6)) {
					fcco = ((m << (p + 1)) * ppll->fin) / n;
				} else {
					fcco = (m * ppll->fin) / n;
1a000b16:	694b      	ldr	r3, [r1, #20]
1a000b18:	fb03 f302 	mul.w	r3, r3, r2
1a000b1c:	fbb3 f3f5 	udiv	r3, r3, r5
1a000b20:	e014      	b.n	1a000b4c <pll_calc_divs+0x4c>
				}
				if (fcco < PLL_MIN_CCO_FREQ) continue;
				if (fcco > PLL_MAX_CCO_FREQ) break;
				if (ppll->ctrl & (1 << 7)) {
					fout = fcco;
1a000b22:	461c      	mov	r4, r3
1a000b24:	e020      	b.n	1a000b68 <pll_calc_divs+0x68>
		return -val;
1a000b26:	f1cc 0c00 	rsb	ip, ip, #0
1a000b2a:	e020      	b.n	1a000b6e <pll_calc_divs+0x6e>
			for (m = 1; m <= 256; m++) {
1a000b2c:	3201      	adds	r2, #1
1a000b2e:	f5b2 7f80 	cmp.w	r2, #256	; 0x100
1a000b32:	dc26      	bgt.n	1a000b82 <pll_calc_divs+0x82>
				if (ppll->ctrl & (1 << 6)) {
1a000b34:	680c      	ldr	r4, [r1, #0]
1a000b36:	f014 0f40 	tst.w	r4, #64	; 0x40
1a000b3a:	d0ec      	beq.n	1a000b16 <pll_calc_divs+0x16>
					fcco = ((m << (p + 1)) * ppll->fin) / n;
1a000b3c:	1c73      	adds	r3, r6, #1
1a000b3e:	fa02 fc03 	lsl.w	ip, r2, r3
1a000b42:	694b      	ldr	r3, [r1, #20]
1a000b44:	fb03 f30c 	mul.w	r3, r3, ip
1a000b48:	fbb3 f3f5 	udiv	r3, r3, r5
				if (fcco < PLL_MIN_CCO_FREQ) continue;
1a000b4c:	f8df c04c 	ldr.w	ip, [pc, #76]	; 1a000b9c <pll_calc_divs+0x9c>
1a000b50:	4563      	cmp	r3, ip
1a000b52:	d9eb      	bls.n	1a000b2c <pll_calc_divs+0x2c>
				if (fcco > PLL_MAX_CCO_FREQ) break;
1a000b54:	f8df c048 	ldr.w	ip, [pc, #72]	; 1a000ba0 <pll_calc_divs+0xa0>
1a000b58:	4563      	cmp	r3, ip
1a000b5a:	d812      	bhi.n	1a000b82 <pll_calc_divs+0x82>
				if (ppll->ctrl & (1 << 7)) {
1a000b5c:	f014 0f80 	tst.w	r4, #128	; 0x80
1a000b60:	d1df      	bne.n	1a000b22 <pll_calc_divs+0x22>
				} else {
					fout = fcco >> (p + 1);
1a000b62:	1c74      	adds	r4, r6, #1
1a000b64:	fa23 f404 	lsr.w	r4, r3, r4
	if (val < 0)
1a000b68:	ebb0 0c04 	subs.w	ip, r0, r4
1a000b6c:	d4db      	bmi.n	1a000b26 <pll_calc_divs+0x26>
				}

				if (ABS(freq - fout) < prev) {
1a000b6e:	4567      	cmp	r7, ip
1a000b70:	d9dc      	bls.n	1a000b2c <pll_calc_divs+0x2c>
					ppll->nsel = n;
1a000b72:	608d      	str	r5, [r1, #8]
					ppll->psel = p + 1;
1a000b74:	1c77      	adds	r7, r6, #1
1a000b76:	60cf      	str	r7, [r1, #12]
					ppll->msel = m;
1a000b78:	610a      	str	r2, [r1, #16]
					ppll->fout = fout;
1a000b7a:	618c      	str	r4, [r1, #24]
					ppll->fcco = fcco;
1a000b7c:	61cb      	str	r3, [r1, #28]
					prev = ABS(freq - fout);
1a000b7e:	4667      	mov	r7, ip
1a000b80:	e7d4      	b.n	1a000b2c <pll_calc_divs+0x2c>
		for (p = 0; p < 4; p ++) {
1a000b82:	3601      	adds	r6, #1
1a000b84:	2e03      	cmp	r6, #3
1a000b86:	dc01      	bgt.n	1a000b8c <pll_calc_divs+0x8c>
			for (m = 1; m <= 256; m++) {
1a000b88:	2201      	movs	r2, #1
1a000b8a:	e7d0      	b.n	1a000b2e <pll_calc_divs+0x2e>
	for (n = 1; n <= 4; n++) {
1a000b8c:	3501      	adds	r5, #1
1a000b8e:	2d04      	cmp	r5, #4
1a000b90:	dc01      	bgt.n	1a000b96 <pll_calc_divs+0x96>
		for (p = 0; p < 4; p ++) {
1a000b92:	2600      	movs	r6, #0
1a000b94:	e7f6      	b.n	1a000b84 <pll_calc_divs+0x84>
				}
			}
		}
	}
}
1a000b96:	bcf0      	pop	{r4, r5, r6, r7}
1a000b98:	4770      	bx	lr
1a000b9a:	bf00      	nop
1a000b9c:	094c5eff 	.word	0x094c5eff
1a000ba0:	1312d000 	.word	0x1312d000

1a000ba4 <pll_get_frac>:

static void pll_get_frac(uint32_t freq, PLL_PARAM_T *ppll)
{
1a000ba4:	b5f0      	push	{r4, r5, r6, r7, lr}
1a000ba6:	b099      	sub	sp, #100	; 0x64
1a000ba8:	4605      	mov	r5, r0
1a000baa:	460c      	mov	r4, r1
	int diff[3];
	PLL_PARAM_T pll[3] = {{0},{0},{0}};
1a000bac:	225c      	movs	r2, #92	; 0x5c
1a000bae:	2100      	movs	r1, #0
1a000bb0:	a801      	add	r0, sp, #4
1a000bb2:	f002 f941 	bl	1a002e38 <memset>

	/* Try direct mode */
	pll[0].ctrl |= (1 << 7);
1a000bb6:	2380      	movs	r3, #128	; 0x80
1a000bb8:	9300      	str	r3, [sp, #0]
	pll[0].fin = ppll->fin;
1a000bba:	6963      	ldr	r3, [r4, #20]
1a000bbc:	9305      	str	r3, [sp, #20]
	pll[0].srcin = ppll->srcin;
1a000bbe:	7923      	ldrb	r3, [r4, #4]
1a000bc0:	f88d 3004 	strb.w	r3, [sp, #4]
	pll_calc_divs(freq, &pll[0]);
1a000bc4:	4669      	mov	r1, sp
1a000bc6:	4628      	mov	r0, r5
1a000bc8:	f7ff ff9a 	bl	1a000b00 <pll_calc_divs>
	if (pll[0].fout == freq) {
1a000bcc:	9b06      	ldr	r3, [sp, #24]
1a000bce:	42ab      	cmp	r3, r5
1a000bd0:	d027      	beq.n	1a000c22 <pll_get_frac+0x7e>
	if (val < 0)
1a000bd2:	1aeb      	subs	r3, r5, r3
1a000bd4:	d42e      	bmi.n	1a000c34 <pll_get_frac+0x90>
		*ppll = pll[0];
		return ;
	}
	diff[0] = ABS(freq - pll[0].fout);
1a000bd6:	461e      	mov	r6, r3

	/* Try non-Integer mode */
	pll[2].ctrl &= ~(1 << 6);			// need to set FBSEL to 0
1a000bd8:	9b10      	ldr	r3, [sp, #64]	; 0x40
1a000bda:	f023 0340 	bic.w	r3, r3, #64	; 0x40
1a000bde:	9310      	str	r3, [sp, #64]	; 0x40
	pll[2].fin = ppll->fin;
1a000be0:	6963      	ldr	r3, [r4, #20]
1a000be2:	9315      	str	r3, [sp, #84]	; 0x54
	pll[2].srcin = ppll->srcin;
1a000be4:	7923      	ldrb	r3, [r4, #4]
1a000be6:	f88d 3044 	strb.w	r3, [sp, #68]	; 0x44
	pll_calc_divs(freq, &pll[2]);
1a000bea:	a910      	add	r1, sp, #64	; 0x40
1a000bec:	4628      	mov	r0, r5
1a000bee:	f7ff ff87 	bl	1a000b00 <pll_calc_divs>
	if (pll[2].fout == freq) {
1a000bf2:	9b16      	ldr	r3, [sp, #88]	; 0x58
1a000bf4:	42ab      	cmp	r3, r5
1a000bf6:	d01f      	beq.n	1a000c38 <pll_get_frac+0x94>
	if (val < 0)
1a000bf8:	1aeb      	subs	r3, r5, r3
1a000bfa:	d425      	bmi.n	1a000c48 <pll_get_frac+0xa4>
		*ppll = pll[2];
		return ;
	}
	diff[2] = ABS(freq - pll[2].fout);
1a000bfc:	461f      	mov	r7, r3
	
	if (freq <= 110000000) {
1a000bfe:	4b2b      	ldr	r3, [pc, #172]	; (1a000cac <pll_get_frac+0x108>)
1a000c00:	429d      	cmp	r5, r3
1a000c02:	d923      	bls.n	1a000c4c <pll_get_frac+0xa8>
		if (pll[1].fout == freq) {
			*ppll = pll[1];
			return ;
		}
	}
	diff[1] = ABS(freq - pll[1].fout);
1a000c04:	9b0e      	ldr	r3, [sp, #56]	; 0x38
	if (val < 0)
1a000c06:	1aed      	subs	r5, r5, r3
1a000c08:	d433      	bmi.n	1a000c72 <pll_get_frac+0xce>

	/* Find the min of 3 and return */
	if (diff[0] <= diff[1]) {
1a000c0a:	42ae      	cmp	r6, r5
1a000c0c:	dc3b      	bgt.n	1a000c86 <pll_get_frac+0xe2>
		if (diff[0] <= diff[2]) {
1a000c0e:	42be      	cmp	r6, r7
1a000c10:	dc31      	bgt.n	1a000c76 <pll_get_frac+0xd2>
			*ppll = pll[0];
1a000c12:	466d      	mov	r5, sp
1a000c14:	cd0f      	ldmia	r5!, {r0, r1, r2, r3}
1a000c16:	c40f      	stmia	r4!, {r0, r1, r2, r3}
1a000c18:	e895 000f 	ldmia.w	r5, {r0, r1, r2, r3}
1a000c1c:	e884 000f 	stmia.w	r4, {r0, r1, r2, r3}
1a000c20:	e006      	b.n	1a000c30 <pll_get_frac+0x8c>
		*ppll = pll[0];
1a000c22:	466d      	mov	r5, sp
1a000c24:	cd0f      	ldmia	r5!, {r0, r1, r2, r3}
1a000c26:	c40f      	stmia	r4!, {r0, r1, r2, r3}
1a000c28:	e895 000f 	ldmia.w	r5, {r0, r1, r2, r3}
1a000c2c:	e884 000f 	stmia.w	r4, {r0, r1, r2, r3}
			*ppll = pll[1];
		} else {
			*ppll = pll[2];
		}
	}
}
1a000c30:	b019      	add	sp, #100	; 0x64
1a000c32:	bdf0      	pop	{r4, r5, r6, r7, pc}
		return -val;
1a000c34:	425b      	negs	r3, r3
1a000c36:	e7ce      	b.n	1a000bd6 <pll_get_frac+0x32>
		*ppll = pll[2];
1a000c38:	ad10      	add	r5, sp, #64	; 0x40
1a000c3a:	cd0f      	ldmia	r5!, {r0, r1, r2, r3}
1a000c3c:	c40f      	stmia	r4!, {r0, r1, r2, r3}
1a000c3e:	e895 000f 	ldmia.w	r5, {r0, r1, r2, r3}
1a000c42:	e884 000f 	stmia.w	r4, {r0, r1, r2, r3}
		return ;
1a000c46:	e7f3      	b.n	1a000c30 <pll_get_frac+0x8c>
		return -val;
1a000c48:	425b      	negs	r3, r3
1a000c4a:	e7d7      	b.n	1a000bfc <pll_get_frac+0x58>
		pll[1].ctrl = (1 << 6);
1a000c4c:	2340      	movs	r3, #64	; 0x40
1a000c4e:	9308      	str	r3, [sp, #32]
		pll[1].fin = ppll->fin;
1a000c50:	6963      	ldr	r3, [r4, #20]
1a000c52:	930d      	str	r3, [sp, #52]	; 0x34
		pll_calc_divs(freq, &pll[1]);
1a000c54:	a908      	add	r1, sp, #32
1a000c56:	4628      	mov	r0, r5
1a000c58:	f7ff ff52 	bl	1a000b00 <pll_calc_divs>
		if (pll[1].fout == freq) {
1a000c5c:	9b0e      	ldr	r3, [sp, #56]	; 0x38
1a000c5e:	42ab      	cmp	r3, r5
1a000c60:	d1d0      	bne.n	1a000c04 <pll_get_frac+0x60>
			*ppll = pll[1];
1a000c62:	ad08      	add	r5, sp, #32
1a000c64:	cd0f      	ldmia	r5!, {r0, r1, r2, r3}
1a000c66:	c40f      	stmia	r4!, {r0, r1, r2, r3}
1a000c68:	e895 000f 	ldmia.w	r5, {r0, r1, r2, r3}
1a000c6c:	e884 000f 	stmia.w	r4, {r0, r1, r2, r3}
			return ;
1a000c70:	e7de      	b.n	1a000c30 <pll_get_frac+0x8c>
		return -val;
1a000c72:	426d      	negs	r5, r5
1a000c74:	e7c9      	b.n	1a000c0a <pll_get_frac+0x66>
			*ppll = pll[2];
1a000c76:	ad10      	add	r5, sp, #64	; 0x40
1a000c78:	cd0f      	ldmia	r5!, {r0, r1, r2, r3}
1a000c7a:	c40f      	stmia	r4!, {r0, r1, r2, r3}
1a000c7c:	e895 000f 	ldmia.w	r5, {r0, r1, r2, r3}
1a000c80:	e884 000f 	stmia.w	r4, {r0, r1, r2, r3}
1a000c84:	e7d4      	b.n	1a000c30 <pll_get_frac+0x8c>
		if (diff[1] <= diff[2]) {
1a000c86:	42af      	cmp	r7, r5
1a000c88:	db07      	blt.n	1a000c9a <pll_get_frac+0xf6>
			*ppll = pll[1];
1a000c8a:	ad08      	add	r5, sp, #32
1a000c8c:	cd0f      	ldmia	r5!, {r0, r1, r2, r3}
1a000c8e:	c40f      	stmia	r4!, {r0, r1, r2, r3}
1a000c90:	e895 000f 	ldmia.w	r5, {r0, r1, r2, r3}
1a000c94:	e884 000f 	stmia.w	r4, {r0, r1, r2, r3}
1a000c98:	e7ca      	b.n	1a000c30 <pll_get_frac+0x8c>
			*ppll = pll[2];
1a000c9a:	ad10      	add	r5, sp, #64	; 0x40
1a000c9c:	cd0f      	ldmia	r5!, {r0, r1, r2, r3}
1a000c9e:	c40f      	stmia	r4!, {r0, r1, r2, r3}
1a000ca0:	e895 000f 	ldmia.w	r5, {r0, r1, r2, r3}
1a000ca4:	e884 000f 	stmia.w	r4, {r0, r1, r2, r3}
1a000ca8:	e7c2      	b.n	1a000c30 <pll_get_frac+0x8c>
1a000caa:	bf00      	nop
1a000cac:	068e7780 	.word	0x068e7780

1a000cb0 <Chip_Clock_FindBaseClock>:
	return Chip_Clock_GetClockInputHz(input) / (div + 1);
}

/* Finds the base clock for the peripheral clock */
static CHIP_CGU_BASE_CLK_T Chip_Clock_FindBaseClock(CHIP_CCU_CLK_T clk)
{
1a000cb0:	b430      	push	{r4, r5}
1a000cb2:	4605      	mov	r5, r0
	CHIP_CGU_BASE_CLK_T baseclk = CLK_BASE_NONE;
	int i = 0;
1a000cb4:	2300      	movs	r3, #0
	CHIP_CGU_BASE_CLK_T baseclk = CLK_BASE_NONE;
1a000cb6:	201c      	movs	r0, #28

	while ((baseclk == CLK_BASE_NONE) && (periph_to_base[i].clkbase != baseclk)) {
1a000cb8:	e000      	b.n	1a000cbc <Chip_Clock_FindBaseClock+0xc>
		if ((clk >= periph_to_base[i].clkstart) && (clk <= periph_to_base[i].clkend)) {
			baseclk = periph_to_base[i].clkbase;
		}
		else {
			i++;
1a000cba:	3301      	adds	r3, #1
	while ((baseclk == CLK_BASE_NONE) && (periph_to_base[i].clkbase != baseclk)) {
1a000cbc:	281c      	cmp	r0, #28
1a000cbe:	d118      	bne.n	1a000cf2 <Chip_Clock_FindBaseClock+0x42>
1a000cc0:	eb03 0243 	add.w	r2, r3, r3, lsl #1
1a000cc4:	0051      	lsls	r1, r2, #1
1a000cc6:	4a0c      	ldr	r2, [pc, #48]	; (1a000cf8 <Chip_Clock_FindBaseClock+0x48>)
1a000cc8:	440a      	add	r2, r1
1a000cca:	7914      	ldrb	r4, [r2, #4]
1a000ccc:	4284      	cmp	r4, r0
1a000cce:	d010      	beq.n	1a000cf2 <Chip_Clock_FindBaseClock+0x42>
		if ((clk >= periph_to_base[i].clkstart) && (clk <= periph_to_base[i].clkend)) {
1a000cd0:	eb03 0143 	add.w	r1, r3, r3, lsl #1
1a000cd4:	004a      	lsls	r2, r1, #1
1a000cd6:	4908      	ldr	r1, [pc, #32]	; (1a000cf8 <Chip_Clock_FindBaseClock+0x48>)
1a000cd8:	5a8a      	ldrh	r2, [r1, r2]
1a000cda:	42aa      	cmp	r2, r5
1a000cdc:	d8ed      	bhi.n	1a000cba <Chip_Clock_FindBaseClock+0xa>
1a000cde:	eb03 0243 	add.w	r2, r3, r3, lsl #1
1a000ce2:	0051      	lsls	r1, r2, #1
1a000ce4:	4a04      	ldr	r2, [pc, #16]	; (1a000cf8 <Chip_Clock_FindBaseClock+0x48>)
1a000ce6:	440a      	add	r2, r1
1a000ce8:	8852      	ldrh	r2, [r2, #2]
1a000cea:	42aa      	cmp	r2, r5
1a000cec:	d3e5      	bcc.n	1a000cba <Chip_Clock_FindBaseClock+0xa>
			baseclk = periph_to_base[i].clkbase;
1a000cee:	4620      	mov	r0, r4
1a000cf0:	e7e4      	b.n	1a000cbc <Chip_Clock_FindBaseClock+0xc>
		}
	}

	return baseclk;
}
1a000cf2:	bc30      	pop	{r4, r5}
1a000cf4:	4770      	bx	lr
1a000cf6:	bf00      	nop
1a000cf8:	1a002f98 	.word	0x1a002f98

1a000cfc <Chip_Clock_EnableCrystal>:
 * Public functions
 ****************************************************************************/

/* Enables the crystal oscillator */
void Chip_Clock_EnableCrystal(void)
{
1a000cfc:	b082      	sub	sp, #8
	volatile uint32_t delay = 1000;
1a000cfe:	f44f 737a 	mov.w	r3, #1000	; 0x3e8
1a000d02:	9301      	str	r3, [sp, #4]

	uint32_t OldCrystalConfig = LPC_CGU->XTAL_OSC_CTRL;
1a000d04:	4a0d      	ldr	r2, [pc, #52]	; (1a000d3c <Chip_Clock_EnableCrystal+0x40>)
1a000d06:	6993      	ldr	r3, [r2, #24]

	/* Clear bypass mode */
	OldCrystalConfig &= (~2);
1a000d08:	f023 0102 	bic.w	r1, r3, #2
	if (OldCrystalConfig != LPC_CGU->XTAL_OSC_CTRL) {
1a000d0c:	6992      	ldr	r2, [r2, #24]
1a000d0e:	428a      	cmp	r2, r1
1a000d10:	d001      	beq.n	1a000d16 <Chip_Clock_EnableCrystal+0x1a>
		LPC_CGU->XTAL_OSC_CTRL = OldCrystalConfig;
1a000d12:	4a0a      	ldr	r2, [pc, #40]	; (1a000d3c <Chip_Clock_EnableCrystal+0x40>)
1a000d14:	6191      	str	r1, [r2, #24]
	}

	/* Enable crystal oscillator */
	OldCrystalConfig &= (~1);
1a000d16:	f023 0303 	bic.w	r3, r3, #3
	if (OscRateIn >= 20000000) {
1a000d1a:	4a09      	ldr	r2, [pc, #36]	; (1a000d40 <Chip_Clock_EnableCrystal+0x44>)
1a000d1c:	6811      	ldr	r1, [r2, #0]
1a000d1e:	4a09      	ldr	r2, [pc, #36]	; (1a000d44 <Chip_Clock_EnableCrystal+0x48>)
1a000d20:	4291      	cmp	r1, r2
1a000d22:	d901      	bls.n	1a000d28 <Chip_Clock_EnableCrystal+0x2c>
		OldCrystalConfig |= 4;	/* Set high frequency mode */
1a000d24:	f043 0304 	orr.w	r3, r3, #4

	}
	LPC_CGU->XTAL_OSC_CTRL = OldCrystalConfig;
1a000d28:	4a04      	ldr	r2, [pc, #16]	; (1a000d3c <Chip_Clock_EnableCrystal+0x40>)
1a000d2a:	6193      	str	r3, [r2, #24]

	/* Delay for 250uSec */
	while(delay--) {}
1a000d2c:	9b01      	ldr	r3, [sp, #4]
1a000d2e:	1e5a      	subs	r2, r3, #1
1a000d30:	9201      	str	r2, [sp, #4]
1a000d32:	2b00      	cmp	r3, #0
1a000d34:	d1fa      	bne.n	1a000d2c <Chip_Clock_EnableCrystal+0x30>
}
1a000d36:	b002      	add	sp, #8
1a000d38:	4770      	bx	lr
1a000d3a:	bf00      	nop
1a000d3c:	40050000 	.word	0x40050000
1a000d40:	1a002f00 	.word	0x1a002f00
1a000d44:	01312cff 	.word	0x01312cff

1a000d48 <Chip_Clock_GetDividerSource>:
}

/* Gets a CGU clock divider source */
CHIP_CGU_CLKIN_T Chip_Clock_GetDividerSource(CHIP_CGU_IDIV_T Divider)
{
	uint32_t reg = LPC_CGU->IDIV_CTRL[Divider];
1a000d48:	3012      	adds	r0, #18
1a000d4a:	4b05      	ldr	r3, [pc, #20]	; (1a000d60 <Chip_Clock_GetDividerSource+0x18>)
1a000d4c:	f853 0020 	ldr.w	r0, [r3, r0, lsl #2]

	if (reg & 1) {	/* divider is powered down */
1a000d50:	f010 0f01 	tst.w	r0, #1
1a000d54:	d102      	bne.n	1a000d5c <Chip_Clock_GetDividerSource+0x14>
		return CLKINPUT_PD;
	}

	return (CHIP_CGU_CLKIN_T) ((reg >> 24) & 0x1F);
1a000d56:	f3c0 6004 	ubfx	r0, r0, #24, #5
1a000d5a:	4770      	bx	lr
		return CLKINPUT_PD;
1a000d5c:	2011      	movs	r0, #17
}
1a000d5e:	4770      	bx	lr
1a000d60:	40050000 	.word	0x40050000

1a000d64 <Chip_Clock_GetDividerDivisor>:

/* Gets a CGU clock divider divisor */
uint32_t Chip_Clock_GetDividerDivisor(CHIP_CGU_IDIV_T Divider)
{
	return (CHIP_CGU_CLKIN_T) ((LPC_CGU->IDIV_CTRL[Divider] >> 2) & CHIP_CGU_IDIV_MASK(Divider));
1a000d64:	f100 0212 	add.w	r2, r0, #18
1a000d68:	4b03      	ldr	r3, [pc, #12]	; (1a000d78 <Chip_Clock_GetDividerDivisor+0x14>)
1a000d6a:	f853 2022 	ldr.w	r2, [r3, r2, lsl #2]
1a000d6e:	4b03      	ldr	r3, [pc, #12]	; (1a000d7c <Chip_Clock_GetDividerDivisor+0x18>)
1a000d70:	5c18      	ldrb	r0, [r3, r0]
}
1a000d72:	ea00 0092 	and.w	r0, r0, r2, lsr #2
1a000d76:	4770      	bx	lr
1a000d78:	40050000 	.word	0x40050000
1a000d7c:	1a002f90 	.word	0x1a002f90

1a000d80 <Chip_Clock_GetClockInputHz>:

/* Returns the frequency of the specified input clock source */
uint32_t Chip_Clock_GetClockInputHz(CHIP_CGU_CLKIN_T input)
{
1a000d80:	b508      	push	{r3, lr}
	uint32_t rate = 0;

	switch (input) {
1a000d82:	2810      	cmp	r0, #16
1a000d84:	d80a      	bhi.n	1a000d9c <Chip_Clock_GetClockInputHz+0x1c>
1a000d86:	e8df f000 	tbb	[pc, r0]
1a000d8a:	0b42      	.short	0x0b42
1a000d8c:	091f160d 	.word	0x091f160d
1a000d90:	2b282522 	.word	0x2b282522
1a000d94:	322e0909 	.word	0x322e0909
1a000d98:	3a36      	.short	0x3a36
1a000d9a:	3e          	.byte	0x3e
1a000d9b:	00          	.byte	0x00
	uint32_t rate = 0;
1a000d9c:	2000      	movs	r0, #0
1a000d9e:	e038      	b.n	1a000e12 <Chip_Clock_GetClockInputHz+0x92>
	case CLKIN_32K:
		rate = CRYSTAL_32K_FREQ_IN;
		break;

	case CLKIN_IRC:
		rate = CGU_IRC_FREQ;
1a000da0:	481e      	ldr	r0, [pc, #120]	; (1a000e1c <Chip_Clock_GetClockInputHz+0x9c>)
		break;
1a000da2:	e036      	b.n	1a000e12 <Chip_Clock_GetClockInputHz+0x92>

	case CLKIN_ENET_RX:
		if ((LPC_CREG->CREG6 & 0x07) != 0x4) {
1a000da4:	4b1e      	ldr	r3, [pc, #120]	; (1a000e20 <Chip_Clock_GetClockInputHz+0xa0>)
1a000da6:	f8d3 312c 	ldr.w	r3, [r3, #300]	; 0x12c
1a000daa:	f003 0307 	and.w	r3, r3, #7
1a000dae:	2b04      	cmp	r3, #4
1a000db0:	d130      	bne.n	1a000e14 <Chip_Clock_GetClockInputHz+0x94>
	uint32_t rate = 0;
1a000db2:	2000      	movs	r0, #0
1a000db4:	e02d      	b.n	1a000e12 <Chip_Clock_GetClockInputHz+0x92>
			rate = 25000000;
		}
		break;

	case CLKIN_ENET_TX:
		if ((LPC_CREG->CREG6 & 0x07) != 0x4) {
1a000db6:	4b1a      	ldr	r3, [pc, #104]	; (1a000e20 <Chip_Clock_GetClockInputHz+0xa0>)
1a000db8:	f8d3 312c 	ldr.w	r3, [r3, #300]	; 0x12c
1a000dbc:	f003 0307 	and.w	r3, r3, #7
1a000dc0:	2b04      	cmp	r3, #4
1a000dc2:	d029      	beq.n	1a000e18 <Chip_Clock_GetClockInputHz+0x98>
			rate = 25000000; /* MII uses 25 MHz */
1a000dc4:	4817      	ldr	r0, [pc, #92]	; (1a000e24 <Chip_Clock_GetClockInputHz+0xa4>)
1a000dc6:	e024      	b.n	1a000e12 <Chip_Clock_GetClockInputHz+0x92>
			rate = 50000000; /* RMII uses 50 MHz */
		}
		break;

	case CLKIN_CLKIN:
		rate = ExtRateIn;
1a000dc8:	4b17      	ldr	r3, [pc, #92]	; (1a000e28 <Chip_Clock_GetClockInputHz+0xa8>)
1a000dca:	6818      	ldr	r0, [r3, #0]
		break;
1a000dcc:	e021      	b.n	1a000e12 <Chip_Clock_GetClockInputHz+0x92>

	case CLKIN_CRYSTAL:
		rate = OscRateIn;
1a000dce:	4b17      	ldr	r3, [pc, #92]	; (1a000e2c <Chip_Clock_GetClockInputHz+0xac>)
1a000dd0:	6818      	ldr	r0, [r3, #0]
		break;
1a000dd2:	e01e      	b.n	1a000e12 <Chip_Clock_GetClockInputHz+0x92>

	case CLKIN_USBPLL:
		rate = audio_usb_pll_freq[CGU_USB_PLL];
1a000dd4:	4b16      	ldr	r3, [pc, #88]	; (1a000e30 <Chip_Clock_GetClockInputHz+0xb0>)
1a000dd6:	6818      	ldr	r0, [r3, #0]
		break;
1a000dd8:	e01b      	b.n	1a000e12 <Chip_Clock_GetClockInputHz+0x92>

	case CLKIN_AUDIOPLL:
		rate = audio_usb_pll_freq[CGU_AUDIO_PLL];
1a000dda:	4b15      	ldr	r3, [pc, #84]	; (1a000e30 <Chip_Clock_GetClockInputHz+0xb0>)
1a000ddc:	6858      	ldr	r0, [r3, #4]
		break;
1a000dde:	e018      	b.n	1a000e12 <Chip_Clock_GetClockInputHz+0x92>

	case CLKIN_MAINPLL:
		rate = Chip_Clock_GetMainPLLHz();
1a000de0:	f000 f86a 	bl	1a000eb8 <Chip_Clock_GetMainPLLHz>
		break;
1a000de4:	e015      	b.n	1a000e12 <Chip_Clock_GetClockInputHz+0x92>

	case CLKIN_IDIVA:
		rate = Chip_Clock_GetDivRate(input, CLK_IDIV_A);
1a000de6:	2100      	movs	r1, #0
1a000de8:	f000 f89c 	bl	1a000f24 <Chip_Clock_GetDivRate>
		break;
1a000dec:	e011      	b.n	1a000e12 <Chip_Clock_GetClockInputHz+0x92>

	case CLKIN_IDIVB:
		rate = Chip_Clock_GetDivRate(input, CLK_IDIV_B);
1a000dee:	2101      	movs	r1, #1
1a000df0:	f000 f898 	bl	1a000f24 <Chip_Clock_GetDivRate>
		break;
1a000df4:	e00d      	b.n	1a000e12 <Chip_Clock_GetClockInputHz+0x92>

	case CLKIN_IDIVC:
		rate = Chip_Clock_GetDivRate(input, CLK_IDIV_C);
1a000df6:	2102      	movs	r1, #2
1a000df8:	f000 f894 	bl	1a000f24 <Chip_Clock_GetDivRate>
		break;
1a000dfc:	e009      	b.n	1a000e12 <Chip_Clock_GetClockInputHz+0x92>

	case CLKIN_IDIVD:
		rate = Chip_Clock_GetDivRate(input, CLK_IDIV_D);
1a000dfe:	2103      	movs	r1, #3
1a000e00:	f000 f890 	bl	1a000f24 <Chip_Clock_GetDivRate>
		break;
1a000e04:	e005      	b.n	1a000e12 <Chip_Clock_GetClockInputHz+0x92>

	case CLKIN_IDIVE:
		rate = Chip_Clock_GetDivRate(input, CLK_IDIV_E);
1a000e06:	2104      	movs	r1, #4
1a000e08:	f000 f88c 	bl	1a000f24 <Chip_Clock_GetDivRate>
		break;
1a000e0c:	e001      	b.n	1a000e12 <Chip_Clock_GetClockInputHz+0x92>
		rate = CRYSTAL_32K_FREQ_IN;
1a000e0e:	f44f 4000 	mov.w	r0, #32768	; 0x8000
	default:
		break;
	}

	return rate;
}
1a000e12:	bd08      	pop	{r3, pc}
			rate = 25000000;
1a000e14:	4803      	ldr	r0, [pc, #12]	; (1a000e24 <Chip_Clock_GetClockInputHz+0xa4>)
1a000e16:	e7fc      	b.n	1a000e12 <Chip_Clock_GetClockInputHz+0x92>
			rate = 50000000; /* RMII uses 50 MHz */
1a000e18:	4806      	ldr	r0, [pc, #24]	; (1a000e34 <Chip_Clock_GetClockInputHz+0xb4>)
	return rate;
1a000e1a:	e7fa      	b.n	1a000e12 <Chip_Clock_GetClockInputHz+0x92>
1a000e1c:	00b71b00 	.word	0x00b71b00
1a000e20:	40043000 	.word	0x40043000
1a000e24:	017d7840 	.word	0x017d7840
1a000e28:	1a002ed4 	.word	0x1a002ed4
1a000e2c:	1a002f00 	.word	0x1a002f00
1a000e30:	1000124c 	.word	0x1000124c
1a000e34:	02faf080 	.word	0x02faf080

1a000e38 <Chip_Clock_CalcMainPLLValue>:
{
1a000e38:	b538      	push	{r3, r4, r5, lr}
1a000e3a:	4605      	mov	r5, r0
1a000e3c:	460c      	mov	r4, r1
	ppll->fin = Chip_Clock_GetClockInputHz(ppll->srcin);
1a000e3e:	7908      	ldrb	r0, [r1, #4]
1a000e40:	f7ff ff9e 	bl	1a000d80 <Chip_Clock_GetClockInputHz>
1a000e44:	6160      	str	r0, [r4, #20]
	if (freq > MAX_CLOCK_FREQ || freq < (PLL_MIN_CCO_FREQ / 16) || !ppll->fin) {
1a000e46:	4b19      	ldr	r3, [pc, #100]	; (1a000eac <Chip_Clock_CalcMainPLLValue+0x74>)
1a000e48:	442b      	add	r3, r5
1a000e4a:	4a19      	ldr	r2, [pc, #100]	; (1a000eb0 <Chip_Clock_CalcMainPLLValue+0x78>)
1a000e4c:	4293      	cmp	r3, r2
1a000e4e:	d821      	bhi.n	1a000e94 <Chip_Clock_CalcMainPLLValue+0x5c>
1a000e50:	b318      	cbz	r0, 1a000e9a <Chip_Clock_CalcMainPLLValue+0x62>
	ppll->ctrl = 1 << 7; /* Enable direct mode [If possible] */
1a000e52:	2380      	movs	r3, #128	; 0x80
1a000e54:	6023      	str	r3, [r4, #0]
	ppll->nsel = 0;
1a000e56:	2300      	movs	r3, #0
1a000e58:	60a3      	str	r3, [r4, #8]
	ppll->psel = 0;
1a000e5a:	60e3      	str	r3, [r4, #12]
	ppll->msel = freq / ppll->fin;
1a000e5c:	fbb5 f3f0 	udiv	r3, r5, r0
1a000e60:	6123      	str	r3, [r4, #16]
	if (freq < PLL_MIN_CCO_FREQ || ppll->msel * ppll->fin != freq) {
1a000e62:	4a14      	ldr	r2, [pc, #80]	; (1a000eb4 <Chip_Clock_CalcMainPLLValue+0x7c>)
1a000e64:	4295      	cmp	r5, r2
1a000e66:	d903      	bls.n	1a000e70 <Chip_Clock_CalcMainPLLValue+0x38>
1a000e68:	fb03 f000 	mul.w	r0, r3, r0
1a000e6c:	42a8      	cmp	r0, r5
1a000e6e:	d007      	beq.n	1a000e80 <Chip_Clock_CalcMainPLLValue+0x48>
		pll_get_frac(freq, ppll);
1a000e70:	4621      	mov	r1, r4
1a000e72:	4628      	mov	r0, r5
1a000e74:	f7ff fe96 	bl	1a000ba4 <pll_get_frac>
		if (!ppll->nsel) {
1a000e78:	68a3      	ldr	r3, [r4, #8]
1a000e7a:	b18b      	cbz	r3, 1a000ea0 <Chip_Clock_CalcMainPLLValue+0x68>
		ppll->nsel --;
1a000e7c:	3b01      	subs	r3, #1
1a000e7e:	60a3      	str	r3, [r4, #8]
	if (ppll->msel == 0) {
1a000e80:	6923      	ldr	r3, [r4, #16]
1a000e82:	b183      	cbz	r3, 1a000ea6 <Chip_Clock_CalcMainPLLValue+0x6e>
	if (ppll->psel) {
1a000e84:	68e2      	ldr	r2, [r4, #12]
1a000e86:	b10a      	cbz	r2, 1a000e8c <Chip_Clock_CalcMainPLLValue+0x54>
		ppll->psel --;
1a000e88:	3a01      	subs	r2, #1
1a000e8a:	60e2      	str	r2, [r4, #12]
	ppll->msel --;
1a000e8c:	3b01      	subs	r3, #1
1a000e8e:	6123      	str	r3, [r4, #16]
	return 0;
1a000e90:	2000      	movs	r0, #0
}
1a000e92:	bd38      	pop	{r3, r4, r5, pc}
		return -1;
1a000e94:	f04f 30ff 	mov.w	r0, #4294967295	; 0xffffffff
1a000e98:	e7fb      	b.n	1a000e92 <Chip_Clock_CalcMainPLLValue+0x5a>
1a000e9a:	f04f 30ff 	mov.w	r0, #4294967295	; 0xffffffff
1a000e9e:	e7f8      	b.n	1a000e92 <Chip_Clock_CalcMainPLLValue+0x5a>
			return -1;
1a000ea0:	f04f 30ff 	mov.w	r0, #4294967295	; 0xffffffff
1a000ea4:	e7f5      	b.n	1a000e92 <Chip_Clock_CalcMainPLLValue+0x5a>
		return - 1;
1a000ea6:	f04f 30ff 	mov.w	r0, #4294967295	; 0xffffffff
1a000eaa:	e7f2      	b.n	1a000e92 <Chip_Clock_CalcMainPLLValue+0x5a>
1a000eac:	ff6b3a10 	.word	0xff6b3a10
1a000eb0:	0b940510 	.word	0x0b940510
1a000eb4:	094c5eff 	.word	0x094c5eff

1a000eb8 <Chip_Clock_GetMainPLLHz>:
{
1a000eb8:	b530      	push	{r4, r5, lr}
1a000eba:	b083      	sub	sp, #12
	uint32_t PLLReg = LPC_CGU->PLL1_CTRL;
1a000ebc:	4d17      	ldr	r5, [pc, #92]	; (1a000f1c <Chip_Clock_GetMainPLLHz+0x64>)
1a000ebe:	6c6c      	ldr	r4, [r5, #68]	; 0x44
	uint32_t freq = Chip_Clock_GetClockInputHz((CHIP_CGU_CLKIN_T) ((PLLReg >> 24) & 0xF));
1a000ec0:	f3c4 6003 	ubfx	r0, r4, #24, #4
1a000ec4:	f7ff ff5c 	bl	1a000d80 <Chip_Clock_GetClockInputHz>
	const uint8_t ptab[] = {1, 2, 4, 8};
1a000ec8:	4b15      	ldr	r3, [pc, #84]	; (1a000f20 <Chip_Clock_GetMainPLLHz+0x68>)
1a000eca:	681b      	ldr	r3, [r3, #0]
1a000ecc:	9301      	str	r3, [sp, #4]
	if (!(LPC_CGU->PLL1_STAT & 1)) {
1a000ece:	6c2b      	ldr	r3, [r5, #64]	; 0x40
1a000ed0:	f013 0f01 	tst.w	r3, #1
1a000ed4:	d01f      	beq.n	1a000f16 <Chip_Clock_GetMainPLLHz+0x5e>
	msel = (PLLReg >> 16) & 0xFF;
1a000ed6:	f3c4 4307 	ubfx	r3, r4, #16, #8
	nsel = (PLLReg >> 12) & 0x3;
1a000eda:	f3c4 3201 	ubfx	r2, r4, #12, #2
	psel = (PLLReg >> 8) & 0x3;
1a000ede:	f3c4 2101 	ubfx	r1, r4, #8, #2
	fbsel = (PLLReg >> 6) & 0x1;
1a000ee2:	f3c4 1580 	ubfx	r5, r4, #6, #1
	m = msel + 1;
1a000ee6:	3301      	adds	r3, #1
	n = nsel + 1;
1a000ee8:	3201      	adds	r2, #1
	p = ptab[psel];
1a000eea:	f10d 0c08 	add.w	ip, sp, #8
1a000eee:	4461      	add	r1, ip
1a000ef0:	f811 1c04 	ldrb.w	r1, [r1, #-4]
	if (direct || fbsel) {
1a000ef4:	f014 0f80 	tst.w	r4, #128	; 0x80
1a000ef8:	d108      	bne.n	1a000f0c <Chip_Clock_GetMainPLLHz+0x54>
1a000efa:	b93d      	cbnz	r5, 1a000f0c <Chip_Clock_GetMainPLLHz+0x54>
	return (m / (2 * p)) * (freq / n);
1a000efc:	0049      	lsls	r1, r1, #1
1a000efe:	fbb3 f3f1 	udiv	r3, r3, r1
1a000f02:	fbb0 f0f2 	udiv	r0, r0, r2
1a000f06:	fb00 f003 	mul.w	r0, r0, r3
1a000f0a:	e005      	b.n	1a000f18 <Chip_Clock_GetMainPLLHz+0x60>
		return m * (freq / n);
1a000f0c:	fbb0 f0f2 	udiv	r0, r0, r2
1a000f10:	fb03 f000 	mul.w	r0, r3, r0
1a000f14:	e000      	b.n	1a000f18 <Chip_Clock_GetMainPLLHz+0x60>
		return 0;
1a000f16:	2000      	movs	r0, #0
}
1a000f18:	b003      	add	sp, #12
1a000f1a:	bd30      	pop	{r4, r5, pc}
1a000f1c:	40050000 	.word	0x40050000
1a000f20:	1a002f8c 	.word	0x1a002f8c

1a000f24 <Chip_Clock_GetDivRate>:
{
1a000f24:	b538      	push	{r3, r4, r5, lr}
1a000f26:	460c      	mov	r4, r1
	input = Chip_Clock_GetDividerSource(divider);
1a000f28:	4608      	mov	r0, r1
1a000f2a:	f7ff ff0d 	bl	1a000d48 <Chip_Clock_GetDividerSource>
1a000f2e:	4605      	mov	r5, r0
	div = Chip_Clock_GetDividerDivisor(divider);
1a000f30:	4620      	mov	r0, r4
1a000f32:	f7ff ff17 	bl	1a000d64 <Chip_Clock_GetDividerDivisor>
1a000f36:	4604      	mov	r4, r0
	return Chip_Clock_GetClockInputHz(input) / (div + 1);
1a000f38:	4628      	mov	r0, r5
1a000f3a:	f7ff ff21 	bl	1a000d80 <Chip_Clock_GetClockInputHz>
1a000f3e:	3401      	adds	r4, #1
}
1a000f40:	fbb0 f0f4 	udiv	r0, r0, r4
1a000f44:	bd38      	pop	{r3, r4, r5, pc}
1a000f46:	Address 0x000000001a000f46 is out of bounds.


1a000f48 <Chip_Clock_SetBaseClock>:
	return Chip_Clock_GetClockInputHz(Chip_Clock_GetBaseClock(clock));
}

/* Sets a CGU Base Clock clock source */
void Chip_Clock_SetBaseClock(CHIP_CGU_BASE_CLK_T BaseClock, CHIP_CGU_CLKIN_T Input, bool autoblocken, bool powerdn)
{
1a000f48:	b430      	push	{r4, r5}
	uint32_t reg = LPC_CGU->BASE_CLK[BaseClock];
1a000f4a:	f100 0416 	add.w	r4, r0, #22
1a000f4e:	00a4      	lsls	r4, r4, #2
1a000f50:	f104 4480 	add.w	r4, r4, #1073741824	; 0x40000000
1a000f54:	f504 24a0 	add.w	r4, r4, #327680	; 0x50000
1a000f58:	6864      	ldr	r4, [r4, #4]

	if (BaseClock < CLK_BASE_NONE) {
1a000f5a:	281b      	cmp	r0, #27
1a000f5c:	d813      	bhi.n	1a000f86 <Chip_Clock_SetBaseClock+0x3e>
		if (Input != CLKINPUT_PD) {
1a000f5e:	2911      	cmp	r1, #17
1a000f60:	d01a      	beq.n	1a000f98 <Chip_Clock_SetBaseClock+0x50>
			/* Mask off fields we plan to update */
			reg &= ~((0x1F << 24) | 1 | (1 << 11));
1a000f62:	4d0e      	ldr	r5, [pc, #56]	; (1a000f9c <Chip_Clock_SetBaseClock+0x54>)
1a000f64:	4025      	ands	r5, r4

			if (autoblocken) {
1a000f66:	b10a      	cbz	r2, 1a000f6c <Chip_Clock_SetBaseClock+0x24>
				reg |= (1 << 11);
1a000f68:	f445 6500 	orr.w	r5, r5, #2048	; 0x800
			}
			if (powerdn) {
1a000f6c:	b10b      	cbz	r3, 1a000f72 <Chip_Clock_SetBaseClock+0x2a>
				reg |= (1 << 0);
1a000f6e:	f045 0501 	orr.w	r5, r5, #1
			}

			/* Set clock source */
			reg |= (Input << 24);
1a000f72:	ea45 6501 	orr.w	r5, r5, r1, lsl #24

			LPC_CGU->BASE_CLK[BaseClock] = reg;
1a000f76:	3016      	adds	r0, #22
1a000f78:	0080      	lsls	r0, r0, #2
1a000f7a:	f100 4080 	add.w	r0, r0, #1073741824	; 0x40000000
1a000f7e:	f500 20a0 	add.w	r0, r0, #327680	; 0x50000
1a000f82:	6045      	str	r5, [r0, #4]
1a000f84:	e008      	b.n	1a000f98 <Chip_Clock_SetBaseClock+0x50>
		}
	}
	else {
		LPC_CGU->BASE_CLK[BaseClock] = reg | 1;	/* Power down this base clock */
1a000f86:	f044 0401 	orr.w	r4, r4, #1
1a000f8a:	3016      	adds	r0, #22
1a000f8c:	0080      	lsls	r0, r0, #2
1a000f8e:	f100 4080 	add.w	r0, r0, #1073741824	; 0x40000000
1a000f92:	f500 20a0 	add.w	r0, r0, #327680	; 0x50000
1a000f96:	6044      	str	r4, [r0, #4]
	}
}
1a000f98:	bc30      	pop	{r4, r5}
1a000f9a:	4770      	bx	lr
1a000f9c:	e0fff7fe 	.word	0xe0fff7fe

1a000fa0 <Chip_Clock_GetBaseClock>:
/* Gets a CGU Base Clock clock source */
CHIP_CGU_CLKIN_T Chip_Clock_GetBaseClock(CHIP_CGU_BASE_CLK_T BaseClock)
{
	uint32_t reg;

	if (BaseClock >= CLK_BASE_NONE) {
1a000fa0:	281b      	cmp	r0, #27
1a000fa2:	d80c      	bhi.n	1a000fbe <Chip_Clock_GetBaseClock+0x1e>
		return CLKINPUT_PD;
	}

	reg = LPC_CGU->BASE_CLK[BaseClock];
1a000fa4:	3016      	adds	r0, #22
1a000fa6:	0080      	lsls	r0, r0, #2
1a000fa8:	f100 4080 	add.w	r0, r0, #1073741824	; 0x40000000
1a000fac:	f500 20a0 	add.w	r0, r0, #327680	; 0x50000
1a000fb0:	6840      	ldr	r0, [r0, #4]

	/* base clock is powered down? */
	if (reg & 1) {
1a000fb2:	f010 0f01 	tst.w	r0, #1
1a000fb6:	d104      	bne.n	1a000fc2 <Chip_Clock_GetBaseClock+0x22>
		return CLKINPUT_PD;
	}

	return (CHIP_CGU_CLKIN_T) ((reg >> 24) & 0x1F);
1a000fb8:	f3c0 6004 	ubfx	r0, r0, #24, #5
1a000fbc:	4770      	bx	lr
		return CLKINPUT_PD;
1a000fbe:	2011      	movs	r0, #17
1a000fc0:	4770      	bx	lr
		return CLKINPUT_PD;
1a000fc2:	2011      	movs	r0, #17
}
1a000fc4:	4770      	bx	lr

1a000fc6 <Chip_Clock_GetBaseClocktHz>:
{
1a000fc6:	b508      	push	{r3, lr}
	return Chip_Clock_GetClockInputHz(Chip_Clock_GetBaseClock(clock));
1a000fc8:	f7ff ffea 	bl	1a000fa0 <Chip_Clock_GetBaseClock>
1a000fcc:	f7ff fed8 	bl	1a000d80 <Chip_Clock_GetClockInputHz>
}
1a000fd0:	bd08      	pop	{r3, pc}
1a000fd2:	Address 0x000000001a000fd2 is out of bounds.


1a000fd4 <Chip_Clock_EnableOpts>:
/* Enables a peripheral clock and sets clock states */
void Chip_Clock_EnableOpts(CHIP_CCU_CLK_T clk, bool autoen, bool wakeupen, int div)
{
	uint32_t reg = 1;

	if (autoen) {
1a000fd4:	b969      	cbnz	r1, 1a000ff2 <Chip_Clock_EnableOpts+0x1e>
	uint32_t reg = 1;
1a000fd6:	2101      	movs	r1, #1
		reg |= (1 << 1);
	}
	if (wakeupen) {
1a000fd8:	b10a      	cbz	r2, 1a000fde <Chip_Clock_EnableOpts+0xa>
		reg |= (1 << 2);
1a000fda:	f041 0104 	orr.w	r1, r1, #4
	}

	/* Not all clocks support a divider, but we won't check that here. Only
	   dividers of 1 and 2 are allowed. Assume 1 if not 2 */
	if (div == 2) {
1a000fde:	2b02      	cmp	r3, #2
1a000fe0:	d009      	beq.n	1a000ff6 <Chip_Clock_EnableOpts+0x22>
		reg |= (1 << 5);
	}

	/* Setup peripheral clock and start running */
	if (clk >= CLK_CCU2_START) {
1a000fe2:	f5b0 7fa1 	cmp.w	r0, #322	; 0x142
1a000fe6:	d209      	bcs.n	1a000ffc <Chip_Clock_EnableOpts+0x28>
		LPC_CCU2->CLKCCU[clk - CLK_CCU2_START].CFG = reg;
	}
	else {
		LPC_CCU1->CLKCCU[clk].CFG = reg;
1a000fe8:	3020      	adds	r0, #32
1a000fea:	4b07      	ldr	r3, [pc, #28]	; (1a001008 <Chip_Clock_EnableOpts+0x34>)
1a000fec:	f843 1030 	str.w	r1, [r3, r0, lsl #3]
	}
}
1a000ff0:	4770      	bx	lr
		reg |= (1 << 1);
1a000ff2:	2103      	movs	r1, #3
1a000ff4:	e7f0      	b.n	1a000fd8 <Chip_Clock_EnableOpts+0x4>
		reg |= (1 << 5);
1a000ff6:	f041 0120 	orr.w	r1, r1, #32
1a000ffa:	e7f2      	b.n	1a000fe2 <Chip_Clock_EnableOpts+0xe>
		LPC_CCU2->CLKCCU[clk - CLK_CCU2_START].CFG = reg;
1a000ffc:	f5a0 7091 	sub.w	r0, r0, #290	; 0x122
1a001000:	4b02      	ldr	r3, [pc, #8]	; (1a00100c <Chip_Clock_EnableOpts+0x38>)
1a001002:	f843 1030 	str.w	r1, [r3, r0, lsl #3]
1a001006:	4770      	bx	lr
1a001008:	40051000 	.word	0x40051000
1a00100c:	40052000 	.word	0x40052000

1a001010 <Chip_Clock_Enable>:

/* Enables a peripheral clock */
void Chip_Clock_Enable(CHIP_CCU_CLK_T clk)
{
	/* Start peripheral clock running */
	if (clk >= CLK_CCU2_START) {
1a001010:	f5b0 7fa1 	cmp.w	r0, #322	; 0x142
1a001014:	d208      	bcs.n	1a001028 <Chip_Clock_Enable+0x18>
		LPC_CCU2->CLKCCU[clk - CLK_CCU2_START].CFG |= 1;
	}
	else {
		LPC_CCU1->CLKCCU[clk].CFG |= 1;
1a001016:	4a09      	ldr	r2, [pc, #36]	; (1a00103c <Chip_Clock_Enable+0x2c>)
1a001018:	3020      	adds	r0, #32
1a00101a:	f852 3030 	ldr.w	r3, [r2, r0, lsl #3]
1a00101e:	f043 0301 	orr.w	r3, r3, #1
1a001022:	f842 3030 	str.w	r3, [r2, r0, lsl #3]
	}
}
1a001026:	4770      	bx	lr
		LPC_CCU2->CLKCCU[clk - CLK_CCU2_START].CFG |= 1;
1a001028:	4a05      	ldr	r2, [pc, #20]	; (1a001040 <Chip_Clock_Enable+0x30>)
1a00102a:	f5a0 7091 	sub.w	r0, r0, #290	; 0x122
1a00102e:	f852 3030 	ldr.w	r3, [r2, r0, lsl #3]
1a001032:	f043 0301 	orr.w	r3, r3, #1
1a001036:	f842 3030 	str.w	r3, [r2, r0, lsl #3]
1a00103a:	4770      	bx	lr
1a00103c:	40051000 	.word	0x40051000
1a001040:	40052000 	.word	0x40052000

1a001044 <Chip_Clock_Disable>:

/* Disables a peripheral clock */
void Chip_Clock_Disable(CHIP_CCU_CLK_T clk)
{
	/* Stop peripheral clock */
	if (clk >= CLK_CCU2_START) {
1a001044:	f5b0 7fa1 	cmp.w	r0, #322	; 0x142
1a001048:	d208      	bcs.n	1a00105c <Chip_Clock_Disable+0x18>
		LPC_CCU2->CLKCCU[clk - CLK_CCU2_START].CFG &= ~1;
	}
	else {
		LPC_CCU1->CLKCCU[clk].CFG &= ~1;
1a00104a:	4a09      	ldr	r2, [pc, #36]	; (1a001070 <Chip_Clock_Disable+0x2c>)
1a00104c:	3020      	adds	r0, #32
1a00104e:	f852 3030 	ldr.w	r3, [r2, r0, lsl #3]
1a001052:	f023 0301 	bic.w	r3, r3, #1
1a001056:	f842 3030 	str.w	r3, [r2, r0, lsl #3]
	}
}
1a00105a:	4770      	bx	lr
		LPC_CCU2->CLKCCU[clk - CLK_CCU2_START].CFG &= ~1;
1a00105c:	4a05      	ldr	r2, [pc, #20]	; (1a001074 <Chip_Clock_Disable+0x30>)
1a00105e:	f5a0 7091 	sub.w	r0, r0, #290	; 0x122
1a001062:	f852 3030 	ldr.w	r3, [r2, r0, lsl #3]
1a001066:	f023 0301 	bic.w	r3, r3, #1
1a00106a:	f842 3030 	str.w	r3, [r2, r0, lsl #3]
1a00106e:	4770      	bx	lr
1a001070:	40051000 	.word	0x40051000
1a001074:	40052000 	.word	0x40052000

1a001078 <Chip_Clock_GetRate>:
	LPC_CCU2->PM = 0;
}

/* Returns a peripheral clock rate */
uint32_t Chip_Clock_GetRate(CHIP_CCU_CLK_T clk)
{
1a001078:	b510      	push	{r4, lr}
	CHIP_CGU_BASE_CLK_T baseclk;
	uint32_t reg, div, rate;

	/* Get CCU config register for clock */
	if (clk >= CLK_CCU2_START) {
1a00107a:	f5b0 7fa1 	cmp.w	r0, #322	; 0x142
1a00107e:	d309      	bcc.n	1a001094 <Chip_Clock_GetRate+0x1c>
		reg = LPC_CCU2->CLKCCU[clk - CLK_CCU2_START].CFG;
1a001080:	f5a0 7391 	sub.w	r3, r0, #290	; 0x122
1a001084:	4a0d      	ldr	r2, [pc, #52]	; (1a0010bc <Chip_Clock_GetRate+0x44>)
1a001086:	f852 4033 	ldr.w	r4, [r2, r3, lsl #3]
	else {
		reg = LPC_CCU1->CLKCCU[clk].CFG;
	}

	/* Is the clock enabled? */
	if (reg & 1) {
1a00108a:	f014 0f01 	tst.w	r4, #1
1a00108e:	d107      	bne.n	1a0010a0 <Chip_Clock_GetRate+0x28>

		}
		rate = rate / div;
	}
	else {
		rate = 0;
1a001090:	2000      	movs	r0, #0
	}

	return rate;
}
1a001092:	bd10      	pop	{r4, pc}
		reg = LPC_CCU1->CLKCCU[clk].CFG;
1a001094:	f100 0320 	add.w	r3, r0, #32
1a001098:	4a09      	ldr	r2, [pc, #36]	; (1a0010c0 <Chip_Clock_GetRate+0x48>)
1a00109a:	f852 4033 	ldr.w	r4, [r2, r3, lsl #3]
1a00109e:	e7f4      	b.n	1a00108a <Chip_Clock_GetRate+0x12>
		baseclk = Chip_Clock_FindBaseClock(clk);
1a0010a0:	f7ff fe06 	bl	1a000cb0 <Chip_Clock_FindBaseClock>
		rate = Chip_Clock_GetBaseClocktHz(baseclk);
1a0010a4:	f7ff ff8f 	bl	1a000fc6 <Chip_Clock_GetBaseClocktHz>
		if (((reg >> 5) & 0x7) == 0) {
1a0010a8:	f014 0fe0 	tst.w	r4, #224	; 0xe0
1a0010ac:	d103      	bne.n	1a0010b6 <Chip_Clock_GetRate+0x3e>
			div = 1;
1a0010ae:	2301      	movs	r3, #1
		rate = rate / div;
1a0010b0:	fbb0 f0f3 	udiv	r0, r0, r3
1a0010b4:	e7ed      	b.n	1a001092 <Chip_Clock_GetRate+0x1a>
			div = 2;/* No other dividers supported */
1a0010b6:	2302      	movs	r3, #2
1a0010b8:	e7fa      	b.n	1a0010b0 <Chip_Clock_GetRate+0x38>
1a0010ba:	bf00      	nop
1a0010bc:	40052000 	.word	0x40052000
1a0010c0:	40051000 	.word	0x40051000

1a0010c4 <SystemCoreClockUpdate>:


/* Update system core clock rate, should be called if the system has
   a clock rate change */
void SystemCoreClockUpdate(void)
{
1a0010c4:	b508      	push	{r3, lr}
	/* CPU core speed */
	SystemCoreClock = Chip_Clock_GetRate(CLK_MX_MXCORE);
1a0010c6:	2069      	movs	r0, #105	; 0x69
1a0010c8:	f7ff ffd6 	bl	1a001078 <Chip_Clock_GetRate>
1a0010cc:	4b01      	ldr	r3, [pc, #4]	; (1a0010d4 <SystemCoreClockUpdate+0x10>)
1a0010ce:	6018      	str	r0, [r3, #0]
}
1a0010d0:	bd08      	pop	{r3, pc}
1a0010d2:	bf00      	nop
1a0010d4:	10005a84 	.word	0x10005a84

1a0010d8 <Chip_SetupCoreClock>:
/*****************************************************************************
 * Public functions
 ****************************************************************************/
/* Setup Chip Core clock */
void Chip_SetupCoreClock(CHIP_CGU_CLKIN_T clkin, uint32_t core_freq, bool setbase)
{
1a0010d8:	b570      	push	{r4, r5, r6, lr}
1a0010da:	b08a      	sub	sp, #40	; 0x28
1a0010dc:	4605      	mov	r5, r0
1a0010de:	460e      	mov	r6, r1
1a0010e0:	4614      	mov	r4, r2
	int i;
	volatile uint32_t delay = 50000; // FIXME: original was 500, fix for horrible crystals. @Eric
1a0010e2:	f24c 3350 	movw	r3, #50000	; 0xc350
1a0010e6:	9309      	str	r3, [sp, #36]	; 0x24
	uint32_t direct = 0, pdivide = 0;
	PLL_PARAM_T ppll;

	if (clkin == CLKIN_CRYSTAL) {
1a0010e8:	2806      	cmp	r0, #6
1a0010ea:	d018      	beq.n	1a00111e <Chip_SetupCoreClock+0x46>
		/* Switch main system clocking to crystal */
		Chip_Clock_EnableCrystal();
	}
	Chip_Clock_SetBaseClock(CLK_BASE_MX, clkin, true, false);
1a0010ec:	2300      	movs	r3, #0
1a0010ee:	2201      	movs	r2, #1
1a0010f0:	4629      	mov	r1, r5
1a0010f2:	2004      	movs	r0, #4
1a0010f4:	f7ff ff28 	bl	1a000f48 <Chip_Clock_SetBaseClock>
 * Saves power if the main PLL is not needed.
 */
__STATIC_INLINE void Chip_Clock_DisableMainPLL(void)
{
	/* power down main PLL */
	LPC_CGU->PLL1_CTRL |= 1;
1a0010f8:	4a49      	ldr	r2, [pc, #292]	; (1a001220 <Chip_SetupCoreClock+0x148>)
1a0010fa:	6c53      	ldr	r3, [r2, #68]	; 0x44
1a0010fc:	f043 0301 	orr.w	r3, r3, #1
1a001100:	6453      	str	r3, [r2, #68]	; 0x44
	Chip_Clock_DisableMainPLL(); /* Disable PLL */

	/* Calculate the PLL Parameters */
	ppll.srcin = clkin;
1a001102:	f88d 5008 	strb.w	r5, [sp, #8]
	Chip_Clock_CalcMainPLLValue(core_freq, &ppll);
1a001106:	a901      	add	r1, sp, #4
1a001108:	4630      	mov	r0, r6
1a00110a:	f7ff fe95 	bl	1a000e38 <Chip_Clock_CalcMainPLLValue>

	if (core_freq > 110000000UL) {
1a00110e:	4b45      	ldr	r3, [pc, #276]	; (1a001224 <Chip_SetupCoreClock+0x14c>)
1a001110:	429e      	cmp	r6, r3
1a001112:	d916      	bls.n	1a001142 <Chip_SetupCoreClock+0x6a>
		if (ppll.ctrl & (1 << 6)) {
1a001114:	9b01      	ldr	r3, [sp, #4]
1a001116:	f013 0f40 	tst.w	r3, #64	; 0x40
1a00111a:	d003      	beq.n	1a001124 <Chip_SetupCoreClock+0x4c>
1a00111c:	e7fe      	b.n	1a00111c <Chip_SetupCoreClock+0x44>
		Chip_Clock_EnableCrystal();
1a00111e:	f7ff fded 	bl	1a000cfc <Chip_Clock_EnableCrystal>
1a001122:	e7e3      	b.n	1a0010ec <Chip_SetupCoreClock+0x14>
			while(1);		// to run in integer mode above 110 MHz, you need to use IDIV clock to boot strap CPU to that freq
		} else if (ppll.ctrl & (1 << 7)){
1a001124:	f013 0f80 	tst.w	r3, #128	; 0x80
1a001128:	d005      	beq.n	1a001136 <Chip_SetupCoreClock+0x5e>
			direct = 1;
			ppll.ctrl &= ~(1 << 7);
1a00112a:	f023 0380 	bic.w	r3, r3, #128	; 0x80
1a00112e:	9301      	str	r3, [sp, #4]
	uint32_t direct = 0, pdivide = 0;
1a001130:	2500      	movs	r5, #0
			direct = 1;
1a001132:	2601      	movs	r6, #1
1a001134:	e007      	b.n	1a001146 <Chip_SetupCoreClock+0x6e>
		} else {
			pdivide = 1;
			ppll.psel++;
1a001136:	9b04      	ldr	r3, [sp, #16]
1a001138:	3301      	adds	r3, #1
1a00113a:	9304      	str	r3, [sp, #16]
			pdivide = 1;
1a00113c:	2501      	movs	r5, #1
	uint32_t direct = 0, pdivide = 0;
1a00113e:	2600      	movs	r6, #0
1a001140:	e001      	b.n	1a001146 <Chip_SetupCoreClock+0x6e>
1a001142:	2500      	movs	r5, #0
1a001144:	462e      	mov	r6, r5
 * Make sure the main PLL is enabled.
 */
__STATIC_INLINE void Chip_Clock_SetupMainPLL(const PLL_PARAM_T *ppll)
{
	/* power up main PLL */
    LPC_CGU->PLL1_CTRL = ppll->ctrl | ((uint32_t) ppll->srcin << 24) | (ppll->msel << 16) | (ppll->nsel << 12) | (ppll->psel << 8) | ( 1 << 11);	
1a001146:	f89d 2008 	ldrb.w	r2, [sp, #8]
1a00114a:	9b01      	ldr	r3, [sp, #4]
1a00114c:	ea43 6302 	orr.w	r3, r3, r2, lsl #24
1a001150:	9a05      	ldr	r2, [sp, #20]
1a001152:	ea43 4302 	orr.w	r3, r3, r2, lsl #16
1a001156:	9a03      	ldr	r2, [sp, #12]
1a001158:	ea43 3302 	orr.w	r3, r3, r2, lsl #12
1a00115c:	9a04      	ldr	r2, [sp, #16]
1a00115e:	ea43 2302 	orr.w	r3, r3, r2, lsl #8
1a001162:	f443 6300 	orr.w	r3, r3, #2048	; 0x800
1a001166:	4a2e      	ldr	r2, [pc, #184]	; (1a001220 <Chip_SetupCoreClock+0x148>)
1a001168:	6453      	str	r3, [r2, #68]	; 0x44
 * @note	The main PLL should be locked prior to using it as a clock input for a base clock.
 */
__STATIC_INLINE int Chip_Clock_MainPLLLocked(void)
{
	/* Return true if locked */
	return (LPC_CGU->PLL1_STAT & 1) != 0;
1a00116a:	4b2d      	ldr	r3, [pc, #180]	; (1a001220 <Chip_SetupCoreClock+0x148>)
1a00116c:	6c1b      	ldr	r3, [r3, #64]	; 0x40

	/* Setup and start the PLL */
	Chip_Clock_SetupMainPLL(&ppll);

	/* Wait for the PLL to lock */
	while(!Chip_Clock_MainPLLLocked()) {}
1a00116e:	f013 0f01 	tst.w	r3, #1
1a001172:	d0fa      	beq.n	1a00116a <Chip_SetupCoreClock+0x92>

	/* Set core clock base as PLL1 */
	Chip_Clock_SetBaseClock(CLK_BASE_MX, CLKIN_MAINPLL, true, false);
1a001174:	2300      	movs	r3, #0
1a001176:	2201      	movs	r2, #1
1a001178:	2109      	movs	r1, #9
1a00117a:	2004      	movs	r0, #4
1a00117c:	f7ff fee4 	bl	1a000f48 <Chip_Clock_SetBaseClock>

	if (direct) {
1a001180:	b1fe      	cbz	r6, 1a0011c2 <Chip_SetupCoreClock+0xea>
		delay = 50000; // FIXME: original was 1000, fix for horrible crystals. @Eric
1a001182:	f24c 3350 	movw	r3, #50000	; 0xc350
1a001186:	9309      	str	r3, [sp, #36]	; 0x24
		while(delay --){} /* Wait for approx 50 uSec -- for power supply to stabilize*/
1a001188:	9b09      	ldr	r3, [sp, #36]	; 0x24
1a00118a:	1e5a      	subs	r2, r3, #1
1a00118c:	9209      	str	r2, [sp, #36]	; 0x24
1a00118e:	2b00      	cmp	r3, #0
1a001190:	d1fa      	bne.n	1a001188 <Chip_SetupCoreClock+0xb0>
		ppll.ctrl |= 1 << 7;
1a001192:	9b01      	ldr	r3, [sp, #4]
1a001194:	f043 0380 	orr.w	r3, r3, #128	; 0x80
1a001198:	9301      	str	r3, [sp, #4]
    LPC_CGU->PLL1_CTRL = ppll->ctrl | ((uint32_t) ppll->srcin << 24) | (ppll->msel << 16) | (ppll->nsel << 12) | (ppll->psel << 8) | ( 1 << 11);	
1a00119a:	f89d 2008 	ldrb.w	r2, [sp, #8]
1a00119e:	ea43 6302 	orr.w	r3, r3, r2, lsl #24
1a0011a2:	9a05      	ldr	r2, [sp, #20]
1a0011a4:	ea43 4302 	orr.w	r3, r3, r2, lsl #16
1a0011a8:	9a03      	ldr	r2, [sp, #12]
1a0011aa:	ea43 3302 	orr.w	r3, r3, r2, lsl #12
1a0011ae:	9a04      	ldr	r2, [sp, #16]
1a0011b0:	ea43 2302 	orr.w	r3, r3, r2, lsl #8
1a0011b4:	f443 6300 	orr.w	r3, r3, #2048	; 0x800
1a0011b8:	4a19      	ldr	r2, [pc, #100]	; (1a001220 <Chip_SetupCoreClock+0x148>)
1a0011ba:	6453      	str	r3, [r2, #68]	; 0x44
		while(delay --){} /* Wait for approx 50 uSec -- for power supply to stabilize */
		ppll.psel--;
		Chip_Clock_SetupMainPLL(&ppll); /* Set PDIV to operate at full frequency */
	}

	if (setbase) {
1a0011bc:	b36c      	cbz	r4, 1a00121a <Chip_SetupCoreClock+0x142>
		/* Setup system base clocks and initial states. This won't enable and
		   disable individual clocks, but sets up the base clock sources for
		   each individual peripheral clock. */
		for (i = 0; i < (sizeof(InitClkStates) / sizeof(InitClkStates[0])); i++) {
1a0011be:	2400      	movs	r4, #0
1a0011c0:	e029      	b.n	1a001216 <Chip_SetupCoreClock+0x13e>
	} else if (pdivide) {
1a0011c2:	2d00      	cmp	r5, #0
1a0011c4:	d0fa      	beq.n	1a0011bc <Chip_SetupCoreClock+0xe4>
		delay = 50000; // FIXME: original was 1000, fix for horrible crystals. @Eric
1a0011c6:	f24c 3350 	movw	r3, #50000	; 0xc350
1a0011ca:	9309      	str	r3, [sp, #36]	; 0x24
		while(delay --){} /* Wait for approx 50 uSec -- for power supply to stabilize */
1a0011cc:	9b09      	ldr	r3, [sp, #36]	; 0x24
1a0011ce:	1e5a      	subs	r2, r3, #1
1a0011d0:	9209      	str	r2, [sp, #36]	; 0x24
1a0011d2:	2b00      	cmp	r3, #0
1a0011d4:	d1fa      	bne.n	1a0011cc <Chip_SetupCoreClock+0xf4>
		ppll.psel--;
1a0011d6:	9b04      	ldr	r3, [sp, #16]
1a0011d8:	1e5a      	subs	r2, r3, #1
1a0011da:	9204      	str	r2, [sp, #16]
1a0011dc:	f89d 1008 	ldrb.w	r1, [sp, #8]
1a0011e0:	9b01      	ldr	r3, [sp, #4]
1a0011e2:	ea43 6301 	orr.w	r3, r3, r1, lsl #24
1a0011e6:	9905      	ldr	r1, [sp, #20]
1a0011e8:	ea43 4301 	orr.w	r3, r3, r1, lsl #16
1a0011ec:	9903      	ldr	r1, [sp, #12]
1a0011ee:	ea43 3301 	orr.w	r3, r3, r1, lsl #12
1a0011f2:	ea43 2302 	orr.w	r3, r3, r2, lsl #8
1a0011f6:	f443 6300 	orr.w	r3, r3, #2048	; 0x800
1a0011fa:	4a09      	ldr	r2, [pc, #36]	; (1a001220 <Chip_SetupCoreClock+0x148>)
1a0011fc:	6453      	str	r3, [r2, #68]	; 0x44
1a0011fe:	e7dd      	b.n	1a0011bc <Chip_SetupCoreClock+0xe4>
			Chip_Clock_SetBaseClock(InitClkStates[i].clk, InitClkStates[i].clkin,
1a001200:	4809      	ldr	r0, [pc, #36]	; (1a001228 <Chip_SetupCoreClock+0x150>)
1a001202:	eb00 0184 	add.w	r1, r0, r4, lsl #2
1a001206:	78cb      	ldrb	r3, [r1, #3]
1a001208:	788a      	ldrb	r2, [r1, #2]
1a00120a:	7849      	ldrb	r1, [r1, #1]
1a00120c:	f810 0024 	ldrb.w	r0, [r0, r4, lsl #2]
1a001210:	f7ff fe9a 	bl	1a000f48 <Chip_Clock_SetBaseClock>
		for (i = 0; i < (sizeof(InitClkStates) / sizeof(InitClkStates[0])); i++) {
1a001214:	3401      	adds	r4, #1
1a001216:	2c11      	cmp	r4, #17
1a001218:	d9f2      	bls.n	1a001200 <Chip_SetupCoreClock+0x128>
									InitClkStates[i].autoblock_enab, InitClkStates[i].powerdn);
		}
	}
}
1a00121a:	b00a      	add	sp, #40	; 0x28
1a00121c:	bd70      	pop	{r4, r5, r6, pc}
1a00121e:	bf00      	nop
1a001220:	40050000 	.word	0x40050000
1a001224:	068e7780 	.word	0x068e7780
1a001228:	1a003004 	.word	0x1a003004

1a00122c <Chip_GPIO_Init>:
 ****************************************************************************/

/* Initialize GPIO block */
void Chip_GPIO_Init(LPC_GPIO_T *pGPIO)
{
}
1a00122c:	4770      	bx	lr
1a00122e:	Address 0x000000001a00122e is out of bounds.


1a001230 <Chip_I2C_EventHandler>:
{
	struct i2c_interface *iic = &i2c[id];
	volatile I2C_STATUS_T *stat;

	/* Only WAIT event needs to be handled */
	if (event != I2C_EVENT_WAIT) {
1a001230:	2901      	cmp	r1, #1
1a001232:	d000      	beq.n	1a001236 <Chip_I2C_EventHandler+0x6>
	}

	stat = &iic->mXfer->status;
	/* Wait for the status to change */
	while (*stat == I2C_STATUS_BUSY) {}
}
1a001234:	4770      	bx	lr
	stat = &iic->mXfer->status;
1a001236:	ebc0 00c0 	rsb	r0, r0, r0, lsl #3
1a00123a:	0082      	lsls	r2, r0, #2
1a00123c:	4b03      	ldr	r3, [pc, #12]	; (1a00124c <Chip_I2C_EventHandler+0x1c>)
1a00123e:	4413      	add	r3, r2
1a001240:	691a      	ldr	r2, [r3, #16]
	while (*stat == I2C_STATUS_BUSY) {}
1a001242:	7d13      	ldrb	r3, [r2, #20]
1a001244:	b2db      	uxtb	r3, r3
1a001246:	2b04      	cmp	r3, #4
1a001248:	d0fb      	beq.n	1a001242 <Chip_I2C_EventHandler+0x12>
1a00124a:	e7f3      	b.n	1a001234 <Chip_I2C_EventHandler+0x4>
1a00124c:	100011fc 	.word	0x100011fc

1a001250 <Chip_I2C_Init>:
	}
}

/* Initializes the LPC_I2C peripheral with specified parameter */
void Chip_I2C_Init(I2C_ID_T id)
{
1a001250:	b570      	push	{r4, r5, r6, lr}
1a001252:	4605      	mov	r5, r0
	Chip_Clock_Enable(i2c[id].clk);
1a001254:	4e06      	ldr	r6, [pc, #24]	; (1a001270 <Chip_I2C_Init+0x20>)
1a001256:	00c4      	lsls	r4, r0, #3
1a001258:	1a22      	subs	r2, r4, r0
1a00125a:	0093      	lsls	r3, r2, #2
1a00125c:	4433      	add	r3, r6
1a00125e:	8898      	ldrh	r0, [r3, #4]
1a001260:	f7ff fed6 	bl	1a001010 <Chip_Clock_Enable>
	enableClk(id);

	/* Set I2C operation to default */
	LPC_I2Cx(id)->CONCLR = (I2C_CON_AA | I2C_CON_SI | I2C_CON_STA | I2C_CON_I2EN);
1a001264:	1b64      	subs	r4, r4, r5
1a001266:	00a3      	lsls	r3, r4, #2
1a001268:	58f3      	ldr	r3, [r6, r3]
1a00126a:	226c      	movs	r2, #108	; 0x6c
1a00126c:	619a      	str	r2, [r3, #24]
}
1a00126e:	bd70      	pop	{r4, r5, r6, pc}
1a001270:	100011fc 	.word	0x100011fc

1a001274 <Chip_I2C_SetClockRate>:
	disableClk(id);
}

/* Set up clock rate for LPC_I2C peripheral */
void Chip_I2C_SetClockRate(I2C_ID_T id, uint32_t clockrate)
{
1a001274:	e92d 41f0 	stmdb	sp!, {r4, r5, r6, r7, r8, lr}
1a001278:	460c      	mov	r4, r1
	return Chip_Clock_GetRate(i2c[id].clk);
1a00127a:	4e0b      	ldr	r6, [pc, #44]	; (1a0012a8 <Chip_I2C_SetClockRate+0x34>)
1a00127c:	00c5      	lsls	r5, r0, #3
1a00127e:	1a2b      	subs	r3, r5, r0
1a001280:	ea4f 0883 	mov.w	r8, r3, lsl #2
1a001284:	eb06 0308 	add.w	r3, r6, r8
1a001288:	8898      	ldrh	r0, [r3, #4]
1a00128a:	f7ff fef5 	bl	1a001078 <Chip_Clock_GetRate>
	uint32_t SCLValue;

	SCLValue = (getClkRate(id) / clockrate);
1a00128e:	fbb0 f0f4 	udiv	r0, r0, r4
	LPC_I2Cx(id)->SCLH = (uint32_t) (SCLValue >> 1);
1a001292:	f856 3008 	ldr.w	r3, [r6, r8]
1a001296:	0842      	lsrs	r2, r0, #1
1a001298:	611a      	str	r2, [r3, #16]
	LPC_I2Cx(id)->SCLL = (uint32_t) (SCLValue - LPC_I2Cx(id)->SCLH);
1a00129a:	f856 3008 	ldr.w	r3, [r6, r8]
1a00129e:	691a      	ldr	r2, [r3, #16]
1a0012a0:	1a80      	subs	r0, r0, r2
1a0012a2:	6158      	str	r0, [r3, #20]
}
1a0012a4:	e8bd 81f0 	ldmia.w	sp!, {r4, r5, r6, r7, r8, pc}
1a0012a8:	100011fc 	.word	0x100011fc

1a0012ac <Chip_SSP_GetClockIndex>:
/* Returns clock index for the register interface */
STATIC CHIP_CCU_CLK_T Chip_SSP_GetClockIndex(LPC_SSP_T *pSSP)
{
	CHIP_CCU_CLK_T clkSSP;

	if (pSSP == LPC_SSP1) {
1a0012ac:	4b03      	ldr	r3, [pc, #12]	; (1a0012bc <Chip_SSP_GetClockIndex+0x10>)
1a0012ae:	4298      	cmp	r0, r3
1a0012b0:	d001      	beq.n	1a0012b6 <Chip_SSP_GetClockIndex+0xa>
		clkSSP = CLK_MX_SSP1;
	}
	else {
		clkSSP = CLK_MX_SSP0;
1a0012b2:	2083      	movs	r0, #131	; 0x83
	}

	return clkSSP;
}
1a0012b4:	4770      	bx	lr
		clkSSP = CLK_MX_SSP1;
1a0012b6:	20a5      	movs	r0, #165	; 0xa5
1a0012b8:	4770      	bx	lr
1a0012ba:	bf00      	nop
1a0012bc:	400c5000 	.word	0x400c5000

1a0012c0 <Chip_SSP_GetPeriphClockIndex>:
/* Returns clock index for the peripheral block */
STATIC CHIP_CCU_CLK_T Chip_SSP_GetPeriphClockIndex(LPC_SSP_T *pSSP)
{
	CHIP_CCU_CLK_T clkSSP;

	if (pSSP == LPC_SSP1) {
1a0012c0:	4b04      	ldr	r3, [pc, #16]	; (1a0012d4 <Chip_SSP_GetPeriphClockIndex+0x14>)
1a0012c2:	4298      	cmp	r0, r3
1a0012c4:	d002      	beq.n	1a0012cc <Chip_SSP_GetPeriphClockIndex+0xc>
		clkSSP = CLK_APB2_SSP1;
	}
	else {
		clkSSP = CLK_APB0_SSP0;
1a0012c6:	f240 2002 	movw	r0, #514	; 0x202
	}

	return clkSSP;
}
1a0012ca:	4770      	bx	lr
		clkSSP = CLK_APB2_SSP1;
1a0012cc:	f44f 70f1 	mov.w	r0, #482	; 0x1e2
1a0012d0:	4770      	bx	lr
1a0012d2:	bf00      	nop
1a0012d4:	400c5000 	.word	0x400c5000

1a0012d8 <Chip_SSP_SetClockRate>:

/*Set up output clocks per bit for SSP bus*/
void Chip_SSP_SetClockRate(LPC_SSP_T *pSSP, uint32_t clk_rate, uint32_t prescale)
{
	uint32_t temp;
	temp = pSSP->CR0 & (~(SSP_CR0_SCR(0xFF)));
1a0012d8:	6803      	ldr	r3, [r0, #0]
1a0012da:	f423 437f 	bic.w	r3, r3, #65280	; 0xff00
	pSSP->CR0 = temp | (SSP_CR0_SCR(clk_rate));
1a0012de:	0209      	lsls	r1, r1, #8
1a0012e0:	b289      	uxth	r1, r1
1a0012e2:	4319      	orrs	r1, r3
1a0012e4:	6001      	str	r1, [r0, #0]
	pSSP->CPSR = prescale;
1a0012e6:	6102      	str	r2, [r0, #16]
}
1a0012e8:	4770      	bx	lr

1a0012ea <Chip_SSP_SetBitRate>:
	}
}

/* Set the clock frequency for SSP interface */
void Chip_SSP_SetBitRate(LPC_SSP_T *pSSP, uint32_t bitRate)
{
1a0012ea:	b570      	push	{r4, r5, r6, lr}
1a0012ec:	4606      	mov	r6, r0
1a0012ee:	460d      	mov	r5, r1
	uint32_t ssp_clk, cr0_div, cmp_clk, prescale;

	ssp_clk = Chip_Clock_GetRate(Chip_SSP_GetPeriphClockIndex(pSSP));
1a0012f0:	f7ff ffe6 	bl	1a0012c0 <Chip_SSP_GetPeriphClockIndex>
1a0012f4:	f7ff fec0 	bl	1a001078 <Chip_Clock_GetRate>

	cr0_div = 0;
	cmp_clk = 0xFFFFFFFF;
	prescale = 2;
1a0012f8:	2202      	movs	r2, #2
	cmp_clk = 0xFFFFFFFF;
1a0012fa:	f04f 33ff 	mov.w	r3, #4294967295	; 0xffffffff
	cr0_div = 0;
1a0012fe:	2100      	movs	r1, #0

	while (cmp_clk > bitRate) {
1a001300:	e000      	b.n	1a001304 <Chip_SSP_SetBitRate+0x1a>
		cmp_clk = ssp_clk / ((cr0_div + 1) * prescale);
		if (cmp_clk > bitRate) {
			cr0_div++;
1a001302:	4621      	mov	r1, r4
	while (cmp_clk > bitRate) {
1a001304:	42ab      	cmp	r3, r5
1a001306:	d90b      	bls.n	1a001320 <Chip_SSP_SetBitRate+0x36>
		cmp_clk = ssp_clk / ((cr0_div + 1) * prescale);
1a001308:	1c4c      	adds	r4, r1, #1
1a00130a:	fb02 f304 	mul.w	r3, r2, r4
1a00130e:	fbb0 f3f3 	udiv	r3, r0, r3
		if (cmp_clk > bitRate) {
1a001312:	429d      	cmp	r5, r3
1a001314:	d2f6      	bcs.n	1a001304 <Chip_SSP_SetBitRate+0x1a>
			if (cr0_div > 0xFF) {
1a001316:	2cff      	cmp	r4, #255	; 0xff
1a001318:	d9f3      	bls.n	1a001302 <Chip_SSP_SetBitRate+0x18>
				cr0_div = 0;
				prescale += 2;
1a00131a:	3202      	adds	r2, #2
				cr0_div = 0;
1a00131c:	2100      	movs	r1, #0
1a00131e:	e7f1      	b.n	1a001304 <Chip_SSP_SetBitRate+0x1a>
			}
		}
	}

	Chip_SSP_SetClockRate(pSSP, cr0_div, prescale);
1a001320:	4630      	mov	r0, r6
1a001322:	f7ff ffd9 	bl	1a0012d8 <Chip_SSP_SetClockRate>
}
1a001326:	bd70      	pop	{r4, r5, r6, pc}

1a001328 <Chip_SSP_Init>:

/* Initialize the SSP */
void Chip_SSP_Init(LPC_SSP_T *pSSP)
{
1a001328:	b510      	push	{r4, lr}
1a00132a:	4604      	mov	r4, r0
	Chip_Clock_Enable(Chip_SSP_GetClockIndex(pSSP));
1a00132c:	f7ff ffbe 	bl	1a0012ac <Chip_SSP_GetClockIndex>
1a001330:	f7ff fe6e 	bl	1a001010 <Chip_Clock_Enable>
	Chip_Clock_Enable(Chip_SSP_GetPeriphClockIndex(pSSP));
1a001334:	4620      	mov	r0, r4
1a001336:	f7ff ffc3 	bl	1a0012c0 <Chip_SSP_GetPeriphClockIndex>
1a00133a:	f7ff fe69 	bl	1a001010 <Chip_Clock_Enable>
	pSSP->CR1 = (pSSP->CR1 & ~(1 << 2)) | mode;
1a00133e:	6863      	ldr	r3, [r4, #4]
1a001340:	f023 0304 	bic.w	r3, r3, #4
1a001344:	6063      	str	r3, [r4, #4]
	pSSP->CR0 = (pSSP->CR0 & ~0xFF) | bits | frameFormat | clockMode;
1a001346:	6823      	ldr	r3, [r4, #0]
1a001348:	f023 03ff 	bic.w	r3, r3, #255	; 0xff
1a00134c:	f043 0307 	orr.w	r3, r3, #7
1a001350:	6023      	str	r3, [r4, #0]

	Chip_SSP_Set_Mode(pSSP, SSP_MODE_MASTER);
	Chip_SSP_SetFormat(pSSP, SSP_BITS_8, SSP_FRAMEFORMAT_SPI, SSP_CLOCK_CPHA0_CPOL0);
	Chip_SSP_SetBitRate(pSSP, 100000);
1a001352:	4902      	ldr	r1, [pc, #8]	; (1a00135c <Chip_SSP_Init+0x34>)
1a001354:	4620      	mov	r0, r4
1a001356:	f7ff ffc8 	bl	1a0012ea <Chip_SSP_SetBitRate>
}
1a00135a:	bd10      	pop	{r4, pc}
1a00135c:	000186a0 	.word	0x000186a0

1a001360 <SystemInit>:
 */

#include <board.h>

void SystemInit(void)
{
1a001360:	b508      	push	{r3, lr}
   extern void * const g_pfnVectors[];
   SCB->VTOR = (unsigned int) &g_pfnVectors;
1a001362:	4a0b      	ldr	r2, [pc, #44]	; (1a001390 <SystemInit+0x30>)
1a001364:	4b0b      	ldr	r3, [pc, #44]	; (1a001394 <SystemInit+0x34>)
1a001366:	609a      	str	r2, [r3, #8]
 */
__STATIC_INLINE uint32_t SCB_GetFPUType(void)
{
  uint32_t mvfr0;

  mvfr0 = FPU->MVFR0;
1a001368:	f503 730c 	add.w	r3, r3, #560	; 0x230
1a00136c:	691b      	ldr	r3, [r3, #16]
  if      ((mvfr0 & (FPU_MVFR0_Single_precision_Msk | FPU_MVFR0_Double_precision_Msk)) == 0x020U)
1a00136e:	f403 637f 	and.w	r3, r3, #4080	; 0xff0
1a001372:	2b20      	cmp	r3, #32
1a001374:	d004      	beq.n	1a001380 <SystemInit+0x20>

   if (SCB_GetFPUType() > 0)
      SCB->CPACR |= ((3UL << 10*2)|(3UL << 11*2));  /* set CP10 and CP11 Full Access */

   /* Board specific SystemInit */
   Board_SystemInit();
1a001376:	f7ff fa05 	bl	1a000784 <Board_SystemInit>
   Board_Init();
1a00137a:	f7ff f995 	bl	1a0006a8 <Board_Init>
}
1a00137e:	bd08      	pop	{r3, pc}
      SCB->CPACR |= ((3UL << 10*2)|(3UL << 11*2));  /* set CP10 and CP11 Full Access */
1a001380:	4a04      	ldr	r2, [pc, #16]	; (1a001394 <SystemInit+0x34>)
1a001382:	f8d2 3088 	ldr.w	r3, [r2, #136]	; 0x88
1a001386:	f443 0370 	orr.w	r3, r3, #15728640	; 0xf00000
1a00138a:	f8c2 3088 	str.w	r3, [r2, #136]	; 0x88
1a00138e:	e7f2      	b.n	1a001376 <SystemInit+0x16>
1a001390:	1a000000 	.word	0x1a000000
1a001394:	e000ed00 	.word	0xe000ed00

1a001398 <cyclesCounterInit>:
 * @return TRUE si esta OK, FALSE en caso de error.
 */
bool_t cyclesCounterInit( uint32_t clockSpeed )
{
   //Asigna  a la variable local ClockSpeed el valor recibido como argumento.
   ClockSpeed = clockSpeed;
1a001398:	4b04      	ldr	r3, [pc, #16]	; (1a0013ac <cyclesCounterInit+0x14>)
1a00139a:	6018      	str	r0, [r3, #0]
   //Iniciar el contador de ciclos de clock.
   DWT_CTRL  |= 1; // *DWT_CTRL  |= 1;
1a00139c:	4a04      	ldr	r2, [pc, #16]	; (1a0013b0 <cyclesCounterInit+0x18>)
1a00139e:	6813      	ldr	r3, [r2, #0]
1a0013a0:	f043 0301 	orr.w	r3, r3, #1
1a0013a4:	6013      	str	r3, [r2, #0]
   return TRUE;
}
1a0013a6:	2001      	movs	r0, #1
1a0013a8:	4770      	bx	lr
1a0013aa:	bf00      	nop
1a0013ac:	10001234 	.word	0x10001234
1a0013b0:	e0001000 	.word	0xe0001000

1a0013b4 <uartTxReady>:
   return Chip_UART_ReadLineStatus( lpcUarts[uart].uartAddr ) & UART_LSR_RDR;
}
// Return TRUE if have space in TX FIFO
bool_t uartTxReady( uartMap_t uart )
{
   return Chip_UART_ReadLineStatus( lpcUarts[uart].uartAddr ) & UART_LSR_THRE;
1a0013b4:	eb00 0040 	add.w	r0, r0, r0, lsl #1
1a0013b8:	0083      	lsls	r3, r0, #2
1a0013ba:	4a03      	ldr	r2, [pc, #12]	; (1a0013c8 <uartTxReady+0x14>)
1a0013bc:	58d3      	ldr	r3, [r2, r3]
 * @note	Mask bits of the returned status value with UART_LSR_*
 *			definitions for specific statuses.
 */
STATIC INLINE uint32_t Chip_UART_ReadLineStatus(LPC_USART_T *pUART)
{
	return pUART->LSR;
1a0013be:	6958      	ldr	r0, [r3, #20]
}
1a0013c0:	f000 0020 	and.w	r0, r0, #32
1a0013c4:	4770      	bx	lr
1a0013c6:	bf00      	nop
1a0013c8:	1a00304c 	.word	0x1a00304c

1a0013cc <uartTxWrite>:
   return Chip_UART_ReadByte( lpcUarts[uart].uartAddr );
}
// Write in TX FIFO
void uartTxWrite( uartMap_t uart, const uint8_t value )
{
   Chip_UART_SendByte( lpcUarts[uart].uartAddr, value );
1a0013cc:	eb00 0040 	add.w	r0, r0, r0, lsl #1
1a0013d0:	0083      	lsls	r3, r0, #2
1a0013d2:	4a02      	ldr	r2, [pc, #8]	; (1a0013dc <uartTxWrite+0x10>)
1a0013d4:	58d3      	ldr	r3, [r2, r3]
	pUART->THR = (uint32_t) data;
1a0013d6:	6019      	str	r1, [r3, #0]
}
1a0013d8:	4770      	bx	lr
1a0013da:	bf00      	nop
1a0013dc:	1a00304c 	.word	0x1a00304c

1a0013e0 <uartInit>:

//-------------------------------------------------------------

// UART Initialization
void uartInit( uartMap_t uart, uint32_t baudRate )
{
1a0013e0:	e92d 43f8 	stmdb	sp!, {r3, r4, r5, r6, r7, r8, r9, lr}
1a0013e4:	4680      	mov	r8, r0
1a0013e6:	4689      	mov	r9, r1
   // Initialize UART
   Chip_UART_Init( lpcUarts[uart].uartAddr );
1a0013e8:	4c19      	ldr	r4, [pc, #100]	; (1a001450 <uartInit+0x70>)
1a0013ea:	0045      	lsls	r5, r0, #1
1a0013ec:	182a      	adds	r2, r5, r0
1a0013ee:	0093      	lsls	r3, r2, #2
1a0013f0:	18e6      	adds	r6, r4, r3
1a0013f2:	58e7      	ldr	r7, [r4, r3]
1a0013f4:	4638      	mov	r0, r7
1a0013f6:	f7ff f9e1 	bl	1a0007bc <Chip_UART_Init>
   // Set Baud rate
   Chip_UART_SetBaud( lpcUarts[uart].uartAddr, baudRate );
1a0013fa:	4649      	mov	r1, r9
1a0013fc:	4638      	mov	r0, r7
1a0013fe:	f7ff fa07 	bl	1a000810 <Chip_UART_SetBaud>
	pUART->FCR = fcr;
1a001402:	2307      	movs	r3, #7
1a001404:	60bb      	str	r3, [r7, #8]
	return (uint8_t) (pUART->RBR & UART_RBR_MASKBIT);
1a001406:	683b      	ldr	r3, [r7, #0]
    pUART->TER2 = UART_TER2_TXEN;
1a001408:	2301      	movs	r3, #1
1a00140a:	65fb      	str	r3, [r7, #92]	; 0x5c
   
   // Enable UART Transmission
   Chip_UART_TXEnable( lpcUarts[uart].uartAddr );
   
   // Configure SCU UARTn_TXD pin
   Chip_SCU_PinMux( lpcUarts[uart].txPin.lpcScuPort,
1a00140c:	7930      	ldrb	r0, [r6, #4]
1a00140e:	7973      	ldrb	r3, [r6, #5]
1a001410:	79b2      	ldrb	r2, [r6, #6]
	LPC_SCU->SFSP[port][pin] = modefunc;
1a001412:	f042 0218 	orr.w	r2, r2, #24
1a001416:	490f      	ldr	r1, [pc, #60]	; (1a001454 <uartInit+0x74>)
1a001418:	eb03 1340 	add.w	r3, r3, r0, lsl #5
1a00141c:	f841 2023 	str.w	r2, [r1, r3, lsl #2]
                    lpcUarts[uart].txPin.lpcScuPin,
                    MD_PDN,
                    lpcUarts[uart].txPin.lpcScuFunc );
                    
   // Configure SCU UARTn_RXD pin
   Chip_SCU_PinMux( lpcUarts[uart].rxPin.lpcScuPort,
1a001420:	79f0      	ldrb	r0, [r6, #7]
1a001422:	7a33      	ldrb	r3, [r6, #8]
1a001424:	7a72      	ldrb	r2, [r6, #9]
1a001426:	f042 02d0 	orr.w	r2, r2, #208	; 0xd0
1a00142a:	eb03 1340 	add.w	r3, r3, r0, lsl #5
1a00142e:	f841 2023 	str.w	r2, [r1, r3, lsl #2]
                    lpcUarts[uart].rxPin.lpcScuPin,
                    MD_PLN | MD_EZI | MD_ZI,
                    lpcUarts[uart].rxPin.lpcScuFunc );

   // Specific configurations for RS485
   if( uart == UART_485 ) {
1a001432:	f1b8 0f01 	cmp.w	r8, #1
1a001436:	d001      	beq.n	1a00143c <uartInit+0x5c>
      Chip_SCU_PinMux( lpcUart485DirPin.lpcScuPort,
                       lpcUart485DirPin.lpcScuPin,
                       MD_PDN,
                       lpcUart485DirPin.lpcScuFunc );
   }
}
1a001438:	e8bd 83f8 	ldmia.w	sp!, {r3, r4, r5, r6, r7, r8, r9, pc}
 * @note	Use an Or'ed value of UART_RS485CTRL_* definitions with this
 *			call to set specific options.
 */
STATIC INLINE void Chip_UART_SetRS485Flags(LPC_USART_T *pUART, uint32_t ctrl)
{
	pUART->RS485CTRL |= ctrl;
1a00143c:	4a06      	ldr	r2, [pc, #24]	; (1a001458 <uartInit+0x78>)
1a00143e:	6cd3      	ldr	r3, [r2, #76]	; 0x4c
1a001440:	f043 0330 	orr.w	r3, r3, #48	; 0x30
1a001444:	64d3      	str	r3, [r2, #76]	; 0x4c
1a001446:	221a      	movs	r2, #26
1a001448:	f8c1 2308 	str.w	r2, [r1, #776]	; 0x308
1a00144c:	e7f4      	b.n	1a001438 <uartInit+0x58>
1a00144e:	bf00      	nop
1a001450:	1a00304c 	.word	0x1a00304c
1a001454:	40086000 	.word	0x40086000
1a001458:	40081000 	.word	0x40081000

1a00145c <uartWriteByte>:
   return retVal;
}

// Blocking Write 1 byte to TX FIFO
void uartWriteByte( uartMap_t uart, const uint8_t value )
{
1a00145c:	b538      	push	{r3, r4, r5, lr}
1a00145e:	4604      	mov	r4, r0
1a001460:	460d      	mov	r5, r1
   // Wait for space in FIFO (blocking)
   while( uartTxReady( uart ) == FALSE );
1a001462:	4620      	mov	r0, r4
1a001464:	f7ff ffa6 	bl	1a0013b4 <uartTxReady>
1a001468:	2800      	cmp	r0, #0
1a00146a:	d0fa      	beq.n	1a001462 <uartWriteByte+0x6>
   // Send byte
   uartTxWrite( uart, value );
1a00146c:	4629      	mov	r1, r5
1a00146e:	4620      	mov	r0, r4
1a001470:	f7ff ffac 	bl	1a0013cc <uartTxWrite>
}
1a001474:	bd38      	pop	{r3, r4, r5, pc}

1a001476 <uartWriteByteArray>:
}

// Blocking, Send a Byte Array
void uartWriteByteArray( uartMap_t uart,
                         const uint8_t* byteArray, uint32_t byteArrayLen )
{
1a001476:	b5f8      	push	{r3, r4, r5, r6, r7, lr}
1a001478:	4607      	mov	r7, r0
1a00147a:	460e      	mov	r6, r1
1a00147c:	4615      	mov	r5, r2
   uint32_t i = 0;
   for( i=0; i<byteArrayLen; i++ ) {
1a00147e:	2400      	movs	r4, #0
1a001480:	e004      	b.n	1a00148c <uartWriteByteArray+0x16>
      uartWriteByte( uart, byteArray[i] );
1a001482:	5d31      	ldrb	r1, [r6, r4]
1a001484:	4638      	mov	r0, r7
1a001486:	f7ff ffe9 	bl	1a00145c <uartWriteByte>
   for( i=0; i<byteArrayLen; i++ ) {
1a00148a:	3401      	adds	r4, #1
1a00148c:	42ac      	cmp	r4, r5
1a00148e:	d3f8      	bcc.n	1a001482 <uartWriteByteArray+0xc>
   }
}
1a001490:	bdf8      	pop	{r3, r4, r5, r6, r7, pc}
1a001492:	Address 0x000000001a001492 is out of bounds.


1a001494 <tickPowerSet>:
void tickPowerSet( bool_t power )
{
   #ifdef USE_FREERTOS
      uartWriteString( UART_USB, "Use of tickPowerSet() in a program with freeRTOS has no effect\r\n" );
   #else
      if( power ) {
1a001494:	b918      	cbnz	r0, 1a00149e <tickPowerSet+0xa>
         SysTick->CTRL = SysTick_CTRL_CLKSOURCE_Msk |
                         SysTick_CTRL_TICKINT_Msk   |
                         SysTick_CTRL_ENABLE_Msk;
      } else {
         // Disable SysTick IRQ and SysTick Timer
         SysTick->CTRL = 0x0000000;
1a001496:	4b04      	ldr	r3, [pc, #16]	; (1a0014a8 <tickPowerSet+0x14>)
1a001498:	2200      	movs	r2, #0
1a00149a:	601a      	str	r2, [r3, #0]
      }
   #endif
}
1a00149c:	4770      	bx	lr
         SysTick->CTRL = SysTick_CTRL_CLKSOURCE_Msk |
1a00149e:	4b02      	ldr	r3, [pc, #8]	; (1a0014a8 <tickPowerSet+0x14>)
1a0014a0:	2207      	movs	r2, #7
1a0014a2:	601a      	str	r2, [r3, #0]
1a0014a4:	4770      	bx	lr
1a0014a6:	bf00      	nop
1a0014a8:	e000e010 	.word	0xe000e010

1a0014ac <tickInit>:
{
1a0014ac:	b538      	push	{r3, r4, r5, lr}
      if( tickRateMSvalue == 0 ) {
1a0014ae:	ea50 0301 	orrs.w	r3, r0, r1
1a0014b2:	d02a      	beq.n	1a00150a <tickInit+0x5e>
         if( (tickRateMSvalue >= 1) && (tickRateMSvalue <= 50) ) {
1a0014b4:	f110 32ff 	adds.w	r2, r0, #4294967295	; 0xffffffff
1a0014b8:	f141 33ff 	adc.w	r3, r1, #4294967295	; 0xffffffff
1a0014bc:	2b00      	cmp	r3, #0
1a0014be:	bf08      	it	eq
1a0014c0:	2a32      	cmpeq	r2, #50	; 0x32
1a0014c2:	d227      	bcs.n	1a001514 <tickInit+0x68>
            tickRateMS = tickRateMSvalue;
1a0014c4:	4b14      	ldr	r3, [pc, #80]	; (1a001518 <tickInit+0x6c>)
1a0014c6:	e9c3 0100 	strd	r0, r1, [r3]
            SysTick_Config( SystemCoreClock * tickRateMSvalue / 1000 );
1a0014ca:	4b14      	ldr	r3, [pc, #80]	; (1a00151c <tickInit+0x70>)
1a0014cc:	681b      	ldr	r3, [r3, #0]
1a0014ce:	fba3 4500 	umull	r4, r5, r3, r0
1a0014d2:	fb03 5501 	mla	r5, r3, r1, r5
1a0014d6:	f44f 727a 	mov.w	r2, #1000	; 0x3e8
1a0014da:	2300      	movs	r3, #0
1a0014dc:	4620      	mov	r0, r4
1a0014de:	4629      	mov	r1, r5
1a0014e0:	f001 fb06 	bl	1a002af0 <__aeabi_uldivmod>
           function <b>SysTick_Config</b> is not included. In this case, the file <b><i>device</i>.h</b>
           must contain a vendor-specific implementation of this function.
 */
__STATIC_INLINE uint32_t SysTick_Config(uint32_t ticks)
{
  if ((ticks - 1UL) > SysTick_LOAD_RELOAD_Msk)
1a0014e4:	3801      	subs	r0, #1
1a0014e6:	f1b0 7f80 	cmp.w	r0, #16777216	; 0x1000000
1a0014ea:	d209      	bcs.n	1a001500 <tickInit+0x54>
  {
    return (1UL);                                                   /* Reload value impossible */
  }

  SysTick->LOAD  = (uint32_t)(ticks - 1UL);                         /* set reload register */
1a0014ec:	4b0c      	ldr	r3, [pc, #48]	; (1a001520 <tickInit+0x74>)
1a0014ee:	6058      	str	r0, [r3, #4]
    SCB->SHP[(((uint32_t)IRQn) & 0xFUL)-4UL] = (uint8_t)((priority << (8U - __NVIC_PRIO_BITS)) & (uint32_t)0xFFUL);
1a0014f0:	4a0c      	ldr	r2, [pc, #48]	; (1a001524 <tickInit+0x78>)
1a0014f2:	21e0      	movs	r1, #224	; 0xe0
1a0014f4:	f882 1023 	strb.w	r1, [r2, #35]	; 0x23
  NVIC_SetPriority (SysTick_IRQn, (1UL << __NVIC_PRIO_BITS) - 1UL); /* set Priority for Systick Interrupt */
  SysTick->VAL   = 0UL;                                             /* Load the SysTick Counter Value */
1a0014f8:	2200      	movs	r2, #0
1a0014fa:	609a      	str	r2, [r3, #8]
  SysTick->CTRL  = SysTick_CTRL_CLKSOURCE_Msk |
1a0014fc:	2207      	movs	r2, #7
1a0014fe:	601a      	str	r2, [r3, #0]
            tickPowerSet( ON );
1a001500:	2001      	movs	r0, #1
1a001502:	f7ff ffc7 	bl	1a001494 <tickPowerSet>
      bool_t ret_val = 1;
1a001506:	2001      	movs	r0, #1
}
1a001508:	bd38      	pop	{r3, r4, r5, pc}
         tickPowerSet( OFF );
1a00150a:	2000      	movs	r0, #0
1a00150c:	f7ff ffc2 	bl	1a001494 <tickPowerSet>
         ret_val = 0;
1a001510:	2000      	movs	r0, #0
1a001512:	e7f9      	b.n	1a001508 <tickInit+0x5c>
            ret_val = 0;
1a001514:	2000      	movs	r0, #0
1a001516:	e7f7      	b.n	1a001508 <tickInit+0x5c>
1a001518:	10001238 	.word	0x10001238
1a00151c:	10005a84 	.word	0x10005a84
1a001520:	e000e010 	.word	0xe000e010
1a001524:	e000ed00 	.word	0xe000ed00

1a001528 <SysTick_Handler>:

//__attribute__ ((section(".after_vectors")))

// SysTick Timer ISR Handler
void tickerCallback( void )   // Before SysTick_Handler
{
1a001528:	e92d 4800 	stmdb	sp!, {fp, lr}
   // Increment Tick counters
   tickCounter++;
1a00152c:	4908      	ldr	r1, [pc, #32]	; (1a001550 <SysTick_Handler+0x28>)
1a00152e:	e9d1 2300 	ldrd	r2, r3, [r1]
1a001532:	f112 0b01 	adds.w	fp, r2, #1
1a001536:	f143 0c00 	adc.w	ip, r3, #0
1a00153a:	e9c1 bc00 	strd	fp, ip, [r1]
   // Execute Tick Hook function if pointer is not NULL
   if( (tickHookFunction != NULL) ) {
1a00153e:	4b05      	ldr	r3, [pc, #20]	; (1a001554 <SysTick_Handler+0x2c>)
1a001540:	681b      	ldr	r3, [r3, #0]
1a001542:	b113      	cbz	r3, 1a00154a <SysTick_Handler+0x22>
      (* tickHookFunction )( callBackFuncParams );
1a001544:	4a04      	ldr	r2, [pc, #16]	; (1a001558 <SysTick_Handler+0x30>)
1a001546:	6810      	ldr	r0, [r2, #0]
1a001548:	4798      	blx	r3
   }
}
1a00154a:	e8bd 8800 	ldmia.w	sp!, {fp, pc}
1a00154e:	bf00      	nop
1a001550:	10001258 	.word	0x10001258
1a001554:	10001260 	.word	0x10001260
1a001558:	10001254 	.word	0x10001254

1a00155c <adcInit>:
 * @brief:  enable/disable the ADC and DAC peripheral
 * @param:  ADC_ENABLE, ADC_DISABLE
 * @return: none
*/
void adcInit( adcInit_t config )
{
1a00155c:	b530      	push	{r4, r5, lr}
1a00155e:	b083      	sub	sp, #12
   T_FIL3  ---- 7   ADC0_0 (ANALOG_SEL)
   T_COL1  ---- 132 ADC0_4 (ANALOG_SEL)
   ENET_MDC --- 140 ADC1_6 (ANALOG_SEL)
   */
   
   switch(config) {
1a001560:	b118      	cbz	r0, 1a00156a <adcInit+0xe>
1a001562:	2801      	cmp	r0, #1
1a001564:	d04a      	beq.n	1a0015fc <adcInit+0xa0>
         /* Disable ADC peripheral */
         Chip_ADC_DeInit( LPC_ADC0 );
         break;
      }

}
1a001566:	b003      	add	sp, #12
1a001568:	bd30      	pop	{r4, r5, pc}
         ADC_CLOCK_SETUP_T ADCSetup = {
1a00156a:	4b26      	ldr	r3, [pc, #152]	; (1a001604 <adcInit+0xa8>)
1a00156c:	466d      	mov	r5, sp
1a00156e:	e893 0003 	ldmia.w	r3, {r0, r1}
1a001572:	e885 0003 	stmia.w	r5, {r0, r1}
         Chip_ADC_Init( LPC_ADC0, &ADCSetup );
1a001576:	4c24      	ldr	r4, [pc, #144]	; (1a001608 <adcInit+0xac>)
1a001578:	4629      	mov	r1, r5
1a00157a:	4620      	mov	r0, r4
1a00157c:	f7ff fa12 	bl	1a0009a4 <Chip_ADC_Init>
         Chip_ADC_SetBurstCmd( LPC_ADC0, DISABLE );
1a001580:	2100      	movs	r1, #0
1a001582:	4620      	mov	r0, r4
1a001584:	f7ff faab 	bl	1a000ade <Chip_ADC_SetBurstCmd>
         Chip_ADC_SetSampleRate( LPC_ADC0, &ADCSetup, ADC_MAX_SAMPLE_RATE/2 );
1a001588:	4a20      	ldr	r2, [pc, #128]	; (1a00160c <adcInit+0xb0>)
1a00158a:	4629      	mov	r1, r5
1a00158c:	4620      	mov	r0, r4
1a00158e:	f7ff fa73 	bl	1a000a78 <Chip_ADC_SetSampleRate>
         Chip_ADC_EnableChannel( LPC_ADC0, ADC_CH1, DISABLE );
1a001592:	2200      	movs	r2, #0
1a001594:	2101      	movs	r1, #1
1a001596:	4620      	mov	r0, r4
1a001598:	f7ff fa8d 	bl	1a000ab6 <Chip_ADC_EnableChannel>
         Chip_ADC_Int_SetChannelCmd( LPC_ADC0, ADC_CH1, DISABLE );
1a00159c:	2200      	movs	r2, #0
1a00159e:	2101      	movs	r1, #1
1a0015a0:	4620      	mov	r0, r4
1a0015a2:	f7ff fa49 	bl	1a000a38 <Chip_ADC_Int_SetChannelCmd>
         Chip_ADC_EnableChannel( LPC_ADC0, ADC_CH2, DISABLE );
1a0015a6:	2200      	movs	r2, #0
1a0015a8:	2102      	movs	r1, #2
1a0015aa:	4620      	mov	r0, r4
1a0015ac:	f7ff fa83 	bl	1a000ab6 <Chip_ADC_EnableChannel>
         Chip_ADC_Int_SetChannelCmd( LPC_ADC0, ADC_CH2, DISABLE );
1a0015b0:	2200      	movs	r2, #0
1a0015b2:	2102      	movs	r1, #2
1a0015b4:	4620      	mov	r0, r4
1a0015b6:	f7ff fa3f 	bl	1a000a38 <Chip_ADC_Int_SetChannelCmd>
         Chip_ADC_EnableChannel( LPC_ADC0, ADC_CH3, DISABLE );
1a0015ba:	2200      	movs	r2, #0
1a0015bc:	2103      	movs	r1, #3
1a0015be:	4620      	mov	r0, r4
1a0015c0:	f7ff fa79 	bl	1a000ab6 <Chip_ADC_EnableChannel>
         Chip_ADC_Int_SetChannelCmd( LPC_ADC0, ADC_CH3, DISABLE );
1a0015c4:	2200      	movs	r2, #0
1a0015c6:	2103      	movs	r1, #3
1a0015c8:	4620      	mov	r0, r4
1a0015ca:	f7ff fa35 	bl	1a000a38 <Chip_ADC_Int_SetChannelCmd>
         Chip_ADC_EnableChannel( LPC_ADC0, ADC_CH4, DISABLE );
1a0015ce:	2200      	movs	r2, #0
1a0015d0:	2104      	movs	r1, #4
1a0015d2:	4620      	mov	r0, r4
1a0015d4:	f7ff fa6f 	bl	1a000ab6 <Chip_ADC_EnableChannel>
         Chip_ADC_Int_SetChannelCmd( LPC_ADC0, ADC_CH4, DISABLE );
1a0015d8:	2200      	movs	r2, #0
1a0015da:	2104      	movs	r1, #4
1a0015dc:	4620      	mov	r0, r4
1a0015de:	f7ff fa2b 	bl	1a000a38 <Chip_ADC_Int_SetChannelCmd>
	LPC_SCU->ENAIO[ADC_ID] |= 1UL << channel;
1a0015e2:	4a0b      	ldr	r2, [pc, #44]	; (1a001610 <adcInit+0xb4>)
1a0015e4:	f8d2 3c88 	ldr.w	r3, [r2, #3208]	; 0xc88
1a0015e8:	f043 0310 	orr.w	r3, r3, #16
1a0015ec:	f8c2 3c88 	str.w	r3, [r2, #3208]	; 0xc88
         Chip_ADC_Int_SetChannelCmd( LPC_ADC0, ADC_CH5, DISABLE ); // Revisar codigo
1a0015f0:	2200      	movs	r2, #0
1a0015f2:	2105      	movs	r1, #5
1a0015f4:	4620      	mov	r0, r4
1a0015f6:	f7ff fa1f 	bl	1a000a38 <Chip_ADC_Int_SetChannelCmd>
      break;
1a0015fa:	e7b4      	b.n	1a001566 <adcInit+0xa>
         Chip_ADC_DeInit( LPC_ADC0 );
1a0015fc:	4802      	ldr	r0, [pc, #8]	; (1a001608 <adcInit+0xac>)
1a0015fe:	f7ff f9f1 	bl	1a0009e4 <Chip_ADC_DeInit>
}
1a001602:	e7b0      	b.n	1a001566 <adcInit+0xa>
1a001604:	1a003094 	.word	0x1a003094
1a001608:	400e3000 	.word	0x400e3000
1a00160c:	00030d40 	.word	0x00030d40
1a001610:	40086000 	.word	0x40086000

1a001614 <adcRead>:
 * @brief   Get the value of one ADC channel. Mode: BLOCKING
 * @param   AI0 ... AIn
 * @return  analog value
 */
uint16_t adcRead( adcMap_t analogInput )
{
1a001614:	b570      	push	{r4, r5, r6, lr}
1a001616:	b082      	sub	sp, #8
   uint8_t lpcAdcChannel = analogInput + 1;
1a001618:	3001      	adds	r0, #1
1a00161a:	b2c4      	uxtb	r4, r0
   uint16_t analogValue = 0;
1a00161c:	2600      	movs	r6, #0
1a00161e:	f8ad 6006 	strh.w	r6, [sp, #6]

   // Enable channel
   Chip_ADC_EnableChannel(LPC_ADC0, lpcAdcChannel, ENABLE);
1a001622:	4d11      	ldr	r5, [pc, #68]	; (1a001668 <adcRead+0x54>)
1a001624:	2201      	movs	r2, #1
1a001626:	4621      	mov	r1, r4
1a001628:	4628      	mov	r0, r5
1a00162a:	f7ff fa44 	bl	1a000ab6 <Chip_ADC_EnableChannel>

   // Start conversion
   Chip_ADC_SetStartMode(LPC_ADC0, ADC_START_NOW, ADC_TRIGGERMODE_RISING);
1a00162e:	4632      	mov	r2, r6
1a001630:	2101      	movs	r1, #1
1a001632:	4628      	mov	r0, r5
1a001634:	f7ff fa10 	bl	1a000a58 <Chip_ADC_SetStartMode>

   // Wait for conversion complete
   while(
      (Chip_ADC_ReadStatus(LPC_ADC0, lpcAdcChannel, ADC_DR_DONE_STAT) != SET)
1a001638:	2200      	movs	r2, #0
1a00163a:	4621      	mov	r1, r4
1a00163c:	480a      	ldr	r0, [pc, #40]	; (1a001668 <adcRead+0x54>)
1a00163e:	f7ff f9e0 	bl	1a000a02 <Chip_ADC_ReadStatus>
   while(
1a001642:	2801      	cmp	r0, #1
1a001644:	d1f8      	bne.n	1a001638 <adcRead+0x24>
   );

   // Enable Read value
   Chip_ADC_ReadValue( LPC_ADC0, lpcAdcChannel, &analogValue );
1a001646:	4d08      	ldr	r5, [pc, #32]	; (1a001668 <adcRead+0x54>)
1a001648:	f10d 0206 	add.w	r2, sp, #6
1a00164c:	4621      	mov	r1, r4
1a00164e:	4628      	mov	r0, r5
1a001650:	f7ff f9d3 	bl	1a0009fa <Chip_ADC_ReadValue>

   // Disable channel
   Chip_ADC_EnableChannel( LPC_ADC0, lpcAdcChannel, DISABLE );
1a001654:	2200      	movs	r2, #0
1a001656:	4621      	mov	r1, r4
1a001658:	4628      	mov	r0, r5
1a00165a:	f7ff fa2c 	bl	1a000ab6 <Chip_ADC_EnableChannel>

   return analogValue;
}
1a00165e:	f8bd 0006 	ldrh.w	r0, [sp, #6]
1a001662:	b002      	add	sp, #8
1a001664:	bd70      	pop	{r4, r5, r6, pc}
1a001666:	bf00      	nop
1a001668:	400e3000 	.word	0x400e3000

1a00166c <gpioObtainPinInit>:

static void gpioObtainPinInit( gpioMap_t pin,
                               int8_t *pinNamePort, int8_t *pinNamePin,
                               int8_t *func, int8_t *gpioPort,
                               int8_t *gpioPin )
{
1a00166c:	b430      	push	{r4, r5}

   *pinNamePort = gpioPinsInit[pin].pinName.port;
1a00166e:	4d0b      	ldr	r5, [pc, #44]	; (1a00169c <gpioObtainPinInit+0x30>)
1a001670:	eb00 0080 	add.w	r0, r0, r0, lsl #2
1a001674:	182c      	adds	r4, r5, r0
1a001676:	5628      	ldrsb	r0, [r5, r0]
1a001678:	7008      	strb	r0, [r1, #0]
   *pinNamePin  = gpioPinsInit[pin].pinName.pin;
1a00167a:	f994 1001 	ldrsb.w	r1, [r4, #1]
1a00167e:	7011      	strb	r1, [r2, #0]
   *func        = gpioPinsInit[pin].func;
1a001680:	f994 2002 	ldrsb.w	r2, [r4, #2]
1a001684:	701a      	strb	r2, [r3, #0]
   *gpioPort    = gpioPinsInit[pin].gpio.port;
1a001686:	f994 2003 	ldrsb.w	r2, [r4, #3]
1a00168a:	9b02      	ldr	r3, [sp, #8]
1a00168c:	701a      	strb	r2, [r3, #0]
   *gpioPin     = gpioPinsInit[pin].gpio.pin;
1a00168e:	f994 2004 	ldrsb.w	r2, [r4, #4]
1a001692:	9b03      	ldr	r3, [sp, #12]
1a001694:	701a      	strb	r2, [r3, #0]
}
1a001696:	bc30      	pop	{r4, r5}
1a001698:	4770      	bx	lr
1a00169a:	bf00      	nop
1a00169c:	1a00309c 	.word	0x1a00309c

1a0016a0 <gpioInit>:

/*==================[external functions definition]==========================*/

bool_t gpioInit( gpioMap_t pin, gpioInit_t config )
{
   if( pin == VCC ){
1a0016a0:	f110 0f02 	cmn.w	r0, #2
1a0016a4:	f000 80c7 	beq.w	1a001836 <gpioInit+0x196>
	  return FALSE;
   }
   if( pin == GND ){
1a0016a8:	f1b0 3fff 	cmp.w	r0, #4294967295	; 0xffffffff
1a0016ac:	f000 80c5 	beq.w	1a00183a <gpioInit+0x19a>
{
1a0016b0:	b570      	push	{r4, r5, r6, lr}
1a0016b2:	b084      	sub	sp, #16
1a0016b4:	460c      	mov	r4, r1
	  return FALSE;
   }

   bool_t ret_val     = 1;

   int8_t pinNamePort = 0;
1a0016b6:	2300      	movs	r3, #0
1a0016b8:	f88d 300f 	strb.w	r3, [sp, #15]
   int8_t pinNamePin  = 0;
1a0016bc:	f88d 300e 	strb.w	r3, [sp, #14]

   int8_t func        = 0;
1a0016c0:	f88d 300d 	strb.w	r3, [sp, #13]

   int8_t gpioPort    = 0;
1a0016c4:	f88d 300c 	strb.w	r3, [sp, #12]
   int8_t gpioPin     = 0;
1a0016c8:	f88d 300b 	strb.w	r3, [sp, #11]

   gpioObtainPinInit( pin, &pinNamePort, &pinNamePin, &func,
1a0016cc:	f10d 030b 	add.w	r3, sp, #11
1a0016d0:	9301      	str	r3, [sp, #4]
1a0016d2:	ab03      	add	r3, sp, #12
1a0016d4:	9300      	str	r3, [sp, #0]
1a0016d6:	f10d 030d 	add.w	r3, sp, #13
1a0016da:	f10d 020e 	add.w	r2, sp, #14
1a0016de:	f10d 010f 	add.w	r1, sp, #15
1a0016e2:	f7ff ffc3 	bl	1a00166c <gpioObtainPinInit>
                      &gpioPort, &gpioPin );

   switch(config) {
1a0016e6:	2c05      	cmp	r4, #5
1a0016e8:	f200 80a9 	bhi.w	1a00183e <gpioInit+0x19e>
1a0016ec:	e8df f004 	tbb	[pc, r4]
1a0016f0:	45278109 	.word	0x45278109
1a0016f4:	0363      	.short	0x0363

   case GPIO_ENABLE:
      /* Initializes GPIO */
      Chip_GPIO_Init(LPC_GPIO_PORT);
1a0016f6:	4853      	ldr	r0, [pc, #332]	; (1a001844 <gpioInit+0x1a4>)
1a0016f8:	f7ff fd98 	bl	1a00122c <Chip_GPIO_Init>
   bool_t ret_val     = 1;
1a0016fc:	2001      	movs	r0, #1
      break;
   }

   return ret_val;

}
1a0016fe:	b004      	add	sp, #16
1a001700:	bd70      	pop	{r4, r5, r6, pc}
      Chip_SCU_PinMux(
1a001702:	f89d 100f 	ldrb.w	r1, [sp, #15]
1a001706:	f89d 300e 	ldrb.w	r3, [sp, #14]
1a00170a:	f89d 200d 	ldrb.w	r2, [sp, #13]
	LPC_SCU->SFSP[port][pin] = modefunc;
1a00170e:	f042 02d0 	orr.w	r2, r2, #208	; 0xd0
1a001712:	eb03 1341 	add.w	r3, r3, r1, lsl #5
1a001716:	494c      	ldr	r1, [pc, #304]	; (1a001848 <gpioInit+0x1a8>)
1a001718:	f841 2023 	str.w	r2, [r1, r3, lsl #2]
      Chip_GPIO_SetDir( LPC_GPIO_PORT, gpioPort, ( 1 << gpioPin ), GPIO_INPUT );
1a00171c:	f89d 300c 	ldrb.w	r3, [sp, #12]
1a001720:	f99d 200b 	ldrsb.w	r2, [sp, #11]
1a001724:	2001      	movs	r0, #1
1a001726:	fa00 f102 	lsl.w	r1, r0, r2
{
	if (out) {
		pGPIO->DIR[portNum] |= bitValue;
	}
	else {
		pGPIO->DIR[portNum] &= ~bitValue;
1a00172a:	4c46      	ldr	r4, [pc, #280]	; (1a001844 <gpioInit+0x1a4>)
1a00172c:	f503 6300 	add.w	r3, r3, #2048	; 0x800
1a001730:	f854 2023 	ldr.w	r2, [r4, r3, lsl #2]
1a001734:	ea22 0201 	bic.w	r2, r2, r1
1a001738:	f844 2023 	str.w	r2, [r4, r3, lsl #2]
1a00173c:	e7df      	b.n	1a0016fe <gpioInit+0x5e>
      Chip_SCU_PinMux(
1a00173e:	f89d 100f 	ldrb.w	r1, [sp, #15]
1a001742:	f89d 300e 	ldrb.w	r3, [sp, #14]
1a001746:	f89d 200d 	ldrb.w	r2, [sp, #13]
1a00174a:	f042 02c0 	orr.w	r2, r2, #192	; 0xc0
1a00174e:	eb03 1341 	add.w	r3, r3, r1, lsl #5
1a001752:	493d      	ldr	r1, [pc, #244]	; (1a001848 <gpioInit+0x1a8>)
1a001754:	f841 2023 	str.w	r2, [r1, r3, lsl #2]
      Chip_GPIO_SetDir( LPC_GPIO_PORT, gpioPort, ( 1 << gpioPin ), GPIO_INPUT );
1a001758:	f89d 300c 	ldrb.w	r3, [sp, #12]
1a00175c:	f99d 200b 	ldrsb.w	r2, [sp, #11]
1a001760:	2001      	movs	r0, #1
1a001762:	fa00 f102 	lsl.w	r1, r0, r2
1a001766:	4c37      	ldr	r4, [pc, #220]	; (1a001844 <gpioInit+0x1a4>)
1a001768:	f503 6300 	add.w	r3, r3, #2048	; 0x800
1a00176c:	f854 2023 	ldr.w	r2, [r4, r3, lsl #2]
1a001770:	ea22 0201 	bic.w	r2, r2, r1
1a001774:	f844 2023 	str.w	r2, [r4, r3, lsl #2]
1a001778:	e7c1      	b.n	1a0016fe <gpioInit+0x5e>
      Chip_SCU_PinMux(
1a00177a:	f89d 100f 	ldrb.w	r1, [sp, #15]
1a00177e:	f89d 300e 	ldrb.w	r3, [sp, #14]
1a001782:	f89d 200d 	ldrb.w	r2, [sp, #13]
1a001786:	f042 02d8 	orr.w	r2, r2, #216	; 0xd8
1a00178a:	eb03 1341 	add.w	r3, r3, r1, lsl #5
1a00178e:	492e      	ldr	r1, [pc, #184]	; (1a001848 <gpioInit+0x1a8>)
1a001790:	f841 2023 	str.w	r2, [r1, r3, lsl #2]
      Chip_GPIO_SetDir( LPC_GPIO_PORT, gpioPort, ( 1 << gpioPin ), GPIO_INPUT );
1a001794:	f89d 300c 	ldrb.w	r3, [sp, #12]
1a001798:	f99d 200b 	ldrsb.w	r2, [sp, #11]
1a00179c:	2001      	movs	r0, #1
1a00179e:	fa00 f102 	lsl.w	r1, r0, r2
1a0017a2:	4c28      	ldr	r4, [pc, #160]	; (1a001844 <gpioInit+0x1a4>)
1a0017a4:	f503 6300 	add.w	r3, r3, #2048	; 0x800
1a0017a8:	f854 2023 	ldr.w	r2, [r4, r3, lsl #2]
1a0017ac:	ea22 0201 	bic.w	r2, r2, r1
1a0017b0:	f844 2023 	str.w	r2, [r4, r3, lsl #2]
1a0017b4:	e7a3      	b.n	1a0016fe <gpioInit+0x5e>
      Chip_SCU_PinMux(
1a0017b6:	f89d 100f 	ldrb.w	r1, [sp, #15]
1a0017ba:	f89d 300e 	ldrb.w	r3, [sp, #14]
1a0017be:	f89d 200d 	ldrb.w	r2, [sp, #13]
1a0017c2:	f042 02c8 	orr.w	r2, r2, #200	; 0xc8
1a0017c6:	eb03 1341 	add.w	r3, r3, r1, lsl #5
1a0017ca:	491f      	ldr	r1, [pc, #124]	; (1a001848 <gpioInit+0x1a8>)
1a0017cc:	f841 2023 	str.w	r2, [r1, r3, lsl #2]
      Chip_GPIO_SetDir( LPC_GPIO_PORT, gpioPort, ( 1 << gpioPin ), GPIO_INPUT );
1a0017d0:	f89d 300c 	ldrb.w	r3, [sp, #12]
1a0017d4:	f99d 200b 	ldrsb.w	r2, [sp, #11]
1a0017d8:	2001      	movs	r0, #1
1a0017da:	fa00 f102 	lsl.w	r1, r0, r2
1a0017de:	4c19      	ldr	r4, [pc, #100]	; (1a001844 <gpioInit+0x1a4>)
1a0017e0:	f503 6300 	add.w	r3, r3, #2048	; 0x800
1a0017e4:	f854 2023 	ldr.w	r2, [r4, r3, lsl #2]
1a0017e8:	ea22 0201 	bic.w	r2, r2, r1
1a0017ec:	f844 2023 	str.w	r2, [r4, r3, lsl #2]
1a0017f0:	e785      	b.n	1a0016fe <gpioInit+0x5e>
      Chip_SCU_PinMux(
1a0017f2:	f89d 100f 	ldrb.w	r1, [sp, #15]
1a0017f6:	f89d 300e 	ldrb.w	r3, [sp, #14]
1a0017fa:	f89d 200d 	ldrb.w	r2, [sp, #13]
1a0017fe:	f042 02d0 	orr.w	r2, r2, #208	; 0xd0
1a001802:	eb03 1341 	add.w	r3, r3, r1, lsl #5
1a001806:	4910      	ldr	r1, [pc, #64]	; (1a001848 <gpioInit+0x1a8>)
1a001808:	f841 2023 	str.w	r2, [r1, r3, lsl #2]
      Chip_GPIO_SetDir( LPC_GPIO_PORT, gpioPort, ( 1 << gpioPin ), GPIO_OUTPUT );
1a00180c:	f89d 400c 	ldrb.w	r4, [sp, #12]
1a001810:	f99d 200b 	ldrsb.w	r2, [sp, #11]
1a001814:	2001      	movs	r0, #1
1a001816:	fa00 f102 	lsl.w	r1, r0, r2
		pGPIO->DIR[portNum] |= bitValue;
1a00181a:	4b0a      	ldr	r3, [pc, #40]	; (1a001844 <gpioInit+0x1a4>)
1a00181c:	f504 6500 	add.w	r5, r4, #2048	; 0x800
1a001820:	f853 6025 	ldr.w	r6, [r3, r5, lsl #2]
1a001824:	4331      	orrs	r1, r6
1a001826:	f843 1025 	str.w	r1, [r3, r5, lsl #2]
      Chip_GPIO_SetPinState( LPC_GPIO_PORT, gpioPort, gpioPin, 0);
1a00182a:	b2d2      	uxtb	r2, r2
	pGPIO->B[port][pin] = setting;
1a00182c:	eb03 1344 	add.w	r3, r3, r4, lsl #5
1a001830:	2100      	movs	r1, #0
1a001832:	5499      	strb	r1, [r3, r2]
1a001834:	e763      	b.n	1a0016fe <gpioInit+0x5e>
	  return FALSE;
1a001836:	2000      	movs	r0, #0
1a001838:	4770      	bx	lr
	  return FALSE;
1a00183a:	2000      	movs	r0, #0
}
1a00183c:	4770      	bx	lr
      ret_val = 0;
1a00183e:	2000      	movs	r0, #0
1a001840:	e75d      	b.n	1a0016fe <gpioInit+0x5e>
1a001842:	bf00      	nop
1a001844:	400f4000 	.word	0x400f4000
1a001848:	40086000 	.word	0x40086000

1a00184c <gpioWrite>:


bool_t gpioWrite( gpioMap_t pin, bool_t value )
{
   if( pin == VCC ){
1a00184c:	f110 0f02 	cmn.w	r0, #2
1a001850:	d02d      	beq.n	1a0018ae <gpioWrite+0x62>
	  return FALSE;
   }
   if( pin == GND ){
1a001852:	f1b0 3fff 	cmp.w	r0, #4294967295	; 0xffffffff
1a001856:	d02c      	beq.n	1a0018b2 <gpioWrite+0x66>
{
1a001858:	b510      	push	{r4, lr}
1a00185a:	b084      	sub	sp, #16
1a00185c:	460c      	mov	r4, r1
	  return FALSE;
   }

   bool_t ret_val     = 1;

   int8_t pinNamePort = 0;
1a00185e:	2300      	movs	r3, #0
1a001860:	f88d 300f 	strb.w	r3, [sp, #15]
   int8_t pinNamePin  = 0;
1a001864:	f88d 300e 	strb.w	r3, [sp, #14]

   int8_t func        = 0;
1a001868:	f88d 300d 	strb.w	r3, [sp, #13]

   int8_t gpioPort    = 0;
1a00186c:	f88d 300c 	strb.w	r3, [sp, #12]
   int8_t gpioPin     = 0;
1a001870:	f88d 300b 	strb.w	r3, [sp, #11]

   gpioObtainPinInit( pin, &pinNamePort, &pinNamePin, &func,
1a001874:	f10d 030b 	add.w	r3, sp, #11
1a001878:	9301      	str	r3, [sp, #4]
1a00187a:	ab03      	add	r3, sp, #12
1a00187c:	9300      	str	r3, [sp, #0]
1a00187e:	f10d 030d 	add.w	r3, sp, #13
1a001882:	f10d 020e 	add.w	r2, sp, #14
1a001886:	f10d 010f 	add.w	r1, sp, #15
1a00188a:	f7ff feef 	bl	1a00166c <gpioObtainPinInit>
                      &gpioPort, &gpioPin );

   Chip_GPIO_SetPinState( LPC_GPIO_PORT, gpioPort, gpioPin, value);
1a00188e:	f89d 300c 	ldrb.w	r3, [sp, #12]
1a001892:	f89d 200b 	ldrb.w	r2, [sp, #11]
1a001896:	1c21      	adds	r1, r4, #0
1a001898:	bf18      	it	ne
1a00189a:	2101      	movne	r1, #1
1a00189c:	015b      	lsls	r3, r3, #5
1a00189e:	f103 2340 	add.w	r3, r3, #1073758208	; 0x40004000
1a0018a2:	f503 2370 	add.w	r3, r3, #983040	; 0xf0000
1a0018a6:	5499      	strb	r1, [r3, r2]

   return ret_val;
1a0018a8:	2001      	movs	r0, #1
}
1a0018aa:	b004      	add	sp, #16
1a0018ac:	bd10      	pop	{r4, pc}
	  return FALSE;
1a0018ae:	2000      	movs	r0, #0
1a0018b0:	4770      	bx	lr
	  return FALSE;
1a0018b2:	2000      	movs	r0, #0
}
1a0018b4:	4770      	bx	lr

1a0018b6 <gpioRead>:
}


bool_t gpioRead( gpioMap_t pin )
{
   if( pin == VCC ){
1a0018b6:	f110 0f02 	cmn.w	r0, #2
1a0018ba:	d02c      	beq.n	1a001916 <gpioRead+0x60>
      return TRUE;
   }
   if( pin == GND ){
1a0018bc:	f1b0 3fff 	cmp.w	r0, #4294967295	; 0xffffffff
1a0018c0:	d02b      	beq.n	1a00191a <gpioRead+0x64>
{
1a0018c2:	b500      	push	{lr}
1a0018c4:	b085      	sub	sp, #20
      return FALSE;
   }

   bool_t ret_val     = OFF;

   int8_t pinNamePort = 0;
1a0018c6:	2300      	movs	r3, #0
1a0018c8:	f88d 300f 	strb.w	r3, [sp, #15]
   int8_t pinNamePin  = 0;
1a0018cc:	f88d 300e 	strb.w	r3, [sp, #14]

   int8_t func        = 0;
1a0018d0:	f88d 300d 	strb.w	r3, [sp, #13]

   int8_t gpioPort    = 0;
1a0018d4:	f88d 300c 	strb.w	r3, [sp, #12]
   int8_t gpioPin     = 0;
1a0018d8:	f88d 300b 	strb.w	r3, [sp, #11]

   gpioObtainPinInit( pin, &pinNamePort, &pinNamePin, &func,
1a0018dc:	f10d 030b 	add.w	r3, sp, #11
1a0018e0:	9301      	str	r3, [sp, #4]
1a0018e2:	ab03      	add	r3, sp, #12
1a0018e4:	9300      	str	r3, [sp, #0]
1a0018e6:	f10d 030d 	add.w	r3, sp, #13
1a0018ea:	f10d 020e 	add.w	r2, sp, #14
1a0018ee:	f10d 010f 	add.w	r1, sp, #15
1a0018f2:	f7ff febb 	bl	1a00166c <gpioObtainPinInit>
                      &gpioPort, &gpioPin );

   ret_val = (bool_t) Chip_GPIO_ReadPortBit( LPC_GPIO_PORT, gpioPort, gpioPin );
1a0018f6:	f99d 300c 	ldrsb.w	r3, [sp, #12]
1a0018fa:	f89d 200b 	ldrb.w	r2, [sp, #11]
	return (bool) pGPIO->B[port][pin];
1a0018fe:	015b      	lsls	r3, r3, #5
1a001900:	f103 2340 	add.w	r3, r3, #1073758208	; 0x40004000
1a001904:	f503 2370 	add.w	r3, r3, #983040	; 0xf0000
1a001908:	5c98      	ldrb	r0, [r3, r2]
1a00190a:	3000      	adds	r0, #0
1a00190c:	bf18      	it	ne
1a00190e:	2001      	movne	r0, #1

   return ret_val;
}
1a001910:	b005      	add	sp, #20
1a001912:	f85d fb04 	ldr.w	pc, [sp], #4
      return TRUE;
1a001916:	2001      	movs	r0, #1
1a001918:	4770      	bx	lr
      return FALSE;
1a00191a:	2000      	movs	r0, #0
}
1a00191c:	4770      	bx	lr

1a00191e <gpioToggle>:
{
1a00191e:	b510      	push	{r4, lr}
1a001920:	4604      	mov	r4, r0
   return gpioWrite( pin, !gpioRead(pin) );
1a001922:	f7ff ffc8 	bl	1a0018b6 <gpioRead>
1a001926:	fab0 f180 	clz	r1, r0
1a00192a:	0949      	lsrs	r1, r1, #5
1a00192c:	4620      	mov	r0, r4
1a00192e:	f7ff ff8d 	bl	1a00184c <gpioWrite>
}
1a001932:	bd10      	pop	{r4, pc}

1a001934 <USB0_IRQHandler>:
/**
 * @brief   Handle interrupt from USB
 * @return  Nothing
 */
#ifndef USB_HOST_ONLY // Parche para envitar conflictos con biblioteca host
void USB_IRQHandler(void){
1a001934:	b508      	push	{r3, lr}
   USBD_API->hw->ISR(g_hUsb);
1a001936:	4b04      	ldr	r3, [pc, #16]	; (1a001948 <USB0_IRQHandler+0x14>)
1a001938:	681b      	ldr	r3, [r3, #0]
1a00193a:	681b      	ldr	r3, [r3, #0]
1a00193c:	68db      	ldr	r3, [r3, #12]
1a00193e:	4a03      	ldr	r2, [pc, #12]	; (1a00194c <USB0_IRQHandler+0x18>)
1a001940:	6810      	ldr	r0, [r2, #0]
1a001942:	4798      	blx	r3
}
1a001944:	bd08      	pop	{r3, pc}
1a001946:	bf00      	nop
1a001948:	10005a88 	.word	0x10005a88
1a00194c:	10001264 	.word	0x10001264

1a001950 <boardInit>:

/*==================[external functions definition]==========================*/

/* Set up and initialize board hardware */
void boardInit(void)
{
1a001950:	b508      	push	{r3, lr}
   // Read clock settings and update SystemCoreClock variable
   SystemCoreClockUpdate();
1a001952:	f7ff fbb7 	bl	1a0010c4 <SystemCoreClockUpdate>

   cyclesCounterInit( SystemCoreClock );
1a001956:	4b1a      	ldr	r3, [pc, #104]	; (1a0019c0 <boardInit+0x70>)
1a001958:	6818      	ldr	r0, [r3, #0]
1a00195a:	f7ff fd1d 	bl	1a001398 <cyclesCounterInit>

   // Inicializar el conteo de Ticks con resolucion de 1ms (si no se usa freeRTOS)
   #ifndef USE_FREERTOS
      tickInit( 1 );
1a00195e:	2001      	movs	r0, #1
1a001960:	2100      	movs	r1, #0
1a001962:	f7ff fda3 	bl	1a0014ac <tickInit>
      //#error CIAA-NXP

   #elif BOARD==edu_ciaa_nxp

      // Inicializar GPIOs
      gpioInit( 0, GPIO_ENABLE );
1a001966:	2105      	movs	r1, #5
1a001968:	2000      	movs	r0, #0
1a00196a:	f7ff fe99 	bl	1a0016a0 <gpioInit>

      // Configuracion de pines de entrada para Teclas de la EDU-CIAA-NXP
      gpioInit( TEC1, GPIO_INPUT );
1a00196e:	2100      	movs	r1, #0
1a001970:	2024      	movs	r0, #36	; 0x24
1a001972:	f7ff fe95 	bl	1a0016a0 <gpioInit>
      gpioInit( TEC2, GPIO_INPUT );
1a001976:	2100      	movs	r1, #0
1a001978:	2025      	movs	r0, #37	; 0x25
1a00197a:	f7ff fe91 	bl	1a0016a0 <gpioInit>
      gpioInit( TEC3, GPIO_INPUT );
1a00197e:	2100      	movs	r1, #0
1a001980:	2026      	movs	r0, #38	; 0x26
1a001982:	f7ff fe8d 	bl	1a0016a0 <gpioInit>
      gpioInit( TEC4, GPIO_INPUT );
1a001986:	2100      	movs	r1, #0
1a001988:	2027      	movs	r0, #39	; 0x27
1a00198a:	f7ff fe89 	bl	1a0016a0 <gpioInit>

      // Configuracion de pines de salida para Leds de la EDU-CIAA-NXP
      gpioInit( LEDR, GPIO_OUTPUT );
1a00198e:	2101      	movs	r1, #1
1a001990:	2028      	movs	r0, #40	; 0x28
1a001992:	f7ff fe85 	bl	1a0016a0 <gpioInit>
      gpioInit( LEDG, GPIO_OUTPUT );
1a001996:	2101      	movs	r1, #1
1a001998:	2029      	movs	r0, #41	; 0x29
1a00199a:	f7ff fe81 	bl	1a0016a0 <gpioInit>
      gpioInit( LEDB, GPIO_OUTPUT );
1a00199e:	2101      	movs	r1, #1
1a0019a0:	202a      	movs	r0, #42	; 0x2a
1a0019a2:	f7ff fe7d 	bl	1a0016a0 <gpioInit>
      gpioInit( LED1, GPIO_OUTPUT );
1a0019a6:	2101      	movs	r1, #1
1a0019a8:	202b      	movs	r0, #43	; 0x2b
1a0019aa:	f7ff fe79 	bl	1a0016a0 <gpioInit>
      gpioInit( LED2, GPIO_OUTPUT );
1a0019ae:	2101      	movs	r1, #1
1a0019b0:	202c      	movs	r0, #44	; 0x2c
1a0019b2:	f7ff fe75 	bl	1a0016a0 <gpioInit>
      gpioInit( LED3, GPIO_OUTPUT );
1a0019b6:	2101      	movs	r1, #1
1a0019b8:	202d      	movs	r0, #45	; 0x2d
1a0019ba:	f7ff fe71 	bl	1a0016a0 <gpioInit>
   #else
      #error BOARD compile variable must be defined

   #endif

}
1a0019be:	bd08      	pop	{r3, pc}
1a0019c0:	10005a84 	.word	0x10005a84

1a0019c4 <arm_max_q15>:
1a0019c4:	e92d 4ff0 	stmdb	sp!, {r4, r5, r6, r7, r8, r9, sl, fp, lr}
1a0019c8:	f101 3cff 	add.w	ip, r1, #4294967295	; 0xffffffff
1a0019cc:	ea5f 0a9c 	movs.w	sl, ip, lsr #2
1a0019d0:	f100 0902 	add.w	r9, r0, #2
1a0019d4:	f9b0 4000 	ldrsh.w	r4, [r0]
1a0019d8:	d04a      	beq.n	1a001a70 <arm_max_q15+0xac>
1a0019da:	300a      	adds	r0, #10
1a0019dc:	46d0      	mov	r8, sl
1a0019de:	f04f 0e04 	mov.w	lr, #4
1a0019e2:	2700      	movs	r7, #0
1a0019e4:	f930 5c08 	ldrsh.w	r5, [r0, #-8]
1a0019e8:	f930 bc06 	ldrsh.w	fp, [r0, #-6]
1a0019ec:	f1ae 0603 	sub.w	r6, lr, #3
1a0019f0:	42a5      	cmp	r5, r4
1a0019f2:	bfc8      	it	gt
1a0019f4:	4637      	movgt	r7, r6
1a0019f6:	42ac      	cmp	r4, r5
1a0019f8:	bfb8      	it	lt
1a0019fa:	462c      	movlt	r4, r5
1a0019fc:	f1ae 0502 	sub.w	r5, lr, #2
1a001a00:	455c      	cmp	r4, fp
1a001a02:	bfb8      	it	lt
1a001a04:	462f      	movlt	r7, r5
1a001a06:	455c      	cmp	r4, fp
1a001a08:	bfb8      	it	lt
1a001a0a:	465c      	movlt	r4, fp
1a001a0c:	f930 6c04 	ldrsh.w	r6, [r0, #-4]
1a001a10:	4625      	mov	r5, r4
1a001a12:	f10e 3bff 	add.w	fp, lr, #4294967295	; 0xffffffff
1a001a16:	f930 4c02 	ldrsh.w	r4, [r0, #-2]
1a001a1a:	42b5      	cmp	r5, r6
1a001a1c:	bfb8      	it	lt
1a001a1e:	465f      	movlt	r7, fp
1a001a20:	42b5      	cmp	r5, r6
1a001a22:	bfb8      	it	lt
1a001a24:	4635      	movlt	r5, r6
1a001a26:	42a5      	cmp	r5, r4
1a001a28:	bfb8      	it	lt
1a001a2a:	4677      	movlt	r7, lr
1a001a2c:	42ac      	cmp	r4, r5
1a001a2e:	bfb8      	it	lt
1a001a30:	462c      	movlt	r4, r5
1a001a32:	f1b8 0801 	subs.w	r8, r8, #1
1a001a36:	f100 0008 	add.w	r0, r0, #8
1a001a3a:	f10e 0e04 	add.w	lr, lr, #4
1a001a3e:	d1d1      	bne.n	1a0019e4 <arm_max_q15+0x20>
1a001a40:	eb09 09ca 	add.w	r9, r9, sl, lsl #3
1a001a44:	f01c 0c03 	ands.w	ip, ip, #3
1a001a48:	d014      	beq.n	1a001a74 <arm_max_q15+0xb0>
1a001a4a:	ebcc 0c01 	rsb	ip, ip, r1
1a001a4e:	f939 0b02 	ldrsh.w	r0, [r9], #2
1a001a52:	42a0      	cmp	r0, r4
1a001a54:	bfc8      	it	gt
1a001a56:	4667      	movgt	r7, ip
1a001a58:	42a0      	cmp	r0, r4
1a001a5a:	f10c 0c01 	add.w	ip, ip, #1
1a001a5e:	bfb8      	it	lt
1a001a60:	4620      	movlt	r0, r4
1a001a62:	4561      	cmp	r1, ip
1a001a64:	4604      	mov	r4, r0
1a001a66:	d1f2      	bne.n	1a001a4e <arm_max_q15+0x8a>
1a001a68:	8010      	strh	r0, [r2, #0]
1a001a6a:	601f      	str	r7, [r3, #0]
1a001a6c:	e8bd 8ff0 	ldmia.w	sp!, {r4, r5, r6, r7, r8, r9, sl, fp, pc}
1a001a70:	4657      	mov	r7, sl
1a001a72:	e7e7      	b.n	1a001a44 <arm_max_q15+0x80>
1a001a74:	4620      	mov	r0, r4
1a001a76:	e7f7      	b.n	1a001a68 <arm_max_q15+0xa4>

1a001a78 <arm_split_rfft_q15>:
1a001a78:	e92d 4ff0 	stmdb	sp!, {r4, r5, r6, r7, r8, r9, sl, fp, lr}
1a001a7c:	b083      	sub	sp, #12
1a001a7e:	f101 4480 	add.w	r4, r1, #1073741824	; 0x40000000
1a001a82:	9d0d      	ldr	r5, [sp, #52]	; 0x34
1a001a84:	9001      	str	r0, [sp, #4]
1a001a86:	3c01      	subs	r4, #1
1a001a88:	ea4f 0a85 	mov.w	sl, r5, lsl #2
1a001a8c:	00a0      	lsls	r0, r4, #2
1a001a8e:	ea4f 0ec1 	mov.w	lr, r1, lsl #3
1a001a92:	3901      	subs	r1, #1
1a001a94:	9000      	str	r0, [sp, #0]
1a001a96:	4452      	add	r2, sl
1a001a98:	4453      	add	r3, sl
1a001a9a:	d02f      	beq.n	1a001afc <arm_split_rfft_q15+0x84>
1a001a9c:	f100 0904 	add.w	r9, r0, #4
1a001aa0:	980c      	ldr	r0, [sp, #48]	; 0x30
1a001aa2:	9c01      	ldr	r4, [sp, #4]
1a001aa4:	f1ae 0e08 	sub.w	lr, lr, #8
1a001aa8:	4486      	add	lr, r0
1a001aaa:	980c      	ldr	r0, [sp, #48]	; 0x30
1a001aac:	44a1      	add	r9, r4
1a001aae:	f100 0808 	add.w	r8, r0, #8
1a001ab2:	46a3      	mov	fp, r4
1a001ab4:	f04f 0c00 	mov.w	ip, #0
1a001ab8:	f85b 4f04 	ldr.w	r4, [fp, #4]!
1a001abc:	f852 000c 	ldr.w	r0, [r2, ip]
1a001ac0:	fb44 f500 	smusd	r5, r4, r0
1a001ac4:	f859 6d04 	ldr.w	r6, [r9, #-4]!
1a001ac8:	f853 700c 	ldr.w	r7, [r3, ip]
1a001acc:	fb26 5507 	smlad	r5, r6, r7, r5
1a001ad0:	fb46 f617 	smusdx	r6, r6, r7
1a001ad4:	fb24 6010 	smladx	r0, r4, r0, r6
1a001ad8:	1400      	asrs	r0, r0, #16
1a001ada:	142c      	asrs	r4, r5, #16
1a001adc:	4246      	negs	r6, r0
1a001ade:	3901      	subs	r1, #1
1a001ae0:	f828 0c02 	strh.w	r0, [r8, #-2]
1a001ae4:	f828 4c04 	strh.w	r4, [r8, #-4]
1a001ae8:	44d4      	add	ip, sl
1a001aea:	f8ae 6006 	strh.w	r6, [lr, #6]
1a001aee:	f8ae 4004 	strh.w	r4, [lr, #4]
1a001af2:	f108 0804 	add.w	r8, r8, #4
1a001af6:	f1ae 0e04 	sub.w	lr, lr, #4
1a001afa:	d1dd      	bne.n	1a001ab8 <arm_split_rfft_q15+0x40>
1a001afc:	9801      	ldr	r0, [sp, #4]
1a001afe:	9c0c      	ldr	r4, [sp, #48]	; 0x30
1a001b00:	f9b0 2002 	ldrsh.w	r2, [r0, #2]
1a001b04:	f9b0 3000 	ldrsh.w	r3, [r0]
1a001b08:	9900      	ldr	r1, [sp, #0]
1a001b0a:	1a9b      	subs	r3, r3, r2
1a001b0c:	4421      	add	r1, r4
1a001b0e:	2200      	movs	r2, #0
1a001b10:	105b      	asrs	r3, r3, #1
1a001b12:	808b      	strh	r3, [r1, #4]
1a001b14:	80ca      	strh	r2, [r1, #6]
1a001b16:	f9b0 1000 	ldrsh.w	r1, [r0]
1a001b1a:	f9b0 3002 	ldrsh.w	r3, [r0, #2]
1a001b1e:	8062      	strh	r2, [r4, #2]
1a001b20:	440b      	add	r3, r1
1a001b22:	105b      	asrs	r3, r3, #1
1a001b24:	8023      	strh	r3, [r4, #0]
1a001b26:	b003      	add	sp, #12
1a001b28:	e8bd 8ff0 	ldmia.w	sp!, {r4, r5, r6, r7, r8, r9, sl, fp, pc}

1a001b2c <arm_rfft_q15>:
1a001b2c:	e92d 4ff0 	stmdb	sp!, {r4, r5, r6, r7, r8, r9, sl, fp, lr}
1a001b30:	4616      	mov	r6, r2
1a001b32:	7902      	ldrb	r2, [r0, #4]
1a001b34:	6804      	ldr	r4, [r0, #0]
1a001b36:	6943      	ldr	r3, [r0, #20]
1a001b38:	b085      	sub	sp, #20
1a001b3a:	2a01      	cmp	r2, #1
1a001b3c:	4605      	mov	r5, r0
1a001b3e:	9303      	str	r3, [sp, #12]
1a001b40:	ea4f 0454 	mov.w	r4, r4, lsr #1
1a001b44:	460f      	mov	r7, r1
1a001b46:	d00f      	beq.n	1a001b68 <arm_rfft_q15+0x3c>
1a001b48:	4618      	mov	r0, r3
1a001b4a:	796b      	ldrb	r3, [r5, #5]
1a001b4c:	f000 fcb6 	bl	1a0024bc <arm_cfft_q15>
1a001b50:	692b      	ldr	r3, [r5, #16]
1a001b52:	68ea      	ldr	r2, [r5, #12]
1a001b54:	68ad      	ldr	r5, [r5, #8]
1a001b56:	9501      	str	r5, [sp, #4]
1a001b58:	9600      	str	r6, [sp, #0]
1a001b5a:	4621      	mov	r1, r4
1a001b5c:	4638      	mov	r0, r7
1a001b5e:	f7ff ff8b 	bl	1a001a78 <arm_split_rfft_q15>
1a001b62:	b005      	add	sp, #20
1a001b64:	e8bd 8ff0 	ldmia.w	sp!, {r4, r5, r6, r7, r8, r9, sl, fp, pc}
1a001b68:	f100 0308 	add.w	r3, r0, #8
1a001b6c:	e893 1108 	ldmia.w	r3, {r3, r8, ip}
1a001b70:	ea4f 0984 	mov.w	r9, r4, lsl #2
1a001b74:	b30c      	cbz	r4, 1a001bba <arm_rfft_q15+0x8e>
1a001b76:	f109 0904 	add.w	r9, r9, #4
1a001b7a:	4489      	add	r9, r1
1a001b7c:	ea4f 0a83 	mov.w	sl, r3, lsl #2
1a001b80:	46b3      	mov	fp, r6
1a001b82:	f859 1d04 	ldr.w	r1, [r9, #-4]!
1a001b86:	f8dc e000 	ldr.w	lr, [ip]
1a001b8a:	fb41 f00e 	smusd	r0, r1, lr
1a001b8e:	f857 3b04 	ldr.w	r3, [r7], #4
1a001b92:	f8d8 2000 	ldr.w	r2, [r8]
1a001b96:	fb23 0002 	smlad	r0, r3, r2, r0
1a001b9a:	fb21 f11e 	smuadx	r1, r1, lr
1a001b9e:	4249      	negs	r1, r1
1a001ba0:	fb42 1213 	smlsdx	r2, r2, r3, r1
1a001ba4:	0c13      	lsrs	r3, r2, #16
1a001ba6:	041b      	lsls	r3, r3, #16
1a001ba8:	ea43 4310 	orr.w	r3, r3, r0, lsr #16
1a001bac:	3c01      	subs	r4, #1
1a001bae:	f84b 3b04 	str.w	r3, [fp], #4
1a001bb2:	44d4      	add	ip, sl
1a001bb4:	44d0      	add	r8, sl
1a001bb6:	d1e4      	bne.n	1a001b82 <arm_rfft_q15+0x56>
1a001bb8:	792a      	ldrb	r2, [r5, #4]
1a001bba:	796b      	ldrb	r3, [r5, #5]
1a001bbc:	9803      	ldr	r0, [sp, #12]
1a001bbe:	4631      	mov	r1, r6
1a001bc0:	f000 fc7c 	bl	1a0024bc <arm_cfft_q15>
1a001bc4:	682b      	ldr	r3, [r5, #0]
1a001bc6:	2b00      	cmp	r3, #0
1a001bc8:	d0cb      	beq.n	1a001b62 <arm_rfft_q15+0x36>
1a001bca:	3e02      	subs	r6, #2
1a001bcc:	2200      	movs	r2, #0
1a001bce:	f936 3f02 	ldrsh.w	r3, [r6, #2]!
1a001bd2:	005b      	lsls	r3, r3, #1
1a001bd4:	8033      	strh	r3, [r6, #0]
1a001bd6:	682b      	ldr	r3, [r5, #0]
1a001bd8:	3201      	adds	r2, #1
1a001bda:	4293      	cmp	r3, r2
1a001bdc:	d8f7      	bhi.n	1a001bce <arm_rfft_q15+0xa2>
1a001bde:	b005      	add	sp, #20
1a001be0:	e8bd 8ff0 	ldmia.w	sp!, {r4, r5, r6, r7, r8, r9, sl, fp, pc}

1a001be4 <arm_rfft_init_q15>:
1a001be4:	b289      	uxth	r1, r1
1a001be6:	b430      	push	{r4, r5}
1a001be8:	f5b1 7f00 	cmp.w	r1, #512	; 0x200
1a001bec:	4d31      	ldr	r5, [pc, #196]	; (1a001cb4 <arm_rfft_init_q15+0xd0>)
1a001bee:	4c32      	ldr	r4, [pc, #200]	; (1a001cb8 <arm_rfft_init_q15+0xd4>)
1a001bf0:	7102      	strb	r2, [r0, #4]
1a001bf2:	7143      	strb	r3, [r0, #5]
1a001bf4:	6001      	str	r1, [r0, #0]
1a001bf6:	60c5      	str	r5, [r0, #12]
1a001bf8:	6104      	str	r4, [r0, #16]
1a001bfa:	d049      	beq.n	1a001c90 <arm_rfft_init_q15+0xac>
1a001bfc:	d910      	bls.n	1a001c20 <arm_rfft_init_q15+0x3c>
1a001bfe:	f5b1 6f00 	cmp.w	r1, #2048	; 0x800
1a001c02:	d04c      	beq.n	1a001c9e <arm_rfft_init_q15+0xba>
1a001c04:	d933      	bls.n	1a001c6e <arm_rfft_init_q15+0x8a>
1a001c06:	f5b1 5f80 	cmp.w	r1, #4096	; 0x1000
1a001c0a:	d01f      	beq.n	1a001c4c <arm_rfft_init_q15+0x68>
1a001c0c:	f5b1 5f00 	cmp.w	r1, #8192	; 0x2000
1a001c10:	d14c      	bne.n	1a001cac <arm_rfft_init_q15+0xc8>
1a001c12:	2201      	movs	r2, #1
1a001c14:	4b29      	ldr	r3, [pc, #164]	; (1a001cbc <arm_rfft_init_q15+0xd8>)
1a001c16:	6082      	str	r2, [r0, #8]
1a001c18:	6143      	str	r3, [r0, #20]
1a001c1a:	bc30      	pop	{r4, r5}
1a001c1c:	2000      	movs	r0, #0
1a001c1e:	4770      	bx	lr
1a001c20:	2940      	cmp	r1, #64	; 0x40
1a001c22:	d02e      	beq.n	1a001c82 <arm_rfft_init_q15+0x9e>
1a001c24:	d919      	bls.n	1a001c5a <arm_rfft_init_q15+0x76>
1a001c26:	2980      	cmp	r1, #128	; 0x80
1a001c28:	d009      	beq.n	1a001c3e <arm_rfft_init_q15+0x5a>
1a001c2a:	f5b1 7f80 	cmp.w	r1, #256	; 0x100
1a001c2e:	d13d      	bne.n	1a001cac <arm_rfft_init_q15+0xc8>
1a001c30:	2220      	movs	r2, #32
1a001c32:	4b23      	ldr	r3, [pc, #140]	; (1a001cc0 <arm_rfft_init_q15+0xdc>)
1a001c34:	6082      	str	r2, [r0, #8]
1a001c36:	6143      	str	r3, [r0, #20]
1a001c38:	bc30      	pop	{r4, r5}
1a001c3a:	2000      	movs	r0, #0
1a001c3c:	4770      	bx	lr
1a001c3e:	2240      	movs	r2, #64	; 0x40
1a001c40:	4b20      	ldr	r3, [pc, #128]	; (1a001cc4 <arm_rfft_init_q15+0xe0>)
1a001c42:	6082      	str	r2, [r0, #8]
1a001c44:	6143      	str	r3, [r0, #20]
1a001c46:	bc30      	pop	{r4, r5}
1a001c48:	2000      	movs	r0, #0
1a001c4a:	4770      	bx	lr
1a001c4c:	2202      	movs	r2, #2
1a001c4e:	4b1e      	ldr	r3, [pc, #120]	; (1a001cc8 <arm_rfft_init_q15+0xe4>)
1a001c50:	6082      	str	r2, [r0, #8]
1a001c52:	6143      	str	r3, [r0, #20]
1a001c54:	bc30      	pop	{r4, r5}
1a001c56:	2000      	movs	r0, #0
1a001c58:	4770      	bx	lr
1a001c5a:	2920      	cmp	r1, #32
1a001c5c:	d126      	bne.n	1a001cac <arm_rfft_init_q15+0xc8>
1a001c5e:	f44f 7280 	mov.w	r2, #256	; 0x100
1a001c62:	4b1a      	ldr	r3, [pc, #104]	; (1a001ccc <arm_rfft_init_q15+0xe8>)
1a001c64:	6082      	str	r2, [r0, #8]
1a001c66:	6143      	str	r3, [r0, #20]
1a001c68:	bc30      	pop	{r4, r5}
1a001c6a:	2000      	movs	r0, #0
1a001c6c:	4770      	bx	lr
1a001c6e:	f5b1 6f80 	cmp.w	r1, #1024	; 0x400
1a001c72:	d11b      	bne.n	1a001cac <arm_rfft_init_q15+0xc8>
1a001c74:	2208      	movs	r2, #8
1a001c76:	4b16      	ldr	r3, [pc, #88]	; (1a001cd0 <arm_rfft_init_q15+0xec>)
1a001c78:	6082      	str	r2, [r0, #8]
1a001c7a:	6143      	str	r3, [r0, #20]
1a001c7c:	bc30      	pop	{r4, r5}
1a001c7e:	2000      	movs	r0, #0
1a001c80:	4770      	bx	lr
1a001c82:	2280      	movs	r2, #128	; 0x80
1a001c84:	4b13      	ldr	r3, [pc, #76]	; (1a001cd4 <arm_rfft_init_q15+0xf0>)
1a001c86:	6082      	str	r2, [r0, #8]
1a001c88:	6143      	str	r3, [r0, #20]
1a001c8a:	bc30      	pop	{r4, r5}
1a001c8c:	2000      	movs	r0, #0
1a001c8e:	4770      	bx	lr
1a001c90:	2210      	movs	r2, #16
1a001c92:	4b11      	ldr	r3, [pc, #68]	; (1a001cd8 <arm_rfft_init_q15+0xf4>)
1a001c94:	6082      	str	r2, [r0, #8]
1a001c96:	6143      	str	r3, [r0, #20]
1a001c98:	bc30      	pop	{r4, r5}
1a001c9a:	2000      	movs	r0, #0
1a001c9c:	4770      	bx	lr
1a001c9e:	2204      	movs	r2, #4
1a001ca0:	4b0e      	ldr	r3, [pc, #56]	; (1a001cdc <arm_rfft_init_q15+0xf8>)
1a001ca2:	6082      	str	r2, [r0, #8]
1a001ca4:	6143      	str	r3, [r0, #20]
1a001ca6:	bc30      	pop	{r4, r5}
1a001ca8:	2000      	movs	r0, #0
1a001caa:	4770      	bx	lr
1a001cac:	f04f 30ff 	mov.w	r0, #4294967295	; 0xffffffff
1a001cb0:	bc30      	pop	{r4, r5}
1a001cb2:	4770      	bx	lr
1a001cb4:	1a003184 	.word	0x1a003184
1a001cb8:	1a007184 	.word	0x1a007184
1a001cbc:	1a00b1e4 	.word	0x1a00b1e4
1a001cc0:	1a00b194 	.word	0x1a00b194
1a001cc4:	1a00b1c4 	.word	0x1a00b1c4
1a001cc8:	1a00b1d4 	.word	0x1a00b1d4
1a001ccc:	1a00b1f4 	.word	0x1a00b1f4
1a001cd0:	1a00b1a4 	.word	0x1a00b1a4
1a001cd4:	1a00b204 	.word	0x1a00b204
1a001cd8:	1a00b184 	.word	0x1a00b184
1a001cdc:	1a00b1b4 	.word	0x1a00b1b4

1a001ce0 <arm_conv_fast_q15>:
1a001ce0:	e92d 4ff0 	stmdb	sp!, {r4, r5, r6, r7, r8, r9, sl, fp, lr}
1a001ce4:	b08f      	sub	sp, #60	; 0x3c
1a001ce6:	4299      	cmp	r1, r3
1a001ce8:	461c      	mov	r4, r3
1a001cea:	9306      	str	r3, [sp, #24]
1a001cec:	9007      	str	r0, [sp, #28]
1a001cee:	d204      	bcs.n	1a001cfa <arm_conv_fast_q15+0x1a>
1a001cf0:	460b      	mov	r3, r1
1a001cf2:	9207      	str	r2, [sp, #28]
1a001cf4:	4621      	mov	r1, r4
1a001cf6:	4602      	mov	r2, r0
1a001cf8:	9306      	str	r3, [sp, #24]
1a001cfa:	9b06      	ldr	r3, [sp, #24]
1a001cfc:	3101      	adds	r1, #1
1a001cfe:	1ac9      	subs	r1, r1, r3
1a001d00:	f1b3 0901 	subs.w	r9, r3, #1
1a001d04:	910a      	str	r1, [sp, #40]	; 0x28
1a001d06:	bf08      	it	eq
1a001d08:	4619      	moveq	r1, r3
1a001d0a:	f000 8095 	beq.w	1a001e38 <arm_conv_fast_q15+0x158>
1a001d0e:	9e07      	ldr	r6, [sp, #28]
1a001d10:	f9b2 1000 	ldrsh.w	r1, [r2]
1a001d14:	461f      	mov	r7, r3
1a001d16:	f9b6 3000 	ldrsh.w	r3, [r6]
1a001d1a:	fb03 f301 	mul.w	r3, r3, r1
1a001d1e:	9918      	ldr	r1, [sp, #96]	; 0x60
1a001d20:	13db      	asrs	r3, r3, #15
1a001d22:	800b      	strh	r3, [r1, #0]
1a001d24:	2f02      	cmp	r7, #2
1a001d26:	460b      	mov	r3, r1
1a001d28:	f103 0302 	add.w	r3, r3, #2
1a001d2c:	f000 8082 	beq.w	1a001e34 <arm_conv_fast_q15+0x154>
1a001d30:	f9b6 0002 	ldrsh.w	r0, [r6, #2]
1a001d34:	f9b2 3000 	ldrsh.w	r3, [r2]
1a001d38:	f9b2 1002 	ldrsh.w	r1, [r2, #2]
1a001d3c:	f9b6 4000 	ldrsh.w	r4, [r6]
1a001d40:	fb00 f303 	mul.w	r3, r0, r3
1a001d44:	fb04 3301 	mla	r3, r4, r1, r3
1a001d48:	9918      	ldr	r1, [sp, #96]	; 0x60
1a001d4a:	13db      	asrs	r3, r3, #15
1a001d4c:	804b      	strh	r3, [r1, #2]
1a001d4e:	2f03      	cmp	r7, #3
1a001d50:	460b      	mov	r3, r1
1a001d52:	f103 0304 	add.w	r3, r3, #4
1a001d56:	d06d      	beq.n	1a001e34 <arm_conv_fast_q15+0x154>
1a001d58:	f9b6 3000 	ldrsh.w	r3, [r6]
1a001d5c:	f9b2 4004 	ldrsh.w	r4, [r2, #4]
1a001d60:	f9b6 0002 	ldrsh.w	r0, [r6, #2]
1a001d64:	f9b2 5002 	ldrsh.w	r5, [r2, #2]
1a001d68:	f9b6 1004 	ldrsh.w	r1, [r6, #4]
1a001d6c:	4694      	mov	ip, r2
1a001d6e:	fb04 f303 	mul.w	r3, r4, r3
1a001d72:	fb05 3300 	mla	r3, r5, r0, r3
1a001d76:	f93c 0b06 	ldrsh.w	r0, [ip], #6
1a001d7a:	fb00 3301 	mla	r3, r0, r1, r3
1a001d7e:	9918      	ldr	r1, [sp, #96]	; 0x60
1a001d80:	13db      	asrs	r3, r3, #15
1a001d82:	808b      	strh	r3, [r1, #4]
1a001d84:	460b      	mov	r3, r1
1a001d86:	3306      	adds	r3, #6
1a001d88:	9301      	str	r3, [sp, #4]
1a001d8a:	1f3b      	subs	r3, r7, #4
1a001d8c:	9302      	str	r3, [sp, #8]
1a001d8e:	f000 8276 	beq.w	1a00227e <arm_conv_fast_q15+0x59e>
1a001d92:	f8cd 900c 	str.w	r9, [sp, #12]
1a001d96:	f8dd a004 	ldr.w	sl, [sp, #4]
1a001d9a:	f8dd 9018 	ldr.w	r9, [sp, #24]
1a001d9e:	9204      	str	r2, [sp, #16]
1a001da0:	46b0      	mov	r8, r6
1a001da2:	f04f 0e04 	mov.w	lr, #4
1a001da6:	ea5f 079e 	movs.w	r7, lr, lsr #2
1a001daa:	4661      	mov	r1, ip
1a001dac:	d07d      	beq.n	1a001eaa <arm_conv_fast_q15+0x1ca>
1a001dae:	f108 0508 	add.w	r5, r8, #8
1a001db2:	f1ac 0408 	sub.w	r4, ip, #8
1a001db6:	463e      	mov	r6, r7
1a001db8:	2300      	movs	r3, #0
1a001dba:	f9b4 1008 	ldrsh.w	r1, [r4, #8]
1a001dbe:	f935 0c08 	ldrsh.w	r0, [r5, #-8]
1a001dc2:	f935 bc06 	ldrsh.w	fp, [r5, #-6]
1a001dc6:	f9b4 2006 	ldrsh.w	r2, [r4, #6]
1a001dca:	fb00 3001 	mla	r0, r0, r1, r3
1a001dce:	f935 3c04 	ldrsh.w	r3, [r5, #-4]
1a001dd2:	f9b4 1004 	ldrsh.w	r1, [r4, #4]
1a001dd6:	fb0b 0002 	mla	r0, fp, r2, r0
1a001dda:	f935 bc02 	ldrsh.w	fp, [r5, #-2]
1a001dde:	f9b4 2002 	ldrsh.w	r2, [r4, #2]
1a001de2:	fb03 0301 	mla	r3, r3, r1, r0
1a001de6:	3e01      	subs	r6, #1
1a001de8:	f105 0508 	add.w	r5, r5, #8
1a001dec:	fb0b 3302 	mla	r3, fp, r2, r3
1a001df0:	f1a4 0408 	sub.w	r4, r4, #8
1a001df4:	d1e1      	bne.n	1a001dba <arm_conv_fast_q15+0xda>
1a001df6:	eb08 00c7 	add.w	r0, r8, r7, lsl #3
1a001dfa:	ebac 01c7 	sub.w	r1, ip, r7, lsl #3
1a001dfe:	f01e 0203 	ands.w	r2, lr, #3
1a001e02:	d007      	beq.n	1a001e14 <arm_conv_fast_q15+0x134>
1a001e04:	f930 5b02 	ldrsh.w	r5, [r0], #2
1a001e08:	f931 4902 	ldrsh.w	r4, [r1], #-2
1a001e0c:	3a01      	subs	r2, #1
1a001e0e:	fb05 3304 	mla	r3, r5, r4, r3
1a001e12:	d1f7      	bne.n	1a001e04 <arm_conv_fast_q15+0x124>
1a001e14:	f10e 0e01 	add.w	lr, lr, #1
1a001e18:	13db      	asrs	r3, r3, #15
1a001e1a:	45f1      	cmp	r9, lr
1a001e1c:	f82a 3b02 	strh.w	r3, [sl], #2
1a001e20:	f10c 0c02 	add.w	ip, ip, #2
1a001e24:	d1bf      	bne.n	1a001da6 <arm_conv_fast_q15+0xc6>
1a001e26:	9b01      	ldr	r3, [sp, #4]
1a001e28:	9902      	ldr	r1, [sp, #8]
1a001e2a:	f8dd 900c 	ldr.w	r9, [sp, #12]
1a001e2e:	9a04      	ldr	r2, [sp, #16]
1a001e30:	eb03 0341 	add.w	r3, r3, r1, lsl #1
1a001e34:	9906      	ldr	r1, [sp, #24]
1a001e36:	9318      	str	r3, [sp, #96]	; 0x60
1a001e38:	f101 4a00 	add.w	sl, r1, #2147483648	; 0x80000000
1a001e3c:	f10a 3aff 	add.w	sl, sl, #4294967295	; 0xffffffff
1a001e40:	2903      	cmp	r1, #3
1a001e42:	eb02 0a4a 	add.w	sl, r2, sl, lsl #1
1a001e46:	9b0a      	ldr	r3, [sp, #40]	; 0x28
1a001e48:	d832      	bhi.n	1a001eb0 <arm_conv_fast_q15+0x1d0>
1a001e4a:	2b00      	cmp	r3, #0
1a001e4c:	f000 81e4 	beq.w	1a002218 <arm_conv_fast_q15+0x538>
1a001e50:	2900      	cmp	r1, #0
1a001e52:	f000 81ec 	beq.w	1a00222e <arm_conv_fast_q15+0x54e>
1a001e56:	2902      	cmp	r1, #2
1a001e58:	f000 81f4 	beq.w	1a002244 <arm_conv_fast_q15+0x564>
1a001e5c:	f1b9 0f00 	cmp.w	r9, #0
1a001e60:	f000 81aa 	beq.w	1a0021b8 <arm_conv_fast_q15+0x4d8>
1a001e64:	9b0a      	ldr	r3, [sp, #40]	; 0x28
1a001e66:	9a07      	ldr	r2, [sp, #28]
1a001e68:	9f18      	ldr	r7, [sp, #96]	; 0x60
1a001e6a:	ea4f 0843 	mov.w	r8, r3, lsl #1
1a001e6e:	9b18      	ldr	r3, [sp, #96]	; 0x60
1a001e70:	1e96      	subs	r6, r2, #2
1a001e72:	eb03 0e08 	add.w	lr, r3, r8
1a001e76:	4615      	mov	r5, r2
1a001e78:	1c94      	adds	r4, r2, #2
1a001e7a:	f935 2f02 	ldrsh.w	r2, [r5, #2]!
1a001e7e:	f93a 0c02 	ldrsh.w	r0, [sl, #-2]
1a001e82:	f936 3f02 	ldrsh.w	r3, [r6, #2]!
1a001e86:	f9ba 1000 	ldrsh.w	r1, [sl]
1a001e8a:	f934 cf02 	ldrsh.w	ip, [r4, #2]!
1a001e8e:	fb02 f000 	mul.w	r0, r2, r0
1a001e92:	f93a 2c04 	ldrsh.w	r2, [sl, #-4]
1a001e96:	fb03 0301 	mla	r3, r3, r1, r0
1a001e9a:	fb0c 3302 	mla	r3, ip, r2, r3
1a001e9e:	13db      	asrs	r3, r3, #15
1a001ea0:	f827 3b02 	strh.w	r3, [r7], #2
1a001ea4:	4577      	cmp	r7, lr
1a001ea6:	d1e8      	bne.n	1a001e7a <arm_conv_fast_q15+0x19a>
1a001ea8:	e10c      	b.n	1a0020c4 <arm_conv_fast_q15+0x3e4>
1a001eaa:	463b      	mov	r3, r7
1a001eac:	4640      	mov	r0, r8
1a001eae:	e7a6      	b.n	1a001dfe <arm_conv_fast_q15+0x11e>
1a001eb0:	089b      	lsrs	r3, r3, #2
1a001eb2:	461c      	mov	r4, r3
1a001eb4:	930b      	str	r3, [sp, #44]	; 0x2c
1a001eb6:	f000 81b3 	beq.w	1a002220 <arm_conv_fast_q15+0x540>
1a001eba:	f1aa 0002 	sub.w	r0, sl, #2
1a001ebe:	088b      	lsrs	r3, r1, #2
1a001ec0:	4606      	mov	r6, r0
1a001ec2:	9309      	str	r3, [sp, #36]	; 0x24
1a001ec4:	9008      	str	r0, [sp, #32]
1a001ec6:	00db      	lsls	r3, r3, #3
1a001ec8:	9807      	ldr	r0, [sp, #28]
1a001eca:	f8cd a030 	str.w	sl, [sp, #48]	; 0x30
1a001ece:	460d      	mov	r5, r1
1a001ed0:	461a      	mov	r2, r3
1a001ed2:	1d99      	adds	r1, r3, #6
1a001ed4:	3308      	adds	r3, #8
1a001ed6:	18c3      	adds	r3, r0, r3
1a001ed8:	f1c2 0208 	rsb	r2, r2, #8
1a001edc:	9301      	str	r3, [sp, #4]
1a001ede:	4633      	mov	r3, r6
1a001ee0:	4413      	add	r3, r2
1a001ee2:	9305      	str	r3, [sp, #20]
1a001ee4:	f005 0303 	and.w	r3, r5, #3
1a001ee8:	9303      	str	r3, [sp, #12]
1a001eea:	9b18      	ldr	r3, [sp, #96]	; 0x60
1a001eec:	f8cd 9034 	str.w	r9, [sp, #52]	; 0x34
1a001ef0:	3308      	adds	r3, #8
1a001ef2:	1841      	adds	r1, r0, r1
1a001ef4:	461a      	mov	r2, r3
1a001ef6:	9102      	str	r1, [sp, #8]
1a001ef8:	9404      	str	r4, [sp, #16]
1a001efa:	4682      	mov	sl, r0
1a001efc:	4691      	mov	r9, r2
1a001efe:	2300      	movs	r3, #0
1a001f00:	f8da 1000 	ldr.w	r1, [sl]
1a001f04:	f8da 0002 	ldr.w	r0, [sl, #2]
1a001f08:	f8dd c024 	ldr.w	ip, [sp, #36]	; 0x24
1a001f0c:	9f08      	ldr	r7, [sp, #32]
1a001f0e:	469e      	mov	lr, r3
1a001f10:	461d      	mov	r5, r3
1a001f12:	461e      	mov	r6, r3
1a001f14:	f10a 0404 	add.w	r4, sl, #4
1a001f18:	683a      	ldr	r2, [r7, #0]
1a001f1a:	fb21 6612 	smladx	r6, r1, r2, r6
1a001f1e:	fb20 5012 	smladx	r0, r0, r2, r5
1a001f22:	f8d4 8000 	ldr.w	r8, [r4]
1a001f26:	f8d4 5002 	ldr.w	r5, [r4, #2]
1a001f2a:	6861      	ldr	r1, [r4, #4]
1a001f2c:	fb28 ee12 	smladx	lr, r8, r2, lr
1a001f30:	fb25 3312 	smladx	r3, r5, r2, r3
1a001f34:	f937 2c04 	ldrsh.w	r2, [r7, #-4]
1a001f38:	f937 bc02 	ldrsh.w	fp, [r7, #-2]
1a001f3c:	b292      	uxth	r2, r2
1a001f3e:	ea42 420b 	orr.w	r2, r2, fp, lsl #16
1a001f42:	3f08      	subs	r7, #8
1a001f44:	fb28 6612 	smladx	r6, r8, r2, r6
1a001f48:	fb25 0512 	smladx	r5, r5, r2, r0
1a001f4c:	f8d4 0006 	ldr.w	r0, [r4, #6]
1a001f50:	f934 8f08 	ldrsh.w	r8, [r4, #8]!
1a001f54:	fb21 ee12 	smladx	lr, r1, r2, lr
1a001f58:	fb20 3312 	smladx	r3, r0, r2, r3
1a001f5c:	f1bc 0c01 	subs.w	ip, ip, #1
1a001f60:	d1da      	bne.n	1a001f18 <arm_conv_fast_q15+0x238>
1a001f62:	9a01      	ldr	r2, [sp, #4]
1a001f64:	1f14      	subs	r4, r2, #4
1a001f66:	9a03      	ldr	r2, [sp, #12]
1a001f68:	2a01      	cmp	r2, #1
1a001f6a:	f000 8112 	beq.w	1a002192 <arm_conv_fast_q15+0x4b2>
1a001f6e:	2a02      	cmp	r2, #2
1a001f70:	f000 80fc 	beq.w	1a00216c <arm_conv_fast_q15+0x48c>
1a001f74:	2a03      	cmp	r2, #3
1a001f76:	d11e      	bne.n	1a001fb6 <arm_conv_fast_q15+0x2d6>
1a001f78:	9f05      	ldr	r7, [sp, #20]
1a001f7a:	f837 2c08 	ldrh.w	r2, [r7, #-8]
1a001f7e:	f937 cc06 	ldrsh.w	ip, [r7, #-6]
1a001f82:	9f02      	ldr	r7, [sp, #8]
1a001f84:	ea42 420c 	orr.w	r2, r2, ip, lsl #16
1a001f88:	683f      	ldr	r7, [r7, #0]
1a001f8a:	fb21 6112 	smladx	r1, r1, r2, r6
1a001f8e:	fb20 5512 	smladx	r5, r0, r2, r5
1a001f92:	6824      	ldr	r4, [r4, #0]
1a001f94:	fb24 ee12 	smladx	lr, r4, r2, lr
1a001f98:	fb27 3212 	smladx	r2, r7, r2, r3
1a001f9c:	9b05      	ldr	r3, [sp, #20]
1a001f9e:	f833 3c0a 	ldrh.w	r3, [r3, #-10]
1a001fa2:	fb20 1613 	smladx	r6, r0, r3, r1
1a001fa6:	fb27 5503 	smlad	r5, r7, r3, r5
1a001faa:	fb27 ee13 	smladx	lr, r7, r3, lr
1a001fae:	9901      	ldr	r1, [sp, #4]
1a001fb0:	6809      	ldr	r1, [r1, #0]
1a001fb2:	fb21 2313 	smladx	r3, r1, r3, r2
1a001fb6:	13db      	asrs	r3, r3, #15
1a001fb8:	f829 3c02 	strh.w	r3, [r9, #-2]
1a001fbc:	9b02      	ldr	r3, [sp, #8]
1a001fbe:	3308      	adds	r3, #8
1a001fc0:	9302      	str	r3, [sp, #8]
1a001fc2:	9b01      	ldr	r3, [sp, #4]
1a001fc4:	3308      	adds	r3, #8
1a001fc6:	9301      	str	r3, [sp, #4]
1a001fc8:	9b04      	ldr	r3, [sp, #16]
1a001fca:	13f6      	asrs	r6, r6, #15
1a001fcc:	13e8      	asrs	r0, r5, #15
1a001fce:	ea4f 3eee 	mov.w	lr, lr, asr #15
1a001fd2:	3b01      	subs	r3, #1
1a001fd4:	f829 6c08 	strh.w	r6, [r9, #-8]
1a001fd8:	f829 0c06 	strh.w	r0, [r9, #-6]
1a001fdc:	f829 ec04 	strh.w	lr, [r9, #-4]
1a001fe0:	f10a 0a08 	add.w	sl, sl, #8
1a001fe4:	f109 0908 	add.w	r9, r9, #8
1a001fe8:	9304      	str	r3, [sp, #16]
1a001fea:	d188      	bne.n	1a001efe <arm_conv_fast_q15+0x21e>
1a001fec:	9b0b      	ldr	r3, [sp, #44]	; 0x2c
1a001fee:	9a18      	ldr	r2, [sp, #96]	; 0x60
1a001ff0:	f8dd a030 	ldr.w	sl, [sp, #48]	; 0x30
1a001ff4:	f8dd 9034 	ldr.w	r9, [sp, #52]	; 0x34
1a001ff8:	00df      	lsls	r7, r3, #3
1a001ffa:	443a      	add	r2, r7
1a001ffc:	9218      	str	r2, [sp, #96]	; 0x60
1a001ffe:	9a07      	ldr	r2, [sp, #28]
1a002000:	009b      	lsls	r3, r3, #2
1a002002:	4417      	add	r7, r2
1a002004:	9a0a      	ldr	r2, [sp, #40]	; 0x28
1a002006:	f012 0e03 	ands.w	lr, r2, #3
1a00200a:	f000 810b 	beq.w	1a002224 <arm_conv_fast_q15+0x544>
1a00200e:	9807      	ldr	r0, [sp, #28]
1a002010:	9906      	ldr	r1, [sp, #24]
1a002012:	f8cd 9014 	str.w	r9, [sp, #20]
1a002016:	3301      	adds	r3, #1
1a002018:	eb00 0c43 	add.w	ip, r0, r3, lsl #1
1a00201c:	9b18      	ldr	r3, [sp, #96]	; 0x60
1a00201e:	f8dd 9060 	ldr.w	r9, [sp, #96]	; 0x60
1a002022:	f8cd a010 	str.w	sl, [sp, #16]
1a002026:	088a      	lsrs	r2, r1, #2
1a002028:	eb03 0e4e 	add.w	lr, r3, lr, lsl #1
1a00202c:	00d3      	lsls	r3, r2, #3
1a00202e:	9301      	str	r3, [sp, #4]
1a002030:	ebaa 03c2 	sub.w	r3, sl, r2, lsl #3
1a002034:	9303      	str	r3, [sp, #12]
1a002036:	f1aa 0308 	sub.w	r3, sl, #8
1a00203a:	9202      	str	r2, [sp, #8]
1a00203c:	f001 0803 	and.w	r8, r1, #3
1a002040:	469a      	mov	sl, r3
1a002042:	9e02      	ldr	r6, [sp, #8]
1a002044:	f107 0508 	add.w	r5, r7, #8
1a002048:	4654      	mov	r4, sl
1a00204a:	2300      	movs	r3, #0
1a00204c:	f9b4 1008 	ldrsh.w	r1, [r4, #8]
1a002050:	f935 0c08 	ldrsh.w	r0, [r5, #-8]
1a002054:	f935 bc06 	ldrsh.w	fp, [r5, #-6]
1a002058:	f9b4 2006 	ldrsh.w	r2, [r4, #6]
1a00205c:	fb00 3001 	mla	r0, r0, r1, r3
1a002060:	f935 3c04 	ldrsh.w	r3, [r5, #-4]
1a002064:	f9b4 1004 	ldrsh.w	r1, [r4, #4]
1a002068:	fb0b 0002 	mla	r0, fp, r2, r0
1a00206c:	f935 bc02 	ldrsh.w	fp, [r5, #-2]
1a002070:	f9b4 2002 	ldrsh.w	r2, [r4, #2]
1a002074:	fb03 0301 	mla	r3, r3, r1, r0
1a002078:	3e01      	subs	r6, #1
1a00207a:	f105 0508 	add.w	r5, r5, #8
1a00207e:	fb0b 3302 	mla	r3, fp, r2, r3
1a002082:	f1a4 0408 	sub.w	r4, r4, #8
1a002086:	d1e1      	bne.n	1a00204c <arm_conv_fast_q15+0x36c>
1a002088:	9a01      	ldr	r2, [sp, #4]
1a00208a:	4417      	add	r7, r2
1a00208c:	f1b8 0f00 	cmp.w	r8, #0
1a002090:	d009      	beq.n	1a0020a6 <arm_conv_fast_q15+0x3c6>
1a002092:	9903      	ldr	r1, [sp, #12]
1a002094:	4642      	mov	r2, r8
1a002096:	f937 4b02 	ldrsh.w	r4, [r7], #2
1a00209a:	f931 0902 	ldrsh.w	r0, [r1], #-2
1a00209e:	3a01      	subs	r2, #1
1a0020a0:	fb04 3300 	mla	r3, r4, r0, r3
1a0020a4:	d1f7      	bne.n	1a002096 <arm_conv_fast_q15+0x3b6>
1a0020a6:	13db      	asrs	r3, r3, #15
1a0020a8:	f829 3b02 	strh.w	r3, [r9], #2
1a0020ac:	45f1      	cmp	r9, lr
1a0020ae:	4667      	mov	r7, ip
1a0020b0:	f10c 0c02 	add.w	ip, ip, #2
1a0020b4:	d1c5      	bne.n	1a002042 <arm_conv_fast_q15+0x362>
1a0020b6:	9b0a      	ldr	r3, [sp, #40]	; 0x28
1a0020b8:	f8dd a010 	ldr.w	sl, [sp, #16]
1a0020bc:	f8dd 9014 	ldr.w	r9, [sp, #20]
1a0020c0:	ea4f 0843 	mov.w	r8, r3, lsl #1
1a0020c4:	9b07      	ldr	r3, [sp, #28]
1a0020c6:	ea4f 0c99 	mov.w	ip, r9, lsr #2
1a0020ca:	4443      	add	r3, r8
1a0020cc:	4698      	mov	r8, r3
1a0020ce:	46e3      	mov	fp, ip
1a0020d0:	f1bc 0f00 	cmp.w	ip, #0
1a0020d4:	f000 8086 	beq.w	1a0021e4 <arm_conv_fast_q15+0x504>
1a0020d8:	4666      	mov	r6, ip
1a0020da:	464f      	mov	r7, r9
1a0020dc:	2e00      	cmp	r6, #0
1a0020de:	d041      	beq.n	1a002164 <arm_conv_fast_q15+0x484>
1a0020e0:	f108 0408 	add.w	r4, r8, #8
1a0020e4:	f1aa 0008 	sub.w	r0, sl, #8
1a0020e8:	4635      	mov	r5, r6
1a0020ea:	2300      	movs	r3, #0
1a0020ec:	f934 1c08 	ldrsh.w	r1, [r4, #-8]
1a0020f0:	f9b0 2008 	ldrsh.w	r2, [r0, #8]
1a0020f4:	f934 9c06 	ldrsh.w	r9, [r4, #-6]
1a0020f8:	f9b0 c006 	ldrsh.w	ip, [r0, #6]
1a0020fc:	fb01 3202 	mla	r2, r1, r2, r3
1a002100:	f934 3c04 	ldrsh.w	r3, [r4, #-4]
1a002104:	f9b0 1004 	ldrsh.w	r1, [r0, #4]
1a002108:	fb09 220c 	mla	r2, r9, ip, r2
1a00210c:	f934 9c02 	ldrsh.w	r9, [r4, #-2]
1a002110:	f9b0 c002 	ldrsh.w	ip, [r0, #2]
1a002114:	fb03 2201 	mla	r2, r3, r1, r2
1a002118:	3d01      	subs	r5, #1
1a00211a:	f104 0408 	add.w	r4, r4, #8
1a00211e:	fb09 230c 	mla	r3, r9, ip, r2
1a002122:	f1a0 0008 	sub.w	r0, r0, #8
1a002126:	d1e1      	bne.n	1a0020ec <arm_conv_fast_q15+0x40c>
1a002128:	eb08 01c6 	add.w	r1, r8, r6, lsl #3
1a00212c:	ebaa 06c6 	sub.w	r6, sl, r6, lsl #3
1a002130:	f017 0203 	ands.w	r2, r7, #3
1a002134:	d007      	beq.n	1a002146 <arm_conv_fast_q15+0x466>
1a002136:	f931 4b02 	ldrsh.w	r4, [r1], #2
1a00213a:	f936 0902 	ldrsh.w	r0, [r6], #-2
1a00213e:	3a01      	subs	r2, #1
1a002140:	fb04 3300 	mla	r3, r4, r0, r3
1a002144:	d1f7      	bne.n	1a002136 <arm_conv_fast_q15+0x456>
1a002146:	13db      	asrs	r3, r3, #15
1a002148:	f1bb 0b01 	subs.w	fp, fp, #1
1a00214c:	f82e 3b02 	strh.w	r3, [lr], #2
1a002150:	f108 0802 	add.w	r8, r8, #2
1a002154:	f107 37ff 	add.w	r7, r7, #4294967295	; 0xffffffff
1a002158:	d043      	beq.n	1a0021e2 <arm_conv_fast_q15+0x502>
1a00215a:	2f00      	cmp	r7, #0
1a00215c:	d03e      	beq.n	1a0021dc <arm_conv_fast_q15+0x4fc>
1a00215e:	08be      	lsrs	r6, r7, #2
1a002160:	2e00      	cmp	r6, #0
1a002162:	d1bd      	bne.n	1a0020e0 <arm_conv_fast_q15+0x400>
1a002164:	4633      	mov	r3, r6
1a002166:	4641      	mov	r1, r8
1a002168:	4656      	mov	r6, sl
1a00216a:	e7e1      	b.n	1a002130 <arm_conv_fast_q15+0x450>
1a00216c:	9f05      	ldr	r7, [sp, #20]
1a00216e:	f837 2c08 	ldrh.w	r2, [r7, #-8]
1a002172:	f937 7c06 	ldrsh.w	r7, [r7, #-6]
1a002176:	ea42 4207 	orr.w	r2, r2, r7, lsl #16
1a00217a:	fb21 6612 	smladx	r6, r1, r2, r6
1a00217e:	fb20 5512 	smladx	r5, r0, r2, r5
1a002182:	6821      	ldr	r1, [r4, #0]
1a002184:	fb21 ee12 	smladx	lr, r1, r2, lr
1a002188:	9902      	ldr	r1, [sp, #8]
1a00218a:	6809      	ldr	r1, [r1, #0]
1a00218c:	fb21 3312 	smladx	r3, r1, r2, r3
1a002190:	e711      	b.n	1a001fb6 <arm_conv_fast_q15+0x2d6>
1a002192:	9a05      	ldr	r2, [sp, #20]
1a002194:	f832 2c06 	ldrh.w	r2, [r2, #-6]
1a002198:	fb21 6602 	smlad	r6, r1, r2, r6
1a00219c:	fb20 5502 	smlad	r5, r0, r2, r5
1a0021a0:	fb20 ee12 	smladx	lr, r0, r2, lr
1a0021a4:	9901      	ldr	r1, [sp, #4]
1a0021a6:	f931 1c02 	ldrsh.w	r1, [r1, #-2]
1a0021aa:	fa1f f888 	uxth.w	r8, r8
1a0021ae:	ea48 4801 	orr.w	r8, r8, r1, lsl #16
1a0021b2:	fb28 3312 	smladx	r3, r8, r2, r3
1a0021b6:	e6fe      	b.n	1a001fb6 <arm_conv_fast_q15+0x2d6>
1a0021b8:	9b07      	ldr	r3, [sp, #28]
1a0021ba:	9a0a      	ldr	r2, [sp, #40]	; 0x28
1a0021bc:	1e99      	subs	r1, r3, #2
1a0021be:	9b18      	ldr	r3, [sp, #96]	; 0x60
1a0021c0:	eb03 0e42 	add.w	lr, r3, r2, lsl #1
1a0021c4:	461a      	mov	r2, r3
1a0021c6:	f931 0f02 	ldrsh.w	r0, [r1, #2]!
1a0021ca:	f9ba 3000 	ldrsh.w	r3, [sl]
1a0021ce:	fb03 f300 	mul.w	r3, r3, r0
1a0021d2:	13db      	asrs	r3, r3, #15
1a0021d4:	f822 3b02 	strh.w	r3, [r2], #2
1a0021d8:	4596      	cmp	lr, r2
1a0021da:	d1f4      	bne.n	1a0021c6 <arm_conv_fast_q15+0x4e6>
1a0021dc:	b00f      	add	sp, #60	; 0x3c
1a0021de:	e8bd 8ff0 	ldmia.w	sp!, {r4, r5, r6, r7, r8, r9, sl, fp, pc}
1a0021e2:	46b9      	mov	r9, r7
1a0021e4:	f1b9 0f00 	cmp.w	r9, #0
1a0021e8:	d0f8      	beq.n	1a0021dc <arm_conv_fast_q15+0x4fc>
1a0021ea:	464b      	mov	r3, r9
1a0021ec:	4650      	mov	r0, sl
1a0021ee:	4641      	mov	r1, r8
1a0021f0:	2200      	movs	r2, #0
1a0021f2:	f931 5b02 	ldrsh.w	r5, [r1], #2
1a0021f6:	f930 4902 	ldrsh.w	r4, [r0], #-2
1a0021fa:	3b01      	subs	r3, #1
1a0021fc:	fb05 2204 	mla	r2, r5, r4, r2
1a002200:	d1f7      	bne.n	1a0021f2 <arm_conv_fast_q15+0x512>
1a002202:	13d2      	asrs	r2, r2, #15
1a002204:	f1b9 0901 	subs.w	r9, r9, #1
1a002208:	f82e 2b02 	strh.w	r2, [lr], #2
1a00220c:	f108 0802 	add.w	r8, r8, #2
1a002210:	d1eb      	bne.n	1a0021ea <arm_conv_fast_q15+0x50a>
1a002212:	b00f      	add	sp, #60	; 0x3c
1a002214:	e8bd 8ff0 	ldmia.w	sp!, {r4, r5, r6, r7, r8, r9, sl, fp, pc}
1a002218:	f8dd e060 	ldr.w	lr, [sp, #96]	; 0x60
1a00221c:	4698      	mov	r8, r3
1a00221e:	e751      	b.n	1a0020c4 <arm_conv_fast_q15+0x3e4>
1a002220:	9f07      	ldr	r7, [sp, #28]
1a002222:	e6ef      	b.n	1a002004 <arm_conv_fast_q15+0x324>
1a002224:	f8dd e060 	ldr.w	lr, [sp, #96]	; 0x60
1a002228:	ea4f 0842 	mov.w	r8, r2, lsl #1
1a00222c:	e74a      	b.n	1a0020c4 <arm_conv_fast_q15+0x3e4>
1a00222e:	9b0a      	ldr	r3, [sp, #40]	; 0x28
1a002230:	9818      	ldr	r0, [sp, #96]	; 0x60
1a002232:	ea4f 0843 	mov.w	r8, r3, lsl #1
1a002236:	4642      	mov	r2, r8
1a002238:	f000 fdfe 	bl	1a002e38 <memset>
1a00223c:	9b18      	ldr	r3, [sp, #96]	; 0x60
1a00223e:	eb03 0e08 	add.w	lr, r3, r8
1a002242:	e73f      	b.n	1a0020c4 <arm_conv_fast_q15+0x3e4>
1a002244:	f1b9 0f00 	cmp.w	r9, #0
1a002248:	d01d      	beq.n	1a002286 <arm_conv_fast_q15+0x5a6>
1a00224a:	9b0a      	ldr	r3, [sp, #40]	; 0x28
1a00224c:	9c07      	ldr	r4, [sp, #28]
1a00224e:	ea4f 0843 	mov.w	r8, r3, lsl #1
1a002252:	9b18      	ldr	r3, [sp, #96]	; 0x60
1a002254:	eb03 0e08 	add.w	lr, r3, r8
1a002258:	4618      	mov	r0, r3
1a00225a:	f9b4 5000 	ldrsh.w	r5, [r4]
1a00225e:	f93a 3c02 	ldrsh.w	r3, [sl, #-2]
1a002262:	f934 1f02 	ldrsh.w	r1, [r4, #2]!
1a002266:	f9ba 2000 	ldrsh.w	r2, [sl]
1a00226a:	fb01 f303 	mul.w	r3, r1, r3
1a00226e:	fb05 3302 	mla	r3, r5, r2, r3
1a002272:	13db      	asrs	r3, r3, #15
1a002274:	f820 3b02 	strh.w	r3, [r0], #2
1a002278:	4586      	cmp	lr, r0
1a00227a:	d1ee      	bne.n	1a00225a <arm_conv_fast_q15+0x57a>
1a00227c:	e722      	b.n	1a0020c4 <arm_conv_fast_q15+0x3e4>
1a00227e:	9b01      	ldr	r3, [sp, #4]
1a002280:	9318      	str	r3, [sp, #96]	; 0x60
1a002282:	4639      	mov	r1, r7
1a002284:	e5d8      	b.n	1a001e38 <arm_conv_fast_q15+0x158>
1a002286:	9b07      	ldr	r3, [sp, #28]
1a002288:	9a0a      	ldr	r2, [sp, #40]	; 0x28
1a00228a:	1e99      	subs	r1, r3, #2
1a00228c:	9b18      	ldr	r3, [sp, #96]	; 0x60
1a00228e:	eb03 0e42 	add.w	lr, r3, r2, lsl #1
1a002292:	461a      	mov	r2, r3
1a002294:	f931 0f02 	ldrsh.w	r0, [r1, #2]!
1a002298:	f9ba 3000 	ldrsh.w	r3, [sl]
1a00229c:	fb03 f300 	mul.w	r3, r3, r0
1a0022a0:	13db      	asrs	r3, r3, #15
1a0022a2:	f822 3b02 	strh.w	r3, [r2], #2
1a0022a6:	4596      	cmp	lr, r2
1a0022a8:	d1f4      	bne.n	1a002294 <arm_conv_fast_q15+0x5b4>
1a0022aa:	e797      	b.n	1a0021dc <arm_conv_fast_q15+0x4fc>

1a0022ac <arm_cmplx_mag_squared_q15>:
1a0022ac:	e92d 41f0 	stmdb	sp!, {r4, r5, r6, r7, r8, lr}
1a0022b0:	ea5f 0e92 	movs.w	lr, r2, lsr #2
1a0022b4:	d02c      	beq.n	1a002310 <arm_cmplx_mag_squared_q15+0x64>
1a0022b6:	f100 0610 	add.w	r6, r0, #16
1a0022ba:	f101 0508 	add.w	r5, r1, #8
1a0022be:	4677      	mov	r7, lr
1a0022c0:	f856 3c10 	ldr.w	r3, [r6, #-16]
1a0022c4:	fb23 f803 	smuad	r8, r3, r3
1a0022c8:	f856 3c0c 	ldr.w	r3, [r6, #-12]
1a0022cc:	fb23 fc03 	smuad	ip, r3, r3
1a0022d0:	f856 3c08 	ldr.w	r3, [r6, #-8]
1a0022d4:	fb23 f403 	smuad	r4, r3, r3
1a0022d8:	f856 3c04 	ldr.w	r3, [r6, #-4]
1a0022dc:	fb23 f303 	smuad	r3, r3, r3
1a0022e0:	ea4f 4868 	mov.w	r8, r8, asr #17
1a0022e4:	ea4f 4c6c 	mov.w	ip, ip, asr #17
1a0022e8:	1464      	asrs	r4, r4, #17
1a0022ea:	145b      	asrs	r3, r3, #17
1a0022ec:	3f01      	subs	r7, #1
1a0022ee:	f825 8c08 	strh.w	r8, [r5, #-8]
1a0022f2:	f825 cc06 	strh.w	ip, [r5, #-6]
1a0022f6:	f825 4c04 	strh.w	r4, [r5, #-4]
1a0022fa:	f825 3c02 	strh.w	r3, [r5, #-2]
1a0022fe:	f106 0610 	add.w	r6, r6, #16
1a002302:	f105 0508 	add.w	r5, r5, #8
1a002306:	d1db      	bne.n	1a0022c0 <arm_cmplx_mag_squared_q15+0x14>
1a002308:	eb00 100e 	add.w	r0, r0, lr, lsl #4
1a00230c:	eb01 01ce 	add.w	r1, r1, lr, lsl #3
1a002310:	f012 0203 	ands.w	r2, r2, #3
1a002314:	d008      	beq.n	1a002328 <arm_cmplx_mag_squared_q15+0x7c>
1a002316:	f850 3b04 	ldr.w	r3, [r0], #4
1a00231a:	fb23 f303 	smuad	r3, r3, r3
1a00231e:	145b      	asrs	r3, r3, #17
1a002320:	3a01      	subs	r2, #1
1a002322:	f821 3b02 	strh.w	r3, [r1], #2
1a002326:	d1f6      	bne.n	1a002316 <arm_cmplx_mag_squared_q15+0x6a>
1a002328:	e8bd 81f0 	ldmia.w	sp!, {r4, r5, r6, r7, r8, pc}

1a00232c <arm_cfft_radix4by2_q15>:
1a00232c:	e92d 4ff0 	stmdb	sp!, {r4, r5, r6, r7, r8, r9, sl, fp, lr}
1a002330:	084d      	lsrs	r5, r1, #1
1a002332:	b081      	sub	sp, #4
1a002334:	eb00 0741 	add.w	r7, r0, r1, lsl #1
1a002338:	4616      	mov	r6, r2
1a00233a:	d04d      	beq.n	1a0023d8 <arm_cfft_radix4by2_q15+0xac>
1a00233c:	4604      	mov	r4, r0
1a00233e:	4686      	mov	lr, r0
1a002340:	46bc      	mov	ip, r7
1a002342:	4691      	mov	r9, r2
1a002344:	4628      	mov	r0, r5
1a002346:	f04f 0800 	mov.w	r8, #0
1a00234a:	f859 2b04 	ldr.w	r2, [r9], #4
1a00234e:	f8de 3000 	ldr.w	r3, [lr]
1a002352:	fa93 fa28 	shadd16	sl, r3, r8
1a002356:	f8dc 1000 	ldr.w	r1, [ip]
1a00235a:	fa91 f128 	shadd16	r1, r1, r8
1a00235e:	fada fb11 	qsub16	fp, sl, r1
1a002362:	fa9a f121 	shadd16	r1, sl, r1
1a002366:	f84e 1b04 	str.w	r1, [lr], #4
1a00236a:	fb22 f10b 	smuad	r1, r2, fp
1a00236e:	fb42 f21b 	smusdx	r2, r2, fp
1a002372:	0c13      	lsrs	r3, r2, #16
1a002374:	041b      	lsls	r3, r3, #16
1a002376:	ea43 4311 	orr.w	r3, r3, r1, lsr #16
1a00237a:	3801      	subs	r0, #1
1a00237c:	f84c 3b04 	str.w	r3, [ip], #4
1a002380:	d1e3      	bne.n	1a00234a <arm_cfft_radix4by2_q15+0x1e>
1a002382:	4629      	mov	r1, r5
1a002384:	2302      	movs	r3, #2
1a002386:	4632      	mov	r2, r6
1a002388:	4620      	mov	r0, r4
1a00238a:	f000 f955 	bl	1a002638 <arm_radix4_butterfly_q15>
1a00238e:	2302      	movs	r3, #2
1a002390:	4629      	mov	r1, r5
1a002392:	4632      	mov	r2, r6
1a002394:	4638      	mov	r0, r7
1a002396:	f000 f94f 	bl	1a002638 <arm_radix4_butterfly_q15>
1a00239a:	eb04 05c5 	add.w	r5, r4, r5, lsl #3
1a00239e:	1ca3      	adds	r3, r4, #2
1a0023a0:	f933 7c02 	ldrsh.w	r7, [r3, #-2]
1a0023a4:	f9b4 6002 	ldrsh.w	r6, [r4, #2]
1a0023a8:	f9b4 0004 	ldrsh.w	r0, [r4, #4]
1a0023ac:	f9b4 2006 	ldrsh.w	r2, [r4, #6]
1a0023b0:	007f      	lsls	r7, r7, #1
1a0023b2:	0076      	lsls	r6, r6, #1
1a0023b4:	0040      	lsls	r0, r0, #1
1a0023b6:	0052      	lsls	r2, r2, #1
1a0023b8:	f823 7c02 	strh.w	r7, [r3, #-2]
1a0023bc:	3408      	adds	r4, #8
1a0023be:	f824 6c06 	strh.w	r6, [r4, #-6]
1a0023c2:	f824 0c04 	strh.w	r0, [r4, #-4]
1a0023c6:	f824 2c02 	strh.w	r2, [r4, #-2]
1a0023ca:	42a5      	cmp	r5, r4
1a0023cc:	f103 0308 	add.w	r3, r3, #8
1a0023d0:	d1e6      	bne.n	1a0023a0 <arm_cfft_radix4by2_q15+0x74>
1a0023d2:	b001      	add	sp, #4
1a0023d4:	e8bd 8ff0 	ldmia.w	sp!, {r4, r5, r6, r7, r8, r9, sl, fp, pc}
1a0023d8:	4629      	mov	r1, r5
1a0023da:	2302      	movs	r3, #2
1a0023dc:	f000 f92c 	bl	1a002638 <arm_radix4_butterfly_q15>
1a0023e0:	4632      	mov	r2, r6
1a0023e2:	4629      	mov	r1, r5
1a0023e4:	4638      	mov	r0, r7
1a0023e6:	2302      	movs	r3, #2
1a0023e8:	b001      	add	sp, #4
1a0023ea:	e8bd 4ff0 	ldmia.w	sp!, {r4, r5, r6, r7, r8, r9, sl, fp, lr}
1a0023ee:	f000 b923 	b.w	1a002638 <arm_radix4_butterfly_q15>
1a0023f2:	bf00      	nop

1a0023f4 <arm_cfft_radix4by2_inverse_q15>:
1a0023f4:	e92d 4ff0 	stmdb	sp!, {r4, r5, r6, r7, r8, r9, sl, fp, lr}
1a0023f8:	084d      	lsrs	r5, r1, #1
1a0023fa:	b081      	sub	sp, #4
1a0023fc:	eb00 0741 	add.w	r7, r0, r1, lsl #1
1a002400:	4616      	mov	r6, r2
1a002402:	d04d      	beq.n	1a0024a0 <arm_cfft_radix4by2_inverse_q15+0xac>
1a002404:	4604      	mov	r4, r0
1a002406:	4686      	mov	lr, r0
1a002408:	46bc      	mov	ip, r7
1a00240a:	4691      	mov	r9, r2
1a00240c:	4628      	mov	r0, r5
1a00240e:	f04f 0800 	mov.w	r8, #0
1a002412:	f859 2b04 	ldr.w	r2, [r9], #4
1a002416:	f8de 3000 	ldr.w	r3, [lr]
1a00241a:	fa93 fa28 	shadd16	sl, r3, r8
1a00241e:	f8dc 1000 	ldr.w	r1, [ip]
1a002422:	fa91 f128 	shadd16	r1, r1, r8
1a002426:	fada fb11 	qsub16	fp, sl, r1
1a00242a:	fa9a f121 	shadd16	r1, sl, r1
1a00242e:	f84e 1b04 	str.w	r1, [lr], #4
1a002432:	fb42 f10b 	smusd	r1, r2, fp
1a002436:	fb22 f21b 	smuadx	r2, r2, fp
1a00243a:	0c13      	lsrs	r3, r2, #16
1a00243c:	041b      	lsls	r3, r3, #16
1a00243e:	ea43 4311 	orr.w	r3, r3, r1, lsr #16
1a002442:	3801      	subs	r0, #1
1a002444:	f84c 3b04 	str.w	r3, [ip], #4
1a002448:	d1e3      	bne.n	1a002412 <arm_cfft_radix4by2_inverse_q15+0x1e>
1a00244a:	4629      	mov	r1, r5
1a00244c:	2302      	movs	r3, #2
1a00244e:	4632      	mov	r2, r6
1a002450:	4620      	mov	r0, r4
1a002452:	f000 fa1f 	bl	1a002894 <arm_radix4_butterfly_inverse_q15>
1a002456:	2302      	movs	r3, #2
1a002458:	4629      	mov	r1, r5
1a00245a:	4632      	mov	r2, r6
1a00245c:	4638      	mov	r0, r7
1a00245e:	f000 fa19 	bl	1a002894 <arm_radix4_butterfly_inverse_q15>
1a002462:	eb04 05c5 	add.w	r5, r4, r5, lsl #3
1a002466:	1ca3      	adds	r3, r4, #2
1a002468:	f933 7c02 	ldrsh.w	r7, [r3, #-2]
1a00246c:	f9b4 6002 	ldrsh.w	r6, [r4, #2]
1a002470:	f9b4 0004 	ldrsh.w	r0, [r4, #4]
1a002474:	f9b4 2006 	ldrsh.w	r2, [r4, #6]
1a002478:	007f      	lsls	r7, r7, #1
1a00247a:	0076      	lsls	r6, r6, #1
1a00247c:	0040      	lsls	r0, r0, #1
1a00247e:	0052      	lsls	r2, r2, #1
1a002480:	f823 7c02 	strh.w	r7, [r3, #-2]
1a002484:	3408      	adds	r4, #8
1a002486:	f824 6c06 	strh.w	r6, [r4, #-6]
1a00248a:	f824 0c04 	strh.w	r0, [r4, #-4]
1a00248e:	f824 2c02 	strh.w	r2, [r4, #-2]
1a002492:	42a5      	cmp	r5, r4
1a002494:	f103 0308 	add.w	r3, r3, #8
1a002498:	d1e6      	bne.n	1a002468 <arm_cfft_radix4by2_inverse_q15+0x74>
1a00249a:	b001      	add	sp, #4
1a00249c:	e8bd 8ff0 	ldmia.w	sp!, {r4, r5, r6, r7, r8, r9, sl, fp, pc}
1a0024a0:	4629      	mov	r1, r5
1a0024a2:	2302      	movs	r3, #2
1a0024a4:	f000 f9f6 	bl	1a002894 <arm_radix4_butterfly_inverse_q15>
1a0024a8:	4632      	mov	r2, r6
1a0024aa:	4629      	mov	r1, r5
1a0024ac:	4638      	mov	r0, r7
1a0024ae:	2302      	movs	r3, #2
1a0024b0:	b001      	add	sp, #4
1a0024b2:	e8bd 4ff0 	ldmia.w	sp!, {r4, r5, r6, r7, r8, r9, sl, fp, lr}
1a0024b6:	f000 b9ed 	b.w	1a002894 <arm_radix4_butterfly_inverse_q15>
1a0024ba:	bf00      	nop

1a0024bc <arm_cfft_q15>:
1a0024bc:	b570      	push	{r4, r5, r6, lr}
1a0024be:	2a01      	cmp	r2, #1
1a0024c0:	460d      	mov	r5, r1
1a0024c2:	4604      	mov	r4, r0
1a0024c4:	461e      	mov	r6, r3
1a0024c6:	8801      	ldrh	r1, [r0, #0]
1a0024c8:	d024      	beq.n	1a002514 <arm_cfft_q15+0x58>
1a0024ca:	f5b1 7f80 	cmp.w	r1, #256	; 0x100
1a0024ce:	d013      	beq.n	1a0024f8 <arm_cfft_q15+0x3c>
1a0024d0:	d808      	bhi.n	1a0024e4 <arm_cfft_q15+0x28>
1a0024d2:	2920      	cmp	r1, #32
1a0024d4:	d031      	beq.n	1a00253a <arm_cfft_q15+0x7e>
1a0024d6:	d945      	bls.n	1a002564 <arm_cfft_q15+0xa8>
1a0024d8:	2940      	cmp	r1, #64	; 0x40
1a0024da:	d00d      	beq.n	1a0024f8 <arm_cfft_q15+0x3c>
1a0024dc:	2980      	cmp	r1, #128	; 0x80
1a0024de:	d02c      	beq.n	1a00253a <arm_cfft_q15+0x7e>
1a0024e0:	b98e      	cbnz	r6, 1a002506 <arm_cfft_q15+0x4a>
1a0024e2:	bd70      	pop	{r4, r5, r6, pc}
1a0024e4:	f5b1 6f80 	cmp.w	r1, #1024	; 0x400
1a0024e8:	d006      	beq.n	1a0024f8 <arm_cfft_q15+0x3c>
1a0024ea:	d923      	bls.n	1a002534 <arm_cfft_q15+0x78>
1a0024ec:	f5b1 6f00 	cmp.w	r1, #2048	; 0x800
1a0024f0:	d023      	beq.n	1a00253a <arm_cfft_q15+0x7e>
1a0024f2:	f5b1 5f80 	cmp.w	r1, #4096	; 0x1000
1a0024f6:	d1f3      	bne.n	1a0024e0 <arm_cfft_q15+0x24>
1a0024f8:	2301      	movs	r3, #1
1a0024fa:	6862      	ldr	r2, [r4, #4]
1a0024fc:	4628      	mov	r0, r5
1a0024fe:	f000 f89b 	bl	1a002638 <arm_radix4_butterfly_q15>
1a002502:	2e00      	cmp	r6, #0
1a002504:	d0ed      	beq.n	1a0024e2 <arm_cfft_q15+0x26>
1a002506:	4628      	mov	r0, r5
1a002508:	68a2      	ldr	r2, [r4, #8]
1a00250a:	89a1      	ldrh	r1, [r4, #12]
1a00250c:	e8bd 4070 	ldmia.w	sp!, {r4, r5, r6, lr}
1a002510:	f000 b867 	b.w	1a0025e2 <arm_bitreversal_16>
1a002514:	f5b1 7f80 	cmp.w	r1, #256	; 0x100
1a002518:	d01e      	beq.n	1a002558 <arm_cfft_q15+0x9c>
1a00251a:	d813      	bhi.n	1a002544 <arm_cfft_q15+0x88>
1a00251c:	2920      	cmp	r1, #32
1a00251e:	d004      	beq.n	1a00252a <arm_cfft_q15+0x6e>
1a002520:	d927      	bls.n	1a002572 <arm_cfft_q15+0xb6>
1a002522:	2940      	cmp	r1, #64	; 0x40
1a002524:	d018      	beq.n	1a002558 <arm_cfft_q15+0x9c>
1a002526:	2980      	cmp	r1, #128	; 0x80
1a002528:	d1da      	bne.n	1a0024e0 <arm_cfft_q15+0x24>
1a00252a:	6862      	ldr	r2, [r4, #4]
1a00252c:	4628      	mov	r0, r5
1a00252e:	f7ff ff61 	bl	1a0023f4 <arm_cfft_radix4by2_inverse_q15>
1a002532:	e7d5      	b.n	1a0024e0 <arm_cfft_q15+0x24>
1a002534:	f5b1 7f00 	cmp.w	r1, #512	; 0x200
1a002538:	d1d2      	bne.n	1a0024e0 <arm_cfft_q15+0x24>
1a00253a:	6862      	ldr	r2, [r4, #4]
1a00253c:	4628      	mov	r0, r5
1a00253e:	f7ff fef5 	bl	1a00232c <arm_cfft_radix4by2_q15>
1a002542:	e7cd      	b.n	1a0024e0 <arm_cfft_q15+0x24>
1a002544:	f5b1 6f80 	cmp.w	r1, #1024	; 0x400
1a002548:	d006      	beq.n	1a002558 <arm_cfft_q15+0x9c>
1a00254a:	d90e      	bls.n	1a00256a <arm_cfft_q15+0xae>
1a00254c:	f5b1 6f00 	cmp.w	r1, #2048	; 0x800
1a002550:	d0eb      	beq.n	1a00252a <arm_cfft_q15+0x6e>
1a002552:	f5b1 5f80 	cmp.w	r1, #4096	; 0x1000
1a002556:	d1c3      	bne.n	1a0024e0 <arm_cfft_q15+0x24>
1a002558:	2301      	movs	r3, #1
1a00255a:	6862      	ldr	r2, [r4, #4]
1a00255c:	4628      	mov	r0, r5
1a00255e:	f000 f999 	bl	1a002894 <arm_radix4_butterfly_inverse_q15>
1a002562:	e7bd      	b.n	1a0024e0 <arm_cfft_q15+0x24>
1a002564:	2910      	cmp	r1, #16
1a002566:	d1bb      	bne.n	1a0024e0 <arm_cfft_q15+0x24>
1a002568:	e7c6      	b.n	1a0024f8 <arm_cfft_q15+0x3c>
1a00256a:	f5b1 7f00 	cmp.w	r1, #512	; 0x200
1a00256e:	d0dc      	beq.n	1a00252a <arm_cfft_q15+0x6e>
1a002570:	e7b6      	b.n	1a0024e0 <arm_cfft_q15+0x24>
1a002572:	2910      	cmp	r1, #16
1a002574:	d1b4      	bne.n	1a0024e0 <arm_cfft_q15+0x24>
1a002576:	e7ef      	b.n	1a002558 <arm_cfft_q15+0x9c>

1a002578 <arm_bitreversal_32>:
1a002578:	1c4b      	adds	r3, r1, #1
1a00257a:	2b01      	cmp	r3, #1
1a00257c:	bf98      	it	ls
1a00257e:	4770      	bxls	lr
1a002580:	e92d 03f0 	stmdb	sp!, {r4, r5, r6, r7, r8, r9}
1a002584:	1c91      	adds	r1, r2, #2
1a002586:	089b      	lsrs	r3, r3, #2

1a002588 <arm_bitreversal_32_0>:
1a002588:	f8b1 8004 	ldrh.w	r8, [r1, #4]
1a00258c:	f8b1 9002 	ldrh.w	r9, [r1, #2]
1a002590:	880a      	ldrh	r2, [r1, #0]
1a002592:	f831 cc02 	ldrh.w	ip, [r1, #-2]
1a002596:	4480      	add	r8, r0
1a002598:	4481      	add	r9, r0
1a00259a:	4402      	add	r2, r0
1a00259c:	4484      	add	ip, r0
1a00259e:	f8d9 7000 	ldr.w	r7, [r9]
1a0025a2:	f8d8 6000 	ldr.w	r6, [r8]
1a0025a6:	6815      	ldr	r5, [r2, #0]
1a0025a8:	f8dc 4000 	ldr.w	r4, [ip]
1a0025ac:	f8c9 6000 	str.w	r6, [r9]
1a0025b0:	f8c8 7000 	str.w	r7, [r8]
1a0025b4:	f8cc 5000 	str.w	r5, [ip]
1a0025b8:	6014      	str	r4, [r2, #0]
1a0025ba:	f8d9 7004 	ldr.w	r7, [r9, #4]
1a0025be:	f8d8 6004 	ldr.w	r6, [r8, #4]
1a0025c2:	6855      	ldr	r5, [r2, #4]
1a0025c4:	f8dc 4004 	ldr.w	r4, [ip, #4]
1a0025c8:	f8c9 6004 	str.w	r6, [r9, #4]
1a0025cc:	f8c8 7004 	str.w	r7, [r8, #4]
1a0025d0:	f8cc 5004 	str.w	r5, [ip, #4]
1a0025d4:	6054      	str	r4, [r2, #4]
1a0025d6:	3108      	adds	r1, #8
1a0025d8:	3b01      	subs	r3, #1
1a0025da:	d1d5      	bne.n	1a002588 <arm_bitreversal_32_0>
1a0025dc:	e8bd 03f0 	ldmia.w	sp!, {r4, r5, r6, r7, r8, r9}
1a0025e0:	4770      	bx	lr

1a0025e2 <arm_bitreversal_16>:
1a0025e2:	1c4b      	adds	r3, r1, #1
1a0025e4:	2b01      	cmp	r3, #1
1a0025e6:	bf98      	it	ls
1a0025e8:	4770      	bxls	lr
1a0025ea:	e92d 03f0 	stmdb	sp!, {r4, r5, r6, r7, r8, r9}
1a0025ee:	1c91      	adds	r1, r2, #2
1a0025f0:	089b      	lsrs	r3, r3, #2

1a0025f2 <arm_bitreversal_16_0>:
1a0025f2:	f8b1 8004 	ldrh.w	r8, [r1, #4]
1a0025f6:	f8b1 9002 	ldrh.w	r9, [r1, #2]
1a0025fa:	880a      	ldrh	r2, [r1, #0]
1a0025fc:	f831 cc02 	ldrh.w	ip, [r1, #-2]
1a002600:	eb00 0858 	add.w	r8, r0, r8, lsr #1
1a002604:	eb00 0959 	add.w	r9, r0, r9, lsr #1
1a002608:	eb00 0252 	add.w	r2, r0, r2, lsr #1
1a00260c:	eb00 0c5c 	add.w	ip, r0, ip, lsr #1
1a002610:	f8d9 7000 	ldr.w	r7, [r9]
1a002614:	f8d8 6000 	ldr.w	r6, [r8]
1a002618:	6815      	ldr	r5, [r2, #0]
1a00261a:	f8dc 4000 	ldr.w	r4, [ip]
1a00261e:	f8c9 6000 	str.w	r6, [r9]
1a002622:	f8c8 7000 	str.w	r7, [r8]
1a002626:	f8cc 5000 	str.w	r5, [ip]
1a00262a:	6014      	str	r4, [r2, #0]
1a00262c:	3108      	adds	r1, #8
1a00262e:	3b01      	subs	r3, #1
1a002630:	d1df      	bne.n	1a0025f2 <arm_bitreversal_16_0>
1a002632:	e8bd 03f0 	ldmia.w	sp!, {r4, r5, r6, r7, r8, r9}
1a002636:	4770      	bx	lr

1a002638 <arm_radix4_butterfly_q15>:
1a002638:	e92d 4ff0 	stmdb	sp!, {r4, r5, r6, r7, r8, r9, sl, fp, lr}
1a00263c:	b08f      	sub	sp, #60	; 0x3c
1a00263e:	469b      	mov	fp, r3
1a002640:	9101      	str	r1, [sp, #4]
1a002642:	0889      	lsrs	r1, r1, #2
1a002644:	460e      	mov	r6, r1
1a002646:	910d      	str	r1, [sp, #52]	; 0x34
1a002648:	0089      	lsls	r1, r1, #2
1a00264a:	4607      	mov	r7, r0
1a00264c:	900c      	str	r0, [sp, #48]	; 0x30
1a00264e:	eb0b 034b 	add.w	r3, fp, fp, lsl #1
1a002652:	4408      	add	r0, r1
1a002654:	2400      	movs	r4, #0
1a002656:	1845      	adds	r5, r0, r1
1a002658:	009b      	lsls	r3, r3, #2
1a00265a:	4696      	mov	lr, r2
1a00265c:	9209      	str	r2, [sp, #36]	; 0x24
1a00265e:	46b2      	mov	sl, r6
1a002660:	4429      	add	r1, r5
1a002662:	9302      	str	r3, [sp, #8]
1a002664:	4626      	mov	r6, r4
1a002666:	4622      	mov	r2, r4
1a002668:	f8cd b000 	str.w	fp, [sp]
1a00266c:	683b      	ldr	r3, [r7, #0]
1a00266e:	fa93 fc22 	shadd16	ip, r3, r2
1a002672:	fa9c fc22 	shadd16	ip, ip, r2
1a002676:	682b      	ldr	r3, [r5, #0]
1a002678:	fa93 f322 	shadd16	r3, r3, r2
1a00267c:	fa93 f322 	shadd16	r3, r3, r2
1a002680:	fa9c f813 	qadd16	r8, ip, r3
1a002684:	fadc fc13 	qsub16	ip, ip, r3
1a002688:	6803      	ldr	r3, [r0, #0]
1a00268a:	fa93 f322 	shadd16	r3, r3, r2
1a00268e:	fa93 f922 	shadd16	r9, r3, r2
1a002692:	680b      	ldr	r3, [r1, #0]
1a002694:	fa93 f322 	shadd16	r3, r3, r2
1a002698:	fa93 f322 	shadd16	r3, r3, r2
1a00269c:	fa99 f313 	qadd16	r3, r9, r3
1a0026a0:	fa98 f923 	shadd16	r9, r8, r3
1a0026a4:	f847 9b04 	str.w	r9, [r7], #4
1a0026a8:	fad8 f313 	qsub16	r3, r8, r3
1a0026ac:	f85e 9036 	ldr.w	r9, [lr, r6, lsl #3]
1a0026b0:	fb29 fb03 	smuad	fp, r9, r3
1a0026b4:	fb49 f913 	smusdx	r9, r9, r3
1a0026b8:	6803      	ldr	r3, [r0, #0]
1a0026ba:	fa93 f322 	shadd16	r3, r3, r2
1a0026be:	fa93 f822 	shadd16	r8, r3, r2
1a0026c2:	ea4f 4919 	mov.w	r9, r9, lsr #16
1a0026c6:	ea4f 4909 	mov.w	r9, r9, lsl #16
1a0026ca:	ea49 431b 	orr.w	r3, r9, fp, lsr #16
1a0026ce:	f840 3b04 	str.w	r3, [r0], #4
1a0026d2:	680b      	ldr	r3, [r1, #0]
1a0026d4:	fa93 f322 	shadd16	r3, r3, r2
1a0026d8:	fa93 f322 	shadd16	r3, r3, r2
1a0026dc:	fad8 f313 	qsub16	r3, r8, r3
1a0026e0:	faac f913 	qasx	r9, ip, r3
1a0026e4:	faec fc13 	qsax	ip, ip, r3
1a0026e8:	f85e 3026 	ldr.w	r3, [lr, r6, lsl #2]
1a0026ec:	fb23 f80c 	smuad	r8, r3, ip
1a0026f0:	fb43 f31c 	smusdx	r3, r3, ip
1a0026f4:	0c1b      	lsrs	r3, r3, #16
1a0026f6:	041b      	lsls	r3, r3, #16
1a0026f8:	ea43 4318 	orr.w	r3, r3, r8, lsr #16
1a0026fc:	f845 3b04 	str.w	r3, [r5], #4
1a002700:	f85e 3004 	ldr.w	r3, [lr, r4]
1a002704:	fb23 fc09 	smuad	ip, r3, r9
1a002708:	fb43 f319 	smusdx	r3, r3, r9
1a00270c:	0c1b      	lsrs	r3, r3, #16
1a00270e:	041b      	lsls	r3, r3, #16
1a002710:	ea43 431c 	orr.w	r3, r3, ip, lsr #16
1a002714:	f841 3b04 	str.w	r3, [r1], #4
1a002718:	9b00      	ldr	r3, [sp, #0]
1a00271a:	441e      	add	r6, r3
1a00271c:	9b02      	ldr	r3, [sp, #8]
1a00271e:	f1ba 0a01 	subs.w	sl, sl, #1
1a002722:	441c      	add	r4, r3
1a002724:	d1a2      	bne.n	1a00266c <arm_radix4_butterfly_q15+0x34>
1a002726:	f8dd b000 	ldr.w	fp, [sp]
1a00272a:	ea4f 038b 	mov.w	r3, fp, lsl #2
1a00272e:	9306      	str	r3, [sp, #24]
1a002730:	9b0d      	ldr	r3, [sp, #52]	; 0x34
1a002732:	2b04      	cmp	r3, #4
1a002734:	f240 8081 	bls.w	1a00283a <arm_radix4_butterfly_q15+0x202>
1a002738:	f8cd a008 	str.w	sl, [sp, #8]
1a00273c:	930a      	str	r3, [sp, #40]	; 0x28
1a00273e:	469a      	mov	sl, r3
1a002740:	ea4f 039a 	mov.w	r3, sl, lsr #2
1a002744:	2200      	movs	r2, #0
1a002746:	4611      	mov	r1, r2
1a002748:	930b      	str	r3, [sp, #44]	; 0x2c
1a00274a:	9204      	str	r2, [sp, #16]
1a00274c:	1e5a      	subs	r2, r3, #1
1a00274e:	009b      	lsls	r3, r3, #2
1a002750:	9308      	str	r3, [sp, #32]
1a002752:	9b0c      	ldr	r3, [sp, #48]	; 0x30
1a002754:	9207      	str	r2, [sp, #28]
1a002756:	9105      	str	r1, [sp, #20]
1a002758:	ea4f 078a 	mov.w	r7, sl, lsl #2
1a00275c:	9303      	str	r3, [sp, #12]
1a00275e:	9908      	ldr	r1, [sp, #32]
1a002760:	9a03      	ldr	r2, [sp, #12]
1a002762:	9e09      	ldr	r6, [sp, #36]	; 0x24
1a002764:	1850      	adds	r0, r2, r1
1a002766:	9a05      	ldr	r2, [sp, #20]
1a002768:	eb02 0342 	add.w	r3, r2, r2, lsl #1
1a00276c:	f856 c022 	ldr.w	ip, [r6, r2, lsl #2]
1a002770:	f856 9023 	ldr.w	r9, [r6, r3, lsl #2]
1a002774:	9b06      	ldr	r3, [sp, #24]
1a002776:	f856 8032 	ldr.w	r8, [r6, r2, lsl #3]
1a00277a:	18d3      	adds	r3, r2, r3
1a00277c:	9305      	str	r3, [sp, #20]
1a00277e:	9a04      	ldr	r2, [sp, #16]
1a002780:	9b01      	ldr	r3, [sp, #4]
1a002782:	180d      	adds	r5, r1, r0
1a002784:	4293      	cmp	r3, r2
1a002786:	46b6      	mov	lr, r6
1a002788:	eb01 0405 	add.w	r4, r1, r5
1a00278c:	9e03      	ldr	r6, [sp, #12]
1a00278e:	d941      	bls.n	1a002814 <arm_radix4_butterfly_q15+0x1dc>
1a002790:	eb0a 0e02 	add.w	lr, sl, r2
1a002794:	6833      	ldr	r3, [r6, #0]
1a002796:	682a      	ldr	r2, [r5, #0]
1a002798:	fa93 fb12 	qadd16	fp, r3, r2
1a00279c:	fad3 f312 	qsub16	r3, r3, r2
1a0027a0:	9300      	str	r3, [sp, #0]
1a0027a2:	6802      	ldr	r2, [r0, #0]
1a0027a4:	6821      	ldr	r1, [r4, #0]
1a0027a6:	fa92 f211 	qadd16	r2, r2, r1
1a0027aa:	fa9b f322 	shadd16	r3, fp, r2
1a0027ae:	9902      	ldr	r1, [sp, #8]
1a0027b0:	fa93 f121 	shadd16	r1, r3, r1
1a0027b4:	6031      	str	r1, [r6, #0]
1a0027b6:	443e      	add	r6, r7
1a0027b8:	fadb f222 	shsub16	r2, fp, r2
1a0027bc:	fb28 f102 	smuad	r1, r8, r2
1a0027c0:	fb48 f212 	smusdx	r2, r8, r2
1a0027c4:	0c12      	lsrs	r2, r2, #16
1a0027c6:	0412      	lsls	r2, r2, #16
1a0027c8:	ea42 4211 	orr.w	r2, r2, r1, lsr #16
1a0027cc:	6801      	ldr	r1, [r0, #0]
1a0027ce:	6002      	str	r2, [r0, #0]
1a0027d0:	6822      	ldr	r2, [r4, #0]
1a0027d2:	4438      	add	r0, r7
1a0027d4:	fad1 f212 	qsub16	r2, r1, r2
1a0027d8:	9b00      	ldr	r3, [sp, #0]
1a0027da:	faa3 f122 	shasx	r1, r3, r2
1a0027de:	fae3 f322 	shsax	r3, r3, r2
1a0027e2:	fb2c fb03 	smuad	fp, ip, r3
1a0027e6:	fb4c f313 	smusdx	r3, ip, r3
1a0027ea:	0c1b      	lsrs	r3, r3, #16
1a0027ec:	041b      	lsls	r3, r3, #16
1a0027ee:	ea43 431b 	orr.w	r3, r3, fp, lsr #16
1a0027f2:	602b      	str	r3, [r5, #0]
1a0027f4:	443d      	add	r5, r7
1a0027f6:	fb29 f301 	smuad	r3, r9, r1
1a0027fa:	fb49 f111 	smusdx	r1, r9, r1
1a0027fe:	0c09      	lsrs	r1, r1, #16
1a002800:	0409      	lsls	r1, r1, #16
1a002802:	9a01      	ldr	r2, [sp, #4]
1a002804:	ea41 4113 	orr.w	r1, r1, r3, lsr #16
1a002808:	4673      	mov	r3, lr
1a00280a:	429a      	cmp	r2, r3
1a00280c:	6021      	str	r1, [r4, #0]
1a00280e:	44d6      	add	lr, sl
1a002810:	443c      	add	r4, r7
1a002812:	d8bf      	bhi.n	1a002794 <arm_radix4_butterfly_q15+0x15c>
1a002814:	9a03      	ldr	r2, [sp, #12]
1a002816:	9b04      	ldr	r3, [sp, #16]
1a002818:	3204      	adds	r2, #4
1a00281a:	9203      	str	r2, [sp, #12]
1a00281c:	9a07      	ldr	r2, [sp, #28]
1a00281e:	3301      	adds	r3, #1
1a002820:	4293      	cmp	r3, r2
1a002822:	9304      	str	r3, [sp, #16]
1a002824:	d99b      	bls.n	1a00275e <arm_radix4_butterfly_q15+0x126>
1a002826:	9b0a      	ldr	r3, [sp, #40]	; 0x28
1a002828:	9a06      	ldr	r2, [sp, #24]
1a00282a:	f8dd a02c 	ldr.w	sl, [sp, #44]	; 0x2c
1a00282e:	089b      	lsrs	r3, r3, #2
1a002830:	0092      	lsls	r2, r2, #2
1a002832:	2b04      	cmp	r3, #4
1a002834:	930a      	str	r3, [sp, #40]	; 0x28
1a002836:	9206      	str	r2, [sp, #24]
1a002838:	d882      	bhi.n	1a002740 <arm_radix4_butterfly_q15+0x108>
1a00283a:	9c0c      	ldr	r4, [sp, #48]	; 0x30
1a00283c:	9e0d      	ldr	r6, [sp, #52]	; 0x34
1a00283e:	3410      	adds	r4, #16
1a002840:	f854 3c10 	ldr.w	r3, [r4, #-16]
1a002844:	f854 7c08 	ldr.w	r7, [r4, #-8]
1a002848:	fa93 f117 	qadd16	r1, r3, r7
1a00284c:	f854 2c0c 	ldr.w	r2, [r4, #-12]
1a002850:	f854 0c04 	ldr.w	r0, [r4, #-4]
1a002854:	fa92 f510 	qadd16	r5, r2, r0
1a002858:	fa91 f525 	shadd16	r5, r1, r5
1a00285c:	f844 5c10 	str.w	r5, [r4, #-16]
1a002860:	fa92 f510 	qadd16	r5, r2, r0
1a002864:	fad1 f125 	shsub16	r1, r1, r5
1a002868:	f844 1c0c 	str.w	r1, [r4, #-12]
1a00286c:	fad3 f317 	qsub16	r3, r3, r7
1a002870:	fad2 f210 	qsub16	r2, r2, r0
1a002874:	fae3 f122 	shsax	r1, r3, r2
1a002878:	f844 1c08 	str.w	r1, [r4, #-8]
1a00287c:	faa3 f322 	shasx	r3, r3, r2
1a002880:	3e01      	subs	r6, #1
1a002882:	f844 3c04 	str.w	r3, [r4, #-4]
1a002886:	f104 0410 	add.w	r4, r4, #16
1a00288a:	d1d9      	bne.n	1a002840 <arm_radix4_butterfly_q15+0x208>
1a00288c:	b00f      	add	sp, #60	; 0x3c
1a00288e:	e8bd 8ff0 	ldmia.w	sp!, {r4, r5, r6, r7, r8, r9, sl, fp, pc}
1a002892:	bf00      	nop

1a002894 <arm_radix4_butterfly_inverse_q15>:
1a002894:	e92d 4ff0 	stmdb	sp!, {r4, r5, r6, r7, r8, r9, sl, fp, lr}
1a002898:	b08f      	sub	sp, #60	; 0x3c
1a00289a:	469b      	mov	fp, r3
1a00289c:	9101      	str	r1, [sp, #4]
1a00289e:	0889      	lsrs	r1, r1, #2
1a0028a0:	460e      	mov	r6, r1
1a0028a2:	910d      	str	r1, [sp, #52]	; 0x34
1a0028a4:	0089      	lsls	r1, r1, #2
1a0028a6:	4607      	mov	r7, r0
1a0028a8:	900c      	str	r0, [sp, #48]	; 0x30
1a0028aa:	eb0b 034b 	add.w	r3, fp, fp, lsl #1
1a0028ae:	4408      	add	r0, r1
1a0028b0:	2400      	movs	r4, #0
1a0028b2:	1845      	adds	r5, r0, r1
1a0028b4:	009b      	lsls	r3, r3, #2
1a0028b6:	4696      	mov	lr, r2
1a0028b8:	9209      	str	r2, [sp, #36]	; 0x24
1a0028ba:	46b2      	mov	sl, r6
1a0028bc:	4429      	add	r1, r5
1a0028be:	9302      	str	r3, [sp, #8]
1a0028c0:	4626      	mov	r6, r4
1a0028c2:	4622      	mov	r2, r4
1a0028c4:	f8cd b000 	str.w	fp, [sp]
1a0028c8:	683b      	ldr	r3, [r7, #0]
1a0028ca:	fa93 fc22 	shadd16	ip, r3, r2
1a0028ce:	fa9c fc22 	shadd16	ip, ip, r2
1a0028d2:	682b      	ldr	r3, [r5, #0]
1a0028d4:	fa93 f322 	shadd16	r3, r3, r2
1a0028d8:	fa93 f322 	shadd16	r3, r3, r2
1a0028dc:	fa9c f813 	qadd16	r8, ip, r3
1a0028e0:	fadc fc13 	qsub16	ip, ip, r3
1a0028e4:	6803      	ldr	r3, [r0, #0]
1a0028e6:	fa93 f322 	shadd16	r3, r3, r2
1a0028ea:	fa93 f922 	shadd16	r9, r3, r2
1a0028ee:	680b      	ldr	r3, [r1, #0]
1a0028f0:	fa93 f322 	shadd16	r3, r3, r2
1a0028f4:	fa93 f322 	shadd16	r3, r3, r2
1a0028f8:	fa99 f313 	qadd16	r3, r9, r3
1a0028fc:	fa98 f923 	shadd16	r9, r8, r3
1a002900:	f847 9b04 	str.w	r9, [r7], #4
1a002904:	fad8 f313 	qsub16	r3, r8, r3
1a002908:	f85e 9036 	ldr.w	r9, [lr, r6, lsl #3]
1a00290c:	fb49 fb03 	smusd	fp, r9, r3
1a002910:	fb29 f913 	smuadx	r9, r9, r3
1a002914:	6803      	ldr	r3, [r0, #0]
1a002916:	fa93 f322 	shadd16	r3, r3, r2
1a00291a:	fa93 f822 	shadd16	r8, r3, r2
1a00291e:	ea4f 4919 	mov.w	r9, r9, lsr #16
1a002922:	ea4f 4909 	mov.w	r9, r9, lsl #16
1a002926:	ea49 431b 	orr.w	r3, r9, fp, lsr #16
1a00292a:	f840 3b04 	str.w	r3, [r0], #4
1a00292e:	680b      	ldr	r3, [r1, #0]
1a002930:	fa93 f322 	shadd16	r3, r3, r2
1a002934:	fa93 f322 	shadd16	r3, r3, r2
1a002938:	fad8 f313 	qsub16	r3, r8, r3
1a00293c:	faec f913 	qsax	r9, ip, r3
1a002940:	faac fc13 	qasx	ip, ip, r3
1a002944:	f85e 3026 	ldr.w	r3, [lr, r6, lsl #2]
1a002948:	fb43 f80c 	smusd	r8, r3, ip
1a00294c:	fb23 f31c 	smuadx	r3, r3, ip
1a002950:	0c1b      	lsrs	r3, r3, #16
1a002952:	041b      	lsls	r3, r3, #16
1a002954:	ea43 4318 	orr.w	r3, r3, r8, lsr #16
1a002958:	f845 3b04 	str.w	r3, [r5], #4
1a00295c:	f85e 3004 	ldr.w	r3, [lr, r4]
1a002960:	fb43 fc09 	smusd	ip, r3, r9
1a002964:	fb23 f319 	smuadx	r3, r3, r9
1a002968:	0c1b      	lsrs	r3, r3, #16
1a00296a:	041b      	lsls	r3, r3, #16
1a00296c:	ea43 431c 	orr.w	r3, r3, ip, lsr #16
1a002970:	f841 3b04 	str.w	r3, [r1], #4
1a002974:	9b00      	ldr	r3, [sp, #0]
1a002976:	441e      	add	r6, r3
1a002978:	9b02      	ldr	r3, [sp, #8]
1a00297a:	f1ba 0a01 	subs.w	sl, sl, #1
1a00297e:	441c      	add	r4, r3
1a002980:	d1a2      	bne.n	1a0028c8 <arm_radix4_butterfly_inverse_q15+0x34>
1a002982:	f8dd b000 	ldr.w	fp, [sp]
1a002986:	ea4f 038b 	mov.w	r3, fp, lsl #2
1a00298a:	9306      	str	r3, [sp, #24]
1a00298c:	9b0d      	ldr	r3, [sp, #52]	; 0x34
1a00298e:	2b04      	cmp	r3, #4
1a002990:	f240 8081 	bls.w	1a002a96 <arm_radix4_butterfly_inverse_q15+0x202>
1a002994:	f8cd a008 	str.w	sl, [sp, #8]
1a002998:	930a      	str	r3, [sp, #40]	; 0x28
1a00299a:	469a      	mov	sl, r3
1a00299c:	ea4f 039a 	mov.w	r3, sl, lsr #2
1a0029a0:	2200      	movs	r2, #0
1a0029a2:	4611      	mov	r1, r2
1a0029a4:	930b      	str	r3, [sp, #44]	; 0x2c
1a0029a6:	9204      	str	r2, [sp, #16]
1a0029a8:	1e5a      	subs	r2, r3, #1
1a0029aa:	009b      	lsls	r3, r3, #2
1a0029ac:	9308      	str	r3, [sp, #32]
1a0029ae:	9b0c      	ldr	r3, [sp, #48]	; 0x30
1a0029b0:	9207      	str	r2, [sp, #28]
1a0029b2:	9105      	str	r1, [sp, #20]
1a0029b4:	ea4f 078a 	mov.w	r7, sl, lsl #2
1a0029b8:	9303      	str	r3, [sp, #12]
1a0029ba:	9908      	ldr	r1, [sp, #32]
1a0029bc:	9a03      	ldr	r2, [sp, #12]
1a0029be:	9e09      	ldr	r6, [sp, #36]	; 0x24
1a0029c0:	1850      	adds	r0, r2, r1
1a0029c2:	9a05      	ldr	r2, [sp, #20]
1a0029c4:	eb02 0342 	add.w	r3, r2, r2, lsl #1
1a0029c8:	f856 c022 	ldr.w	ip, [r6, r2, lsl #2]
1a0029cc:	f856 9023 	ldr.w	r9, [r6, r3, lsl #2]
1a0029d0:	9b06      	ldr	r3, [sp, #24]
1a0029d2:	f856 8032 	ldr.w	r8, [r6, r2, lsl #3]
1a0029d6:	18d3      	adds	r3, r2, r3
1a0029d8:	9305      	str	r3, [sp, #20]
1a0029da:	9a04      	ldr	r2, [sp, #16]
1a0029dc:	9b01      	ldr	r3, [sp, #4]
1a0029de:	180d      	adds	r5, r1, r0
1a0029e0:	4293      	cmp	r3, r2
1a0029e2:	46b6      	mov	lr, r6
1a0029e4:	eb01 0405 	add.w	r4, r1, r5
1a0029e8:	9e03      	ldr	r6, [sp, #12]
1a0029ea:	d941      	bls.n	1a002a70 <arm_radix4_butterfly_inverse_q15+0x1dc>
1a0029ec:	eb0a 0e02 	add.w	lr, sl, r2
1a0029f0:	6833      	ldr	r3, [r6, #0]
1a0029f2:	682a      	ldr	r2, [r5, #0]
1a0029f4:	fa93 fb12 	qadd16	fp, r3, r2
1a0029f8:	fad3 f312 	qsub16	r3, r3, r2
1a0029fc:	9300      	str	r3, [sp, #0]
1a0029fe:	6802      	ldr	r2, [r0, #0]
1a002a00:	6821      	ldr	r1, [r4, #0]
1a002a02:	fa92 f211 	qadd16	r2, r2, r1
1a002a06:	fa9b f322 	shadd16	r3, fp, r2
1a002a0a:	9902      	ldr	r1, [sp, #8]
1a002a0c:	fa93 f121 	shadd16	r1, r3, r1
1a002a10:	6031      	str	r1, [r6, #0]
1a002a12:	443e      	add	r6, r7
1a002a14:	fadb f222 	shsub16	r2, fp, r2
1a002a18:	fb48 f102 	smusd	r1, r8, r2
1a002a1c:	fb28 f212 	smuadx	r2, r8, r2
1a002a20:	0c12      	lsrs	r2, r2, #16
1a002a22:	0412      	lsls	r2, r2, #16
1a002a24:	ea42 4211 	orr.w	r2, r2, r1, lsr #16
1a002a28:	6801      	ldr	r1, [r0, #0]
1a002a2a:	6002      	str	r2, [r0, #0]
1a002a2c:	6822      	ldr	r2, [r4, #0]
1a002a2e:	4438      	add	r0, r7
1a002a30:	fad1 f212 	qsub16	r2, r1, r2
1a002a34:	9b00      	ldr	r3, [sp, #0]
1a002a36:	fae3 f122 	shsax	r1, r3, r2
1a002a3a:	faa3 f322 	shasx	r3, r3, r2
1a002a3e:	fb4c fb03 	smusd	fp, ip, r3
1a002a42:	fb2c f313 	smuadx	r3, ip, r3
1a002a46:	0c1b      	lsrs	r3, r3, #16
1a002a48:	041b      	lsls	r3, r3, #16
1a002a4a:	ea43 431b 	orr.w	r3, r3, fp, lsr #16
1a002a4e:	602b      	str	r3, [r5, #0]
1a002a50:	443d      	add	r5, r7
1a002a52:	fb49 f301 	smusd	r3, r9, r1
1a002a56:	fb29 f111 	smuadx	r1, r9, r1
1a002a5a:	0c09      	lsrs	r1, r1, #16
1a002a5c:	0409      	lsls	r1, r1, #16
1a002a5e:	9a01      	ldr	r2, [sp, #4]
1a002a60:	ea41 4113 	orr.w	r1, r1, r3, lsr #16
1a002a64:	4673      	mov	r3, lr
1a002a66:	429a      	cmp	r2, r3
1a002a68:	6021      	str	r1, [r4, #0]
1a002a6a:	44d6      	add	lr, sl
1a002a6c:	443c      	add	r4, r7
1a002a6e:	d8bf      	bhi.n	1a0029f0 <arm_radix4_butterfly_inverse_q15+0x15c>
1a002a70:	9a03      	ldr	r2, [sp, #12]
1a002a72:	9b04      	ldr	r3, [sp, #16]
1a002a74:	3204      	adds	r2, #4
1a002a76:	9203      	str	r2, [sp, #12]
1a002a78:	9a07      	ldr	r2, [sp, #28]
1a002a7a:	3301      	adds	r3, #1
1a002a7c:	4293      	cmp	r3, r2
1a002a7e:	9304      	str	r3, [sp, #16]
1a002a80:	d99b      	bls.n	1a0029ba <arm_radix4_butterfly_inverse_q15+0x126>
1a002a82:	9b0a      	ldr	r3, [sp, #40]	; 0x28
1a002a84:	9a06      	ldr	r2, [sp, #24]
1a002a86:	f8dd a02c 	ldr.w	sl, [sp, #44]	; 0x2c
1a002a8a:	089b      	lsrs	r3, r3, #2
1a002a8c:	0092      	lsls	r2, r2, #2
1a002a8e:	2b04      	cmp	r3, #4
1a002a90:	930a      	str	r3, [sp, #40]	; 0x28
1a002a92:	9206      	str	r2, [sp, #24]
1a002a94:	d882      	bhi.n	1a00299c <arm_radix4_butterfly_inverse_q15+0x108>
1a002a96:	9c0c      	ldr	r4, [sp, #48]	; 0x30
1a002a98:	9e0d      	ldr	r6, [sp, #52]	; 0x34
1a002a9a:	3410      	adds	r4, #16
1a002a9c:	f854 3c10 	ldr.w	r3, [r4, #-16]
1a002aa0:	f854 7c08 	ldr.w	r7, [r4, #-8]
1a002aa4:	fa93 f117 	qadd16	r1, r3, r7
1a002aa8:	f854 2c0c 	ldr.w	r2, [r4, #-12]
1a002aac:	f854 0c04 	ldr.w	r0, [r4, #-4]
1a002ab0:	fa92 f510 	qadd16	r5, r2, r0
1a002ab4:	fa91 f525 	shadd16	r5, r1, r5
1a002ab8:	f844 5c10 	str.w	r5, [r4, #-16]
1a002abc:	fa92 f510 	qadd16	r5, r2, r0
1a002ac0:	fad1 f125 	shsub16	r1, r1, r5
1a002ac4:	f844 1c0c 	str.w	r1, [r4, #-12]
1a002ac8:	fad3 f317 	qsub16	r3, r3, r7
1a002acc:	fad2 f210 	qsub16	r2, r2, r0
1a002ad0:	faa3 f122 	shasx	r1, r3, r2
1a002ad4:	f844 1c08 	str.w	r1, [r4, #-8]
1a002ad8:	fae3 f322 	shsax	r3, r3, r2
1a002adc:	3e01      	subs	r6, #1
1a002ade:	f844 3c04 	str.w	r3, [r4, #-4]
1a002ae2:	f104 0410 	add.w	r4, r4, #16
1a002ae6:	d1d9      	bne.n	1a002a9c <arm_radix4_butterfly_inverse_q15+0x208>
1a002ae8:	b00f      	add	sp, #60	; 0x3c
1a002aea:	e8bd 8ff0 	ldmia.w	sp!, {r4, r5, r6, r7, r8, r9, sl, fp, pc}
1a002aee:	bf00      	nop

1a002af0 <__aeabi_uldivmod>:
1a002af0:	b953      	cbnz	r3, 1a002b08 <__aeabi_uldivmod+0x18>
1a002af2:	b94a      	cbnz	r2, 1a002b08 <__aeabi_uldivmod+0x18>
1a002af4:	2900      	cmp	r1, #0
1a002af6:	bf08      	it	eq
1a002af8:	2800      	cmpeq	r0, #0
1a002afa:	bf1c      	itt	ne
1a002afc:	f04f 31ff 	movne.w	r1, #4294967295	; 0xffffffff
1a002b00:	f04f 30ff 	movne.w	r0, #4294967295	; 0xffffffff
1a002b04:	f000 b972 	b.w	1a002dec <__aeabi_idiv0>
1a002b08:	f1ad 0c08 	sub.w	ip, sp, #8
1a002b0c:	e96d ce04 	strd	ip, lr, [sp, #-16]!
1a002b10:	f000 f806 	bl	1a002b20 <__udivmoddi4>
1a002b14:	f8dd e004 	ldr.w	lr, [sp, #4]
1a002b18:	e9dd 2302 	ldrd	r2, r3, [sp, #8]
1a002b1c:	b004      	add	sp, #16
1a002b1e:	4770      	bx	lr

1a002b20 <__udivmoddi4>:
1a002b20:	e92d 47f0 	stmdb	sp!, {r4, r5, r6, r7, r8, r9, sl, lr}
1a002b24:	9e08      	ldr	r6, [sp, #32]
1a002b26:	4604      	mov	r4, r0
1a002b28:	4688      	mov	r8, r1
1a002b2a:	2b00      	cmp	r3, #0
1a002b2c:	d14b      	bne.n	1a002bc6 <__udivmoddi4+0xa6>
1a002b2e:	428a      	cmp	r2, r1
1a002b30:	4615      	mov	r5, r2
1a002b32:	d967      	bls.n	1a002c04 <__udivmoddi4+0xe4>
1a002b34:	fab2 f282 	clz	r2, r2
1a002b38:	b14a      	cbz	r2, 1a002b4e <__udivmoddi4+0x2e>
1a002b3a:	f1c2 0720 	rsb	r7, r2, #32
1a002b3e:	fa01 f302 	lsl.w	r3, r1, r2
1a002b42:	fa20 f707 	lsr.w	r7, r0, r7
1a002b46:	4095      	lsls	r5, r2
1a002b48:	ea47 0803 	orr.w	r8, r7, r3
1a002b4c:	4094      	lsls	r4, r2
1a002b4e:	ea4f 4e15 	mov.w	lr, r5, lsr #16
1a002b52:	0c23      	lsrs	r3, r4, #16
1a002b54:	fbb8 f7fe 	udiv	r7, r8, lr
1a002b58:	fa1f fc85 	uxth.w	ip, r5
1a002b5c:	fb0e 8817 	mls	r8, lr, r7, r8
1a002b60:	ea43 4308 	orr.w	r3, r3, r8, lsl #16
1a002b64:	fb07 f10c 	mul.w	r1, r7, ip
1a002b68:	4299      	cmp	r1, r3
1a002b6a:	d909      	bls.n	1a002b80 <__udivmoddi4+0x60>
1a002b6c:	18eb      	adds	r3, r5, r3
1a002b6e:	f107 30ff 	add.w	r0, r7, #4294967295	; 0xffffffff
1a002b72:	f080 811b 	bcs.w	1a002dac <__udivmoddi4+0x28c>
1a002b76:	4299      	cmp	r1, r3
1a002b78:	f240 8118 	bls.w	1a002dac <__udivmoddi4+0x28c>
1a002b7c:	3f02      	subs	r7, #2
1a002b7e:	442b      	add	r3, r5
1a002b80:	1a5b      	subs	r3, r3, r1
1a002b82:	b2a4      	uxth	r4, r4
1a002b84:	fbb3 f0fe 	udiv	r0, r3, lr
1a002b88:	fb0e 3310 	mls	r3, lr, r0, r3
1a002b8c:	ea44 4403 	orr.w	r4, r4, r3, lsl #16
1a002b90:	fb00 fc0c 	mul.w	ip, r0, ip
1a002b94:	45a4      	cmp	ip, r4
1a002b96:	d909      	bls.n	1a002bac <__udivmoddi4+0x8c>
1a002b98:	192c      	adds	r4, r5, r4
1a002b9a:	f100 33ff 	add.w	r3, r0, #4294967295	; 0xffffffff
1a002b9e:	f080 8107 	bcs.w	1a002db0 <__udivmoddi4+0x290>
1a002ba2:	45a4      	cmp	ip, r4
1a002ba4:	f240 8104 	bls.w	1a002db0 <__udivmoddi4+0x290>
1a002ba8:	3802      	subs	r0, #2
1a002baa:	442c      	add	r4, r5
1a002bac:	ea40 4007 	orr.w	r0, r0, r7, lsl #16
1a002bb0:	eba4 040c 	sub.w	r4, r4, ip
1a002bb4:	2700      	movs	r7, #0
1a002bb6:	b11e      	cbz	r6, 1a002bc0 <__udivmoddi4+0xa0>
1a002bb8:	40d4      	lsrs	r4, r2
1a002bba:	2300      	movs	r3, #0
1a002bbc:	e9c6 4300 	strd	r4, r3, [r6]
1a002bc0:	4639      	mov	r1, r7
1a002bc2:	e8bd 87f0 	ldmia.w	sp!, {r4, r5, r6, r7, r8, r9, sl, pc}
1a002bc6:	428b      	cmp	r3, r1
1a002bc8:	d909      	bls.n	1a002bde <__udivmoddi4+0xbe>
1a002bca:	2e00      	cmp	r6, #0
1a002bcc:	f000 80eb 	beq.w	1a002da6 <__udivmoddi4+0x286>
1a002bd0:	2700      	movs	r7, #0
1a002bd2:	e9c6 0100 	strd	r0, r1, [r6]
1a002bd6:	4638      	mov	r0, r7
1a002bd8:	4639      	mov	r1, r7
1a002bda:	e8bd 87f0 	ldmia.w	sp!, {r4, r5, r6, r7, r8, r9, sl, pc}
1a002bde:	fab3 f783 	clz	r7, r3
1a002be2:	2f00      	cmp	r7, #0
1a002be4:	d147      	bne.n	1a002c76 <__udivmoddi4+0x156>
1a002be6:	428b      	cmp	r3, r1
1a002be8:	d302      	bcc.n	1a002bf0 <__udivmoddi4+0xd0>
1a002bea:	4282      	cmp	r2, r0
1a002bec:	f200 80fa 	bhi.w	1a002de4 <__udivmoddi4+0x2c4>
1a002bf0:	1a84      	subs	r4, r0, r2
1a002bf2:	eb61 0303 	sbc.w	r3, r1, r3
1a002bf6:	2001      	movs	r0, #1
1a002bf8:	4698      	mov	r8, r3
1a002bfa:	2e00      	cmp	r6, #0
1a002bfc:	d0e0      	beq.n	1a002bc0 <__udivmoddi4+0xa0>
1a002bfe:	e9c6 4800 	strd	r4, r8, [r6]
1a002c02:	e7dd      	b.n	1a002bc0 <__udivmoddi4+0xa0>
1a002c04:	b902      	cbnz	r2, 1a002c08 <__udivmoddi4+0xe8>
1a002c06:	deff      	udf	#255	; 0xff
1a002c08:	fab2 f282 	clz	r2, r2
1a002c0c:	2a00      	cmp	r2, #0
1a002c0e:	f040 808f 	bne.w	1a002d30 <__udivmoddi4+0x210>
1a002c12:	1b49      	subs	r1, r1, r5
1a002c14:	ea4f 4e15 	mov.w	lr, r5, lsr #16
1a002c18:	fa1f f885 	uxth.w	r8, r5
1a002c1c:	2701      	movs	r7, #1
1a002c1e:	fbb1 fcfe 	udiv	ip, r1, lr
1a002c22:	0c23      	lsrs	r3, r4, #16
1a002c24:	fb0e 111c 	mls	r1, lr, ip, r1
1a002c28:	ea43 4301 	orr.w	r3, r3, r1, lsl #16
1a002c2c:	fb08 f10c 	mul.w	r1, r8, ip
1a002c30:	4299      	cmp	r1, r3
1a002c32:	d907      	bls.n	1a002c44 <__udivmoddi4+0x124>
1a002c34:	18eb      	adds	r3, r5, r3
1a002c36:	f10c 30ff 	add.w	r0, ip, #4294967295	; 0xffffffff
1a002c3a:	d202      	bcs.n	1a002c42 <__udivmoddi4+0x122>
1a002c3c:	4299      	cmp	r1, r3
1a002c3e:	f200 80cd 	bhi.w	1a002ddc <__udivmoddi4+0x2bc>
1a002c42:	4684      	mov	ip, r0
1a002c44:	1a59      	subs	r1, r3, r1
1a002c46:	b2a3      	uxth	r3, r4
1a002c48:	fbb1 f0fe 	udiv	r0, r1, lr
1a002c4c:	fb0e 1410 	mls	r4, lr, r0, r1
1a002c50:	ea43 4404 	orr.w	r4, r3, r4, lsl #16
1a002c54:	fb08 f800 	mul.w	r8, r8, r0
1a002c58:	45a0      	cmp	r8, r4
1a002c5a:	d907      	bls.n	1a002c6c <__udivmoddi4+0x14c>
1a002c5c:	192c      	adds	r4, r5, r4
1a002c5e:	f100 33ff 	add.w	r3, r0, #4294967295	; 0xffffffff
1a002c62:	d202      	bcs.n	1a002c6a <__udivmoddi4+0x14a>
1a002c64:	45a0      	cmp	r8, r4
1a002c66:	f200 80b6 	bhi.w	1a002dd6 <__udivmoddi4+0x2b6>
1a002c6a:	4618      	mov	r0, r3
1a002c6c:	eba4 0408 	sub.w	r4, r4, r8
1a002c70:	ea40 400c 	orr.w	r0, r0, ip, lsl #16
1a002c74:	e79f      	b.n	1a002bb6 <__udivmoddi4+0x96>
1a002c76:	f1c7 0c20 	rsb	ip, r7, #32
1a002c7a:	40bb      	lsls	r3, r7
1a002c7c:	fa22 fe0c 	lsr.w	lr, r2, ip
1a002c80:	ea4e 0e03 	orr.w	lr, lr, r3
1a002c84:	fa01 f407 	lsl.w	r4, r1, r7
1a002c88:	fa20 f50c 	lsr.w	r5, r0, ip
1a002c8c:	fa21 f30c 	lsr.w	r3, r1, ip
1a002c90:	ea4f 481e 	mov.w	r8, lr, lsr #16
1a002c94:	4325      	orrs	r5, r4
1a002c96:	fbb3 f9f8 	udiv	r9, r3, r8
1a002c9a:	0c2c      	lsrs	r4, r5, #16
1a002c9c:	fb08 3319 	mls	r3, r8, r9, r3
1a002ca0:	fa1f fa8e 	uxth.w	sl, lr
1a002ca4:	ea44 4303 	orr.w	r3, r4, r3, lsl #16
1a002ca8:	fb09 f40a 	mul.w	r4, r9, sl
1a002cac:	429c      	cmp	r4, r3
1a002cae:	fa02 f207 	lsl.w	r2, r2, r7
1a002cb2:	fa00 f107 	lsl.w	r1, r0, r7
1a002cb6:	d90b      	bls.n	1a002cd0 <__udivmoddi4+0x1b0>
1a002cb8:	eb1e 0303 	adds.w	r3, lr, r3
1a002cbc:	f109 30ff 	add.w	r0, r9, #4294967295	; 0xffffffff
1a002cc0:	f080 8087 	bcs.w	1a002dd2 <__udivmoddi4+0x2b2>
1a002cc4:	429c      	cmp	r4, r3
1a002cc6:	f240 8084 	bls.w	1a002dd2 <__udivmoddi4+0x2b2>
1a002cca:	f1a9 0902 	sub.w	r9, r9, #2
1a002cce:	4473      	add	r3, lr
1a002cd0:	1b1b      	subs	r3, r3, r4
1a002cd2:	b2ad      	uxth	r5, r5
1a002cd4:	fbb3 f0f8 	udiv	r0, r3, r8
1a002cd8:	fb08 3310 	mls	r3, r8, r0, r3
1a002cdc:	ea45 4403 	orr.w	r4, r5, r3, lsl #16
1a002ce0:	fb00 fa0a 	mul.w	sl, r0, sl
1a002ce4:	45a2      	cmp	sl, r4
1a002ce6:	d908      	bls.n	1a002cfa <__udivmoddi4+0x1da>
1a002ce8:	eb1e 0404 	adds.w	r4, lr, r4
1a002cec:	f100 33ff 	add.w	r3, r0, #4294967295	; 0xffffffff
1a002cf0:	d26b      	bcs.n	1a002dca <__udivmoddi4+0x2aa>
1a002cf2:	45a2      	cmp	sl, r4
1a002cf4:	d969      	bls.n	1a002dca <__udivmoddi4+0x2aa>
1a002cf6:	3802      	subs	r0, #2
1a002cf8:	4474      	add	r4, lr
1a002cfa:	ea40 4009 	orr.w	r0, r0, r9, lsl #16
1a002cfe:	fba0 8902 	umull	r8, r9, r0, r2
1a002d02:	eba4 040a 	sub.w	r4, r4, sl
1a002d06:	454c      	cmp	r4, r9
1a002d08:	46c2      	mov	sl, r8
1a002d0a:	464b      	mov	r3, r9
1a002d0c:	d354      	bcc.n	1a002db8 <__udivmoddi4+0x298>
1a002d0e:	d051      	beq.n	1a002db4 <__udivmoddi4+0x294>
1a002d10:	2e00      	cmp	r6, #0
1a002d12:	d069      	beq.n	1a002de8 <__udivmoddi4+0x2c8>
1a002d14:	ebb1 050a 	subs.w	r5, r1, sl
1a002d18:	eb64 0403 	sbc.w	r4, r4, r3
1a002d1c:	fa04 fc0c 	lsl.w	ip, r4, ip
1a002d20:	40fd      	lsrs	r5, r7
1a002d22:	40fc      	lsrs	r4, r7
1a002d24:	ea4c 0505 	orr.w	r5, ip, r5
1a002d28:	e9c6 5400 	strd	r5, r4, [r6]
1a002d2c:	2700      	movs	r7, #0
1a002d2e:	e747      	b.n	1a002bc0 <__udivmoddi4+0xa0>
1a002d30:	f1c2 0320 	rsb	r3, r2, #32
1a002d34:	fa20 f703 	lsr.w	r7, r0, r3
1a002d38:	4095      	lsls	r5, r2
1a002d3a:	fa01 f002 	lsl.w	r0, r1, r2
1a002d3e:	fa21 f303 	lsr.w	r3, r1, r3
1a002d42:	ea4f 4e15 	mov.w	lr, r5, lsr #16
1a002d46:	4338      	orrs	r0, r7
1a002d48:	0c01      	lsrs	r1, r0, #16
1a002d4a:	fbb3 f7fe 	udiv	r7, r3, lr
1a002d4e:	fa1f f885 	uxth.w	r8, r5
1a002d52:	fb0e 3317 	mls	r3, lr, r7, r3
1a002d56:	ea41 4103 	orr.w	r1, r1, r3, lsl #16
1a002d5a:	fb07 f308 	mul.w	r3, r7, r8
1a002d5e:	428b      	cmp	r3, r1
1a002d60:	fa04 f402 	lsl.w	r4, r4, r2
1a002d64:	d907      	bls.n	1a002d76 <__udivmoddi4+0x256>
1a002d66:	1869      	adds	r1, r5, r1
1a002d68:	f107 3cff 	add.w	ip, r7, #4294967295	; 0xffffffff
1a002d6c:	d22f      	bcs.n	1a002dce <__udivmoddi4+0x2ae>
1a002d6e:	428b      	cmp	r3, r1
1a002d70:	d92d      	bls.n	1a002dce <__udivmoddi4+0x2ae>
1a002d72:	3f02      	subs	r7, #2
1a002d74:	4429      	add	r1, r5
1a002d76:	1acb      	subs	r3, r1, r3
1a002d78:	b281      	uxth	r1, r0
1a002d7a:	fbb3 f0fe 	udiv	r0, r3, lr
1a002d7e:	fb0e 3310 	mls	r3, lr, r0, r3
1a002d82:	ea41 4103 	orr.w	r1, r1, r3, lsl #16
1a002d86:	fb00 f308 	mul.w	r3, r0, r8
1a002d8a:	428b      	cmp	r3, r1
1a002d8c:	d907      	bls.n	1a002d9e <__udivmoddi4+0x27e>
1a002d8e:	1869      	adds	r1, r5, r1
1a002d90:	f100 3cff 	add.w	ip, r0, #4294967295	; 0xffffffff
1a002d94:	d217      	bcs.n	1a002dc6 <__udivmoddi4+0x2a6>
1a002d96:	428b      	cmp	r3, r1
1a002d98:	d915      	bls.n	1a002dc6 <__udivmoddi4+0x2a6>
1a002d9a:	3802      	subs	r0, #2
1a002d9c:	4429      	add	r1, r5
1a002d9e:	1ac9      	subs	r1, r1, r3
1a002da0:	ea40 4707 	orr.w	r7, r0, r7, lsl #16
1a002da4:	e73b      	b.n	1a002c1e <__udivmoddi4+0xfe>
1a002da6:	4637      	mov	r7, r6
1a002da8:	4630      	mov	r0, r6
1a002daa:	e709      	b.n	1a002bc0 <__udivmoddi4+0xa0>
1a002dac:	4607      	mov	r7, r0
1a002dae:	e6e7      	b.n	1a002b80 <__udivmoddi4+0x60>
1a002db0:	4618      	mov	r0, r3
1a002db2:	e6fb      	b.n	1a002bac <__udivmoddi4+0x8c>
1a002db4:	4541      	cmp	r1, r8
1a002db6:	d2ab      	bcs.n	1a002d10 <__udivmoddi4+0x1f0>
1a002db8:	ebb8 0a02 	subs.w	sl, r8, r2
1a002dbc:	eb69 020e 	sbc.w	r2, r9, lr
1a002dc0:	3801      	subs	r0, #1
1a002dc2:	4613      	mov	r3, r2
1a002dc4:	e7a4      	b.n	1a002d10 <__udivmoddi4+0x1f0>
1a002dc6:	4660      	mov	r0, ip
1a002dc8:	e7e9      	b.n	1a002d9e <__udivmoddi4+0x27e>
1a002dca:	4618      	mov	r0, r3
1a002dcc:	e795      	b.n	1a002cfa <__udivmoddi4+0x1da>
1a002dce:	4667      	mov	r7, ip
1a002dd0:	e7d1      	b.n	1a002d76 <__udivmoddi4+0x256>
1a002dd2:	4681      	mov	r9, r0
1a002dd4:	e77c      	b.n	1a002cd0 <__udivmoddi4+0x1b0>
1a002dd6:	3802      	subs	r0, #2
1a002dd8:	442c      	add	r4, r5
1a002dda:	e747      	b.n	1a002c6c <__udivmoddi4+0x14c>
1a002ddc:	f1ac 0c02 	sub.w	ip, ip, #2
1a002de0:	442b      	add	r3, r5
1a002de2:	e72f      	b.n	1a002c44 <__udivmoddi4+0x124>
1a002de4:	4638      	mov	r0, r7
1a002de6:	e708      	b.n	1a002bfa <__udivmoddi4+0xda>
1a002de8:	4637      	mov	r7, r6
1a002dea:	e6e9      	b.n	1a002bc0 <__udivmoddi4+0xa0>

1a002dec <__aeabi_idiv0>:
1a002dec:	4770      	bx	lr
1a002dee:	bf00      	nop

1a002df0 <__libc_init_array>:
1a002df0:	b570      	push	{r4, r5, r6, lr}
1a002df2:	4e0d      	ldr	r6, [pc, #52]	; (1a002e28 <__libc_init_array+0x38>)
1a002df4:	4d0d      	ldr	r5, [pc, #52]	; (1a002e2c <__libc_init_array+0x3c>)
1a002df6:	1b76      	subs	r6, r6, r5
1a002df8:	10b6      	asrs	r6, r6, #2
1a002dfa:	d006      	beq.n	1a002e0a <__libc_init_array+0x1a>
1a002dfc:	2400      	movs	r4, #0
1a002dfe:	3401      	adds	r4, #1
1a002e00:	f855 3b04 	ldr.w	r3, [r5], #4
1a002e04:	4798      	blx	r3
1a002e06:	42a6      	cmp	r6, r4
1a002e08:	d1f9      	bne.n	1a002dfe <__libc_init_array+0xe>
1a002e0a:	4e09      	ldr	r6, [pc, #36]	; (1a002e30 <__libc_init_array+0x40>)
1a002e0c:	4d09      	ldr	r5, [pc, #36]	; (1a002e34 <__libc_init_array+0x44>)
1a002e0e:	1b76      	subs	r6, r6, r5
1a002e10:	f7fd fb8f 	bl	1a000532 <_init>
1a002e14:	10b6      	asrs	r6, r6, #2
1a002e16:	d006      	beq.n	1a002e26 <__libc_init_array+0x36>
1a002e18:	2400      	movs	r4, #0
1a002e1a:	3401      	adds	r4, #1
1a002e1c:	f855 3b04 	ldr.w	r3, [r5], #4
1a002e20:	4798      	blx	r3
1a002e22:	42a6      	cmp	r6, r4
1a002e24:	d1f9      	bne.n	1a002e1a <__libc_init_array+0x2a>
1a002e26:	bd70      	pop	{r4, r5, r6, pc}
1a002e28:	1a014fdc 	.word	0x1a014fdc
1a002e2c:	1a014fdc 	.word	0x1a014fdc
1a002e30:	1a014fe0 	.word	0x1a014fe0
1a002e34:	1a014fdc 	.word	0x1a014fdc

1a002e38 <memset>:
1a002e38:	b4f0      	push	{r4, r5, r6, r7}
1a002e3a:	0786      	lsls	r6, r0, #30
1a002e3c:	d043      	beq.n	1a002ec6 <memset+0x8e>
1a002e3e:	1e54      	subs	r4, r2, #1
1a002e40:	2a00      	cmp	r2, #0
1a002e42:	d03e      	beq.n	1a002ec2 <memset+0x8a>
1a002e44:	b2ca      	uxtb	r2, r1
1a002e46:	4603      	mov	r3, r0
1a002e48:	e002      	b.n	1a002e50 <memset+0x18>
1a002e4a:	f114 34ff 	adds.w	r4, r4, #4294967295	; 0xffffffff
1a002e4e:	d338      	bcc.n	1a002ec2 <memset+0x8a>
1a002e50:	f803 2b01 	strb.w	r2, [r3], #1
1a002e54:	079d      	lsls	r5, r3, #30
1a002e56:	d1f8      	bne.n	1a002e4a <memset+0x12>
1a002e58:	2c03      	cmp	r4, #3
1a002e5a:	d92b      	bls.n	1a002eb4 <memset+0x7c>
1a002e5c:	b2cd      	uxtb	r5, r1
1a002e5e:	ea45 2505 	orr.w	r5, r5, r5, lsl #8
1a002e62:	2c0f      	cmp	r4, #15
1a002e64:	ea45 4505 	orr.w	r5, r5, r5, lsl #16
1a002e68:	d916      	bls.n	1a002e98 <memset+0x60>
1a002e6a:	f1a4 0710 	sub.w	r7, r4, #16
1a002e6e:	093f      	lsrs	r7, r7, #4
1a002e70:	f103 0620 	add.w	r6, r3, #32
1a002e74:	eb06 1607 	add.w	r6, r6, r7, lsl #4
1a002e78:	f103 0210 	add.w	r2, r3, #16
1a002e7c:	e942 5504 	strd	r5, r5, [r2, #-16]
1a002e80:	e942 5502 	strd	r5, r5, [r2, #-8]
1a002e84:	3210      	adds	r2, #16
1a002e86:	42b2      	cmp	r2, r6
1a002e88:	d1f8      	bne.n	1a002e7c <memset+0x44>
1a002e8a:	f004 040f 	and.w	r4, r4, #15
1a002e8e:	3701      	adds	r7, #1
1a002e90:	2c03      	cmp	r4, #3
1a002e92:	eb03 1307 	add.w	r3, r3, r7, lsl #4
1a002e96:	d90d      	bls.n	1a002eb4 <memset+0x7c>
1a002e98:	461e      	mov	r6, r3
1a002e9a:	4622      	mov	r2, r4
1a002e9c:	3a04      	subs	r2, #4
1a002e9e:	2a03      	cmp	r2, #3
1a002ea0:	f846 5b04 	str.w	r5, [r6], #4
1a002ea4:	d8fa      	bhi.n	1a002e9c <memset+0x64>
1a002ea6:	1f22      	subs	r2, r4, #4
1a002ea8:	f022 0203 	bic.w	r2, r2, #3
1a002eac:	3204      	adds	r2, #4
1a002eae:	4413      	add	r3, r2
1a002eb0:	f004 0403 	and.w	r4, r4, #3
1a002eb4:	b12c      	cbz	r4, 1a002ec2 <memset+0x8a>
1a002eb6:	b2c9      	uxtb	r1, r1
1a002eb8:	441c      	add	r4, r3
1a002eba:	f803 1b01 	strb.w	r1, [r3], #1
1a002ebe:	429c      	cmp	r4, r3
1a002ec0:	d1fb      	bne.n	1a002eba <memset+0x82>
1a002ec2:	bcf0      	pop	{r4, r5, r6, r7}
1a002ec4:	4770      	bx	lr
1a002ec6:	4614      	mov	r4, r2
1a002ec8:	4603      	mov	r3, r0
1a002eca:	e7c5      	b.n	1a002e58 <memset+0x20>
1a002ecc:	64616568 	.word	0x64616568
1a002ed0:	ff007265 	.word	0xff007265

1a002ed4 <ExtRateIn>:
1a002ed4:	00000000                                ....

1a002ed8 <GpioButtons>:
1a002ed8:	08000400 09010900                       ........

1a002ee0 <GpioLeds>:
1a002ee0:	01050005 0e000205 0c010b01              ............

1a002eec <GpioPorts>:
1a002eec:	03030003 0f050403 05031005 07030603     ................
1a002efc:	ffff0802                                ....

1a002f00 <OscRateIn>:
1a002f00:	00b71b00                                ....

1a002f04 <InitClkStates>:
1a002f04:	01010f01                                ....

1a002f08 <pinmuxing>:
1a002f08:	00440002 00440102 00440202 00400a02     ..D...D...D...@.
1a002f18:	00400b02 00400c02 00500001 00500101     ..@...@...P...P.
1a002f28:	00500201 00500601 00500106 00500406     ..P...P...P...P.
1a002f38:	00500506 00540706 00540806 00500906     ..P...T...T...P.
1a002f48:	00500a06 00500b06 00500c06 00f0040f     ..P...P...P.....
1a002f58:	00d50301 00d50401 00160107 00560207     ..............V.
1a002f68:	00520302 00520402 00520509 00570609     ..R...R...R...W.
1a002f78:	00570206                                ..W.

1a002f7c <UART_BClock>:
1a002f7c:	01a201c2 01620182                       ......b.

1a002f84 <UART_PClock>:
1a002f84:	00820081 00a200a1 08040201 0f0f0f03     ................
1a002f94:	000000ff                                ....

1a002f98 <periph_to_base>:
1a002f98:	00050000 0020000a 00090024 00400040     ...... .$...@.@.
1a002fa8:	00600005 000400a6 00c300c0 00e00002     ..`.............
1a002fb8:	000100e0 01000100 01200003 00060120     .......... . ...
1a002fc8:	01400140 0142000c 00190142 01620162     @.@...B.B...b.b.
1a002fd8:	01820013 00120182 01a201a2 01c20011     ................
1a002fe8:	001001c2 01e201e2 0202000f 000e0202     ................
1a002ff8:	02220222 0223000d 001c0223              "."...#.#...

1a003004 <InitClkStates>:
1a003004:	00010100 00010909 0001090a 01010701     ................
1a003014:	00010902 00010906 0101090c 0001090d     ................
1a003024:	0001090e 0001090f 00010910 00010911     ................
1a003034:	00010912 00010913 00011114 00011119     ................
1a003044:	0001111a 0001111b                       ........

1a00304c <lpcUarts>:
1a00304c:	40081000 06020406 00180205 40081000     ...@...........@
1a00305c:	09070509 00180706 40082000 00000000     ......... .@....
1a00306c:	00190000 400c1000 07060107 001a0602     .......@........
1a00307c:	400c1000 01010f01 001a0110 400c2000     ...@......... .@
1a00308c:	02020302 001b0204 00061a80 0000000a     ................

1a00309c <gpioPinsInit>:
1a00309c:	02000104 00050701 05010d03 04080100     ................
1a0030ac:	02020002 02000304 00000403 04070002     ................
1a0030bc:	030c0300 09050402 05040103 04030208     ................
1a0030cc:	04020305 06040504 0802000c 03000b06     ................
1a0030dc:	00090607 07060503 060f0504 03030004     ................
1a0030ec:	02000404 00050404 06040502 04060200     ................
1a0030fc:	0c050408 05040a04 0003010e 14010a00     ................
1a00310c:	010f0000 0d000012 00001101 0010010c     ................
1a00311c:	07070300 000f0300 01000001 00000000     ................
1a00312c:	000a0600 08060603 06100504 04030005     ................
1a00313c:	03000106 04090400 04010d05 010b0000     ................
1a00314c:	0200000f 00000001 00010104 02010800     ................
1a00315c:	01090000 09010006 05040002 04010200     ................
1a00316c:	02020105 02020504 0e00000a 01000b02     ................
1a00317c:	000c020b ffff0c01                       ........

1a003184 <realCoefAQ15>:
1a003184:	c0004000 c0003ff3 c0003fe7 c0003fda     .@...?...?...?..
1a003194:	c0003fce c0003fc1 c0003fb5 c0003fa8     .?...?...?...?..
1a0031a4:	c0003f9b c0003f8f c0003f82 c0013f76     .?...?...?..v?..
1a0031b4:	c0013f69 c0013f5d c0013f50 c0013f44     i?..]?..P?..D?..
1a0031c4:	c0013f37 c0013f2a c0023f1e c0023f11     7?..*?...?...?..
1a0031d4:	c0023f05 c0023ef8 c0023eec c0033edf     .?...>...>...>..
1a0031e4:	c0033ed2 c0033ec6 c0033eb9 c0043ead     .>...>...>...>..
1a0031f4:	c0043ea0 c0043e94 c0043e87 c0053e7a     .>...>...>..z>..
1a003204:	c0053e6e c0053e61 c0063e55 c0063e48     n>..a>..U>..H>..
1a003214:	c0063e3c c0073e2f c0073e23 c0073e16     <>../>..#>...>..
1a003224:	c0083e09 c0083dfd c0093df0 c0093de4     .>...=...=...=..
1a003234:	c0093dd7 c00a3dcb c00a3dbe c00b3db2     .=...=...=...=..
1a003244:	c00b3da5 c00c3d98 c00c3d8c c00d3d7f     .=...=...=...=..
1a003254:	c00d3d73 c00e3d66 c00e3d5a c00f3d4d     s=..f=..Z=..M=..
1a003264:	c00f3d40 c0103d34 c0103d27 c0113d1b     @=..4=..'=...=..
1a003274:	c0113d0e c0123d02 c0133cf5 c0133ce9     .=...=...<...<..
1a003284:	c0143cdc c0143cd0 c0153cc3 c0163cb6     .<...<...<...<..
1a003294:	c0163caa c0173c9d c0183c91 c0183c84     .<...<...<...<..
1a0032a4:	c0193c78 c01a3c6b c01a3c5f c01b3c52     x<..k<.._<..R<..
1a0032b4:	c01c3c45 c01d3c39 c01d3c2c c01e3c20     E<..9<..,<.. <..
1a0032c4:	c01f3c13 c0203c07 c0203bfa c0213bee     .<...< ..; ..;!.
1a0032d4:	c0223be1 c0233bd5 c0243bc8 c0243bbc     .;"..;#..;$..;$.
1a0032e4:	c0253baf c0263ba2 c0273b96 c0283b89     .;%..;&..;'..;(.
1a0032f4:	c0293b7d c02a3b70 c02b3b64 c02b3b57     };).p;*.d;+.W;+.
1a003304:	c02c3b4b c02d3b3e c02e3b32 c02f3b25     K;,.>;-.2;..%;/.
1a003314:	c0303b19 c0313b0c c0323b00 c0333af3     .;0..;1..;2..:3.
1a003324:	c0343ae6 c0353ada c0363acd c0373ac1     .:4..:5..:6..:7.
1a003334:	c0383ab4 c0393aa8 c03a3a9b c03b3a8f     .:8..:9..::..:;.
1a003344:	c03c3a82 c03d3a76 c03f3a69 c0403a5d     .:<.v:=.i:?.]:@.
1a003354:	c0413a50 c0423a44 c0433a37 c0443a2b     P:A.D:B.7:C.+:D.
1a003364:	c0453a1e c0473a12 c0483a05 c04939f9     .:E..:G..:H..9I.
1a003374:	c04a39ec c04b39e0 c04c39d3 c04e39c7     .9J..9K..9L..9N.
1a003384:	c04f39ba c05039ae c05139a1 c0533995     .9O..9P..9Q..9S.
1a003394:	c0543988 c055397c c056396f c0583963     .9T.|9U.o9V.c9X.
1a0033a4:	c0593956 c05a394a c05c393d c05d3931     V9Y.J9Z.=9\.19].
1a0033b4:	c05e3924 c0603918 c061390b c06238ff     $9^..9`..9a..8b.
1a0033c4:	c06438f2 c06538e6 c06738d9 c06838cd     .8d..8e..8g..8h.
1a0033d4:	c06938c0 c06b38b4 c06c38a7 c06e389b     .8i..8k..8l..8n.
1a0033e4:	c06f388e c0713882 c0723875 c0743869     .8o..8q.u8r.i8t.
1a0033f4:	c075385c c0773850 c0783843 c07a3837     \8u.P8w.C8x.78z.
1a003404:	c07b382a c07d381e c07e3811 c0803805     *8{..8}..8~..8..
1a003414:	c08137f9 c08337ec c08537e0 c08637d3     .7...7...7...7..
1a003424:	c08837c7 c08937ba c08b37ae c08d37a1     .7...7...7...7..
1a003434:	c08e3795 c0903788 c092377c c093376f     .7...7..|7..o7..
1a003444:	c0953763 c0973757 c098374a c09a373e     c7..W7..J7..>7..
1a003454:	c09c3731 c09e3725 c09f3718 c0a1370c     17..%7...7...7..
1a003464:	c0a336ff c0a536f3 c0a636e7 c0a836da     .6...6...6...6..
1a003474:	c0aa36ce c0ac36c1 c0ae36b5 c0af36a8     .6...6...6...6..
1a003484:	c0b1369c c0b33690 c0b53683 c0b73677     .6...6...6..w6..
1a003494:	c0b9366a c0bb365e c0bd3651 c0be3645     j6..^6..Q6..E6..
1a0034a4:	c0c03639 c0c2362c c0c43620 c0c63613     96..,6.. 6...6..
1a0034b4:	c0c83607 c0ca35fa c0cc35ee c0ce35e2     .6...5...5...5..
1a0034c4:	c0d035d5 c0d235c9 c0d435bc c0d635b0     .5...5...5...5..
1a0034d4:	c0d835a4 c0da3597 c0dc358b c0de357e     .5...5...5..~5..
1a0034e4:	c0e03572 c0e23566 c0e43559 c0e7354d     r5..f5..Y5..M5..
1a0034f4:	c0e93540 c0eb3534 c0ed3528 c0ef351b     @5..45..(5...5..
1a003504:	c0f1350f c0f33503 c0f634f6 c0f834ea     .5...5...4...4..
1a003514:	c0fa34dd c0fc34d1 c0fe34c5 c10034b8     .4...4...4...4..
1a003524:	c10334ac c10534a0 c1073493 c1093487     .4...4...4...4..
1a003534:	c10c347b c10e346e c1103462 c1133455     {4..n4..b4..U4..
1a003544:	c1153449 c117343d c1193430 c11c3424     I4..=4..04..$4..
1a003554:	c11e3418 c120340b c12333ff c12533f3     .4...4 ..3#..3%.
1a003564:	c12833e6 c12a33da c12c33ce c12f33c1     .3(..3*..3,..3/.
1a003574:	c13133b5 c13433a9 c136339c c1383390     .31..34..36..38.
1a003584:	c13b3384 c13d3377 c140336b c142335f     .3;.w3=.k3@._3B.
1a003594:	c1453352 c1473346 c14a333a c14c332d     R3E.F3G.:3J.-3L.
1a0035a4:	c14f3321 c1513315 c1543308 c15632fc     !3O..3Q..3T..2V.
1a0035b4:	c15932f0 c15b32e4 c15e32d7 c16132cb     .2Y..2[..2^..2a.
1a0035c4:	c16332bf c16632b2 c16832a6 c16b329a     .2c..2f..2h..2k.
1a0035d4:	c16e328e c1703281 c1733275 c1763269     .2n..2p.u2s.i2v.
1a0035e4:	c178325c c17b3250 c17e3244 c1803238     \2x.P2{.D2~.82..
1a0035f4:	c183322b c186321f c1893213 c18b3207     +2...2...2...2..
1a003604:	c18e31fa c19131ee c19431e2 c19631d5     .1...1...1...1..
1a003614:	c19931c9 c19c31bd c19f31b1 c1a231a4     .1...1...1...1..
1a003624:	c1a43198 c1a7318c c1aa3180 c1ad3174     .1...1...1..t1..
1a003634:	c1b03167 c1b3315b c1b6314f c1b83143     g1..[1..O1..C1..
1a003644:	c1bb3136 c1be312a c1c1311e c1c43112     61..*1...1...1..
1a003654:	c1c73105 c1ca30f9 c1cd30ed c1d030e1     .1...0...0...0..
1a003664:	c1d330d5 c1d630c8 c1d930bc c1dc30b0     .0...0...0...0..
1a003674:	c1df30a4 c1e23098 c1e5308b c1e8307f     .0...0...0...0..
1a003684:	c1eb3073 c1ee3067 c1f1305b c1f4304e     s0..g0..[0..N0..
1a003694:	c1f73042 c1fa3036 c1fd302a c201301e     B0..60..*0...0..
1a0036a4:	c2043012 c2073005 c20a2ff9 c20d2fed     .0...0.../.../..
1a0036b4:	c2102fe1 c2132fd5 c2172fc9 c21a2fbc     ./.../.../.../..
1a0036c4:	c21d2fb0 c2202fa4 c2232f98 c2272f8c     ./.../ ../#../'.
1a0036d4:	c22a2f80 c22d2f74 c2302f67 c2342f5b     ./*.t/-.g/0.[/4.
1a0036e4:	c2372f4f c23a2f43 c23e2f37 c2412f2b     O/7.C/:.7/>.+/A.
1a0036f4:	c2442f1f c2472f13 c24b2f06 c24e2efa     ./D../G../K...N.
1a003704:	c2512eee c2552ee2 c2582ed6 c25c2eca     ..Q...U...X...\.
1a003714:	c25f2ebe c2622eb2 c2662ea6 c2692e99     .._...b...f...i.
1a003724:	c26d2e8d c2702e81 c2732e75 c2772e69     ..m...p.u.s.i.w.
1a003734:	c27a2e5d c27e2e51 c2812e45 c2852e39     ].z.Q.~.E...9...
1a003744:	c2882e2d c28c2e21 c28f2e15 c2932e09     -...!...........
1a003754:	c2962dfc c29a2df0 c29d2de4 c2a12dd8     .-...-...-...-..
1a003764:	c2a52dcc c2a82dc0 c2ac2db4 c2af2da8     .-...-...-...-..
1a003774:	c2b32d9c c2b72d90 c2ba2d84 c2be2d78     .-...-...-..x-..
1a003784:	c2c12d6c c2c52d60 c2c92d54 c2cc2d48     l-..`-..T-..H-..
1a003794:	c2d02d3c c2d42d30 c2d82d24 c2db2d18     <-..0-..$-...-..
1a0037a4:	c2df2d0c c2e32d00 c2e62cf4 c2ea2ce8     .-...-...,...,..
1a0037b4:	c2ee2cdc c2f22cd0 c2f52cc4 c2f92cb8     .,...,...,...,..
1a0037c4:	c2fd2cac c3012ca0 c3052c94 c3082c88     .,...,...,...,..
1a0037d4:	c30c2c7c c3102c70 c3142c64 c3182c58     |,..p,..d,..X,..
1a0037e4:	c31c2c4c c3202c40 c3232c34 c3272c28     L,..@, .4,#.(,'.
1a0037f4:	c32b2c1c c32f2c10 c3332c05 c3372bf9     .,+..,/..,3..+7.
1a003804:	c33b2bed c33f2be1 c3432bd5 c3472bc9     .+;..+?..+C..+G.
1a003814:	c34b2bbd c34f2bb1 c3532ba5 c3572b99     .+K..+O..+S..+W.
1a003824:	c35b2b8d c35f2b81 c3632b75 c3672b6a     .+[..+_.u+c.j+g.
1a003834:	c36b2b5e c36f2b52 c3732b46 c3772b3a     ^+k.R+o.F+s.:+w.
1a003844:	c37b2b2e c37f2b22 c3832b16 c3872b0a     .+{."+...+...+..
1a003854:	c38c2aff c3902af3 c3942ae7 c3982adb     .*...*...*...*..
1a003864:	c39c2acf c3a02ac3 c3a52ab7 c3a92aac     .*...*...*...*..
1a003874:	c3ad2aa0 c3b12a94 c3b52a88 c3ba2a7c     .*...*...*..|*..
1a003884:	c3be2a70 c3c22a65 c3c62a59 c3ca2a4d     p*..e*..Y*..M*..
1a003894:	c3cf2a41 c3d32a35 c3d72a29 c3dc2a1e     A*..5*..)*...*..
1a0038a4:	c3e02a12 c3e42a06 c3e929fa c3ed29ee     .*...*...)...)..
1a0038b4:	c3f129e3 c3f629d7 c3fa29cb c3fe29bf     .)...)...)...)..
1a0038c4:	c40329b4 c40729a8 c40b299c c4102990     .)...)...)...)..
1a0038d4:	c4142984 c4192979 c41d296d c4222961     .)..y)..m)..a)".
1a0038e4:	c4262955 c42a294a c42f293e c4332932     U)&.J)*.>)/.2)3.
1a0038f4:	c4382926 c43c291b c441290f c4452903     &)8..)<..)A..)E.
1a003904:	c44a28f7 c44e28ec c45328e0 c45728d4     .(J..(N..(S..(W.
1a003914:	c45c28c9 c46128bd c46528b1 c46a28a5     .(\..(a..(e..(j.
1a003924:	c46e289a c473288e c4782882 c47c2877     .(n..(s..(x.w(|.
1a003934:	c481286b c485285f c48a2854 c48f2848     k(.._(..T(..H(..
1a003944:	c493283c c4982831 c49d2825 c4a12819     <(..1(..%(...(..
1a003954:	c4a6280e c4ab2802 c4b027f6 c4b427eb     .(...(...'...'..
1a003964:	c4b927df c4be27d3 c4c227c8 c4c727bc     .'...'...'...'..
1a003974:	c4cc27b1 c4d127a5 c4d62799 c4da278e     .'...'...'...'..
1a003984:	c4df2782 c4e42777 c4e9276b c4ee275f     .'..w'..k'.._'..
1a003994:	c4f22754 c4f72748 c4fc273d c5012731     T'..H'..='..1'..
1a0039a4:	c5062725 c50b271a c510270e c5152703     %'...'...'...'..
1a0039b4:	c51a26f7 c51e26ec c52326e0 c52826d4     .&...&...&#..&(.
1a0039c4:	c52d26c9 c53226bd c53726b2 c53c26a6     .&-..&2..&7..&<.
1a0039d4:	c541269b c546268f c54b2684 c5502678     .&A..&F..&K.x&P.
1a0039e4:	c555266d c55a2661 c55f2656 c564264a     m&U.a&Z.V&_.J&d.
1a0039f4:	c569263f c56e2633 c5732628 c578261c     ?&i.3&n.(&s..&x.
1a003a04:	c57e2611 c5832605 c58825fa c58d25ee     .&~..&...%...%..
1a003a14:	c59225e3 c59725d7 c59c25cc c5a125c0     .%...%...%...%..
1a003a24:	c5a725b5 c5ac25a9 c5b1259e c5b62592     .%...%...%...%..
1a003a34:	c5bb2587 c5c1257c c5c62570 c5cb2565     .%..|%..p%..e%..
1a003a44:	c5d02559 c5d5254e c5db2542 c5e02537     Y%..N%..B%..7%..
1a003a54:	c5e5252c c5ea2520 c5f02515 c5f52509     ,%.. %...%...%..
1a003a64:	c5fa24fe c60024f3 c60524e7 c60a24dc     .$...$...$...$..
1a003a74:	c61024d0 c61524c5 c61a24ba c62024ae     .$...$...$...$ .
1a003a84:	c62524a3 c62a2498 c630248c c6352481     .$%..$*..$0..$5.
1a003a94:	c63b2476 c640246a c645245f c64b2454     v$;.j$@._$E.T$K.
1a003aa4:	c6502448 c656243d c65b2432 c6612426     H$P.=$V.2$[.&$a.
1a003ab4:	c666241b c66c2410 c6712404 c67723f9     .$f..$l..$q..#w.
1a003ac4:	c67c23ee c68223e2 c68723d7 c68d23cc     .#|..#...#...#..
1a003ad4:	c69223c1 c69823b5 c69d23aa c6a3239f     .#...#...#...#..
1a003ae4:	c6a82394 c6ae2388 c6b4237d c6b92372     .#...#..}#..r#..
1a003af4:	c6bf2367 c6c5235b c6ca2350 c6d02345     g#..[#..P#..E#..
1a003b04:	c6d5233a c6db232e c6e12323 c6e62318     :#...#..##...#..
1a003b14:	c6ec230d c6f22301 c6f722f6 c6fd22eb     .#...#..."..."..
1a003b24:	c70322e0 c70922d5 c70e22ca c71422be     ."..."..."..."..
1a003b34:	c71a22b3 c72022a8 c725229d c72b2292     ."..." .."%.."+.
1a003b44:	c7312287 c737227b c73d2270 c7422265     ."1.{"7.p"=.e"B.
1a003b54:	c748225a c74e224f c7542244 c75a2239     Z"H.O"N.D"T.9"Z.
1a003b64:	c75f222d c7652222 c76b2217 c771220c     -"_.""e.."k.."q.
1a003b74:	c7772201 c77d21f6 c78321eb c78921e0     ."w..!}..!...!..
1a003b84:	c78f21d5 c79521ca c79a21be c7a021b3     .!...!...!...!..
1a003b94:	c7a621a8 c7ac219d c7b22192 c7b82187     .!...!...!...!..
1a003ba4:	c7be217c c7c42171 c7ca2166 c7d0215b     |!..q!..f!..[!..
1a003bb4:	c7d62150 c7dc2145 c7e2213a c7e8212f     P!..E!..:!../!..
1a003bc4:	c7ee2124 c7f52119 c7fb210e c8012103     $!...!...!...!..
1a003bd4:	c80720f8 c80d20ed c81320e2 c81920d7     . ... ... ... ..
1a003be4:	c81f20cc c82520c1 c82b20b6 c83220ab     . ... %.. +.. 2.
1a003bf4:	c83820a0 c83e2095 c844208a c84a207f     . 8.. >.. D.. J.
1a003c04:	c8502074 c8572069 c85d205e c8632054     t P.i W.^ ].T c.
1a003c14:	c8692049 c870203e c8762033 c87c2028     I i.> p.3 v.( |.
1a003c24:	c882201d c8892012 c88f2007 c8951ffc     . ... ... ......
1a003c34:	c89b1ff1 c8a21fe7 c8a81fdc c8ae1fd1     ................
1a003c44:	c8b51fc6 c8bb1fbb c8c11fb0 c8c81fa5     ................
1a003c54:	c8ce1f9b c8d41f90 c8db1f85 c8e11f7a     ............z...
1a003c64:	c8e81f6f c8ee1f65 c8f41f5a c8fb1f4f     o...e...Z...O...
1a003c74:	c9011f44 c9081f39 c90e1f2f c9151f24     D...9.../...$...
1a003c84:	c91b1f19 c9211f0e c9281f03 c92e1ef9     ......!...(.....
1a003c94:	c9351eee c93b1ee3 c9421ed8 c9481ece     ..5...;...B...H.
1a003ca4:	c94f1ec3 c9551eb8 c95c1ead c9631ea3     ..O...U...\...c.
1a003cb4:	c9691e98 c9701e8d c9761e83 c97d1e78     ..i...p...v.x.}.
1a003cc4:	c9831e6d c98a1e62 c9911e58 c9971e4d     m...b...X...M...
1a003cd4:	c99e1e42 c9a41e38 c9ab1e2d c9b21e22     B...8...-..."...
1a003ce4:	c9b81e18 c9bf1e0d c9c61e02 c9cc1df8     ................
1a003cf4:	c9d31ded c9da1de2 c9e01dd8 c9e71dcd     ................
1a003d04:	c9ee1dc3 c9f51db8 c9fb1dad ca021da3     ................
1a003d14:	ca091d98 ca101d8e ca161d83 ca1d1d78     ............x...
1a003d24:	ca241d6e ca2b1d63 ca321d59 ca381d4e     n.$.c.+.Y.2.N.8.
1a003d34:	ca3f1d44 ca461d39 ca4d1d2e ca541d24     D.?.9.F...M.$.T.
1a003d44:	ca5b1d19 ca611d0f ca681d04 ca6f1cfa     ..[...a...h...o.
1a003d54:	ca761cef ca7d1ce5 ca841cda ca8b1cd0     ..v...}.........
1a003d64:	ca921cc5 ca991cbb ca9f1cb0 caa61ca6     ................
1a003d74:	caad1c9b cab41c91 cabb1c86 cac21c7c     ............|...
1a003d84:	cac91c72 cad01c67 cad71c5d cade1c52     r...g...]...R...
1a003d94:	cae51c48 caec1c3d caf31c33 cafa1c29     H...=...3...)...
1a003da4:	cb011c1e cb081c14 cb0f1c09 cb161bff     ................
1a003db4:	cb1e1bf5 cb251bea cb2c1be0 cb331bd5     ......%...,...3.
1a003dc4:	cb3a1bcb cb411bc1 cb481bb6 cb4f1bac     ..:...A...H...O.
1a003dd4:	cb561ba2 cb5e1b97 cb651b8d cb6c1b83     ..V...^...e...l.
1a003de4:	cb731b78 cb7a1b6e cb811b64 cb891b59     x.s.n.z.d...Y...
1a003df4:	cb901b4f cb971b45 cb9e1b3b cba51b30     O...E...;...0...
1a003e04:	cbad1b26 cbb41b1c cbbb1b11 cbc21b07     &...............
1a003e14:	cbca1afd cbd11af3 cbd81ae8 cbe01ade     ................
1a003e24:	cbe71ad4 cbee1aca cbf51abf cbfd1ab5     ................
1a003e34:	cc041aab cc0b1aa1 cc131a97 cc1a1a8c     ................
1a003e44:	cc211a82 cc291a78 cc301a6e cc381a64     ..!.x.).n.0.d.8.
1a003e54:	cc3f1a5a cc461a4f cc4e1a45 cc551a3b     Z.?.O.F.E.N.;.U.
1a003e64:	cc5d1a31 cc641a27 cc6b1a1d cc731a13     1.].'.d...k...s.
1a003e74:	cc7a1a08 cc8219fe cc8919f4 cc9119ea     ..z.............
1a003e84:	cc9819e0 cca019d6 cca719cc ccaf19c2     ................
1a003e94:	ccb619b8 ccbe19ae ccc519a4 cccd199a     ................
1a003ea4:	ccd4198f ccdc1985 cce3197b cceb1971     ........{...q...
1a003eb4:	ccf31967 ccfa195d cd021953 cd091949     g...]...S...I...
1a003ec4:	cd11193f cd191935 cd20192b cd281921     ?...5...+. .!.(.
1a003ed4:	cd301917 cd37190d cd3f1903 cd4618f9     ..0...7...?...F.
1a003ee4:	cd4e18ef cd5618e6 cd5d18dc cd6518d2     ..N...V...]...e.
1a003ef4:	cd6d18c8 cd7518be cd7c18b4 cd8418aa     ..m...u...|.....
1a003f04:	cd8c18a0 cd931896 cd9b188c cda31882     ................
1a003f14:	cdab1878 cdb2186f cdba1865 cdc2185b     x...o...e...[...
1a003f24:	cdca1851 cdd21847 cdd9183d cde11833     Q...G...=...3...
1a003f34:	cde9182a cdf11820 cdf91816 ce01180c     *... ...........
1a003f44:	ce081802 ce1017f8 ce1817ef ce2017e5     .............. .
1a003f54:	ce2817db ce3017d1 ce3817c8 ce4017be     ..(...0...8...@.
1a003f64:	ce4717b4 ce4f17aa ce5717a0 ce5f1797     ..G...O...W..._.
1a003f74:	ce67178d ce6f1783 ce77177a ce7f1770     ..g...o.z.w.p...
1a003f84:	ce871766 ce8f175c ce971753 ce9f1749     f...\...S...I...
1a003f94:	cea7173f ceaf1736 ceb7172c cebf1722     ?...6...,..."...
1a003fa4:	cec71719 cecf170f ced71705 cedf16fc     ................
1a003fb4:	cee716f2 ceef16e8 cef716df ceff16d5     ................
1a003fc4:	cf0716cb cf1016c2 cf1816b8 cf2016af     .............. .
1a003fd4:	cf2816a5 cf30169b cf381692 cf401688     ..(...0...8...@.
1a003fe4:	cf48167f cf511675 cf59166c cf611662     ..H.u.Q.l.Y.b.a.
1a003ff4:	cf691659 cf71164f cf791645 cf82163c     Y.i.O.q.E.y.<...
1a004004:	cf8a1632 cf921629 cf9a161f cfa31616     2...)...........
1a004014:	cfab160c cfb31603 cfbb15f9 cfc415f0     ................
1a004024:	cfcc15e6 cfd415dd cfdc15d4 cfe515ca     ................
1a004034:	cfed15c1 cff515b7 cffe15ae d00615a4     ................
1a004044:	d00e159b d0161592 d01f1588 d027157f     ..............'.
1a004054:	d0301575 d038156c d0401563 d0491559     u.0.l.8.c.@.Y.I.
1a004064:	d0511550 d0591547 d062153d d06a1534     P.Q.G.Y.=.b.4.j.
1a004074:	d073152a d07b1521 d0831518 d08c150e     *.s.!.{.........
1a004084:	d0941505 d09d14fc d0a514f3 d0ae14e9     ................
1a004094:	d0b614e0 d0bf14d7 d0c714cd d0d014c4     ................
1a0040a4:	d0d814bb d0e014b2 d0e914a8 d0f2149f     ................
1a0040b4:	d0fa1496 d103148d d10b1483 d114147a     ............z...
1a0040c4:	d11c1471 d1251468 d12d145f d1361455     q...h.%._.-.U.6.
1a0040d4:	d13e144c d1471443 d150143a d1581431     L.>.C.G.:.P.1.X.
1a0040e4:	d1611428 d169141e d1721415 d17b140c     (.a...i...r...{.
1a0040f4:	d1831403 d18c13fa d19513f1 d19d13e8     ................
1a004104:	d1a613df d1af13d5 d1b713cc d1c013c3     ................
1a004114:	d1c913ba d1d113b1 d1da13a8 d1e3139f     ................
1a004124:	d1eb1396 d1f4138d d1fd1384 d206137b     ............{...
1a004134:	d20e1372 d2171369 d2201360 d2291357     r...i...`. .W.).
1a004144:	d231134e d23a1345 d243133c d24c1333     N.1.E.:.<.C.3.L.
1a004154:	d255132a d25d1321 d2661318 d26f130f     *.U.!.]...f...o.
1a004164:	d2781306 d28112fd d28a12f4 d29212eb     ..x.............
1a004174:	d29b12e2 d2a412d9 d2ad12d1 d2b612c8     ................
1a004184:	d2bf12bf d2c812b6 d2d112ad d2d912a4     ................
1a004194:	d2e2129b d2eb1292 d2f4128a d2fd1281     ................
1a0041a4:	d3061278 d30f126f d3181266 d321125d     x...o...f...].!.
1a0041b4:	d32a1255 d333124c d33c1243 d345123a     U.*.L.3.C.<.:.E.
1a0041c4:	d34e1231 d3571229 d3601220 d3691217     1.N.).W. .`...i.
1a0041d4:	d372120e d37b1206 d38411fd d38d11f4     ..r...{.........
1a0041e4:	d39611eb d39f11e3 d3a811da d3b111d1     ................
1a0041f4:	d3ba11c9 d3c311c0 d3cc11b7 d3d511af     ................
1a004204:	d3df11a6 d3e8119d d3f11195 d3fa118c     ................
1a004214:	d4031183 d40c117b d4151172 d41e1169     ....{...r...i...
1a004224:	d4281161 d4311158 d43a1150 d4431147     a.(.X.1.P.:.G.C.
1a004234:	d44c113e d4551136 d45f112d d4681125     >.L.6.U.-._.%.h.
1a004244:	d471111c d47a1114 d483110b d48d1103     ..q...z.........
1a004254:	d49610fa d49f10f2 d4a810e9 d4b210e0     ................
1a004264:	d4bb10d8 d4c410d0 d4cd10c7 d4d710bf     ................
1a004274:	d4e010b6 d4e910ae d4f310a5 d4fc109d     ................
1a004284:	d5051094 d50e108c d5181083 d521107b     ............{.!.
1a004294:	d52a1073 d534106a d53d1062 d5471059     s.*.j.4.b.=.Y.G.
1a0042a4:	d5501051 d5591049 d5631040 d56c1038     Q.P.I.Y.@.c.8.l.
1a0042b4:	d5751030 d57f1027 d588101f d5921016     0.u.'...........
1a0042c4:	d59b100e d5a41006 d5ae0ffe d5b70ff5     ................
1a0042d4:	d5c10fed d5ca0fe5 d5d40fdc d5dd0fd4     ................
1a0042e4:	d5e60fcc d5f00fc4 d5f90fbb d6030fb3     ................
1a0042f4:	d60c0fab d6160fa3 d61f0f9a d6290f92     ..............).
1a004304:	d6320f8a d63c0f82 d6450f79 d64f0f71     ..2...<.y.E.q.O.
1a004314:	d6590f69 d6620f61 d66c0f59 d6750f51     i.Y.a.b.Y.l.Q.u.
1a004324:	d67f0f48 d6880f40 d6920f38 d69b0f30     H...@...8...0...
1a004334:	d6a50f28 d6af0f20 d6b80f18 d6c20f10     (... ...........
1a004344:	d6cb0f07 d6d50eff d6df0ef7 d6e80eef     ................
1a004354:	d6f20ee7 d6fc0edf d7050ed7 d70f0ecf     ................
1a004364:	d7190ec7 d7220ebf d72c0eb7 d7360eaf     ......"...,...6.
1a004374:	d73f0ea7 d7490e9f d7530e97 d75c0e8f     ..?...I...S...\.
1a004384:	d7660e87 d7700e7f d77a0e77 d7830e6f     ..f...p.w.z.o...
1a004394:	d78d0e67 d7970e5f d7a00e57 d7aa0e4f     g..._...W...O...
1a0043a4:	d7b40e47 d7be0e40 d7c80e38 d7d10e30     G...@...8...0...
1a0043b4:	d7db0e28 d7e50e20 d7ef0e18 d7f80e10     (... ...........
1a0043c4:	d8020e08 d80c0e01 d8160df9 d8200df1     .............. .
1a0043d4:	d82a0de9 d8330de1 d83d0dd9 d8470dd2     ..*...3...=...G.
1a0043e4:	d8510dca d85b0dc2 d8650dba d86f0db2     ..Q...[...e...o.
1a0043f4:	d8780dab d8820da3 d88c0d9b d8960d93     ..x.............
1a004404:	d8a00d8c d8aa0d84 d8b40d7c d8be0d75     ........|...u...
1a004414:	d8c80d6d d8d20d65 d8dc0d5d d8e60d56     m...e...]...V...
1a004424:	d8ef0d4e d8f90d46 d9030d3f d90d0d37     N...F...?...7...
1a004434:	d9170d30 d9210d28 d92b0d20 d9350d19     0...(.!. .+...5.
1a004444:	d93f0d11 d9490d09 d9530d02 d95d0cfa     ..?...I...S...].
1a004454:	d9670cf3 d9710ceb d97b0ce3 d9850cdc     ..g...q...{.....
1a004464:	d98f0cd4 d99a0ccd d9a40cc5 d9ae0cbe     ................
1a004474:	d9b80cb6 d9c20caf d9cc0ca7 d9d60ca0     ................
1a004484:	d9e00c98 d9ea0c91 d9f40c89 d9fe0c82     ................
1a004494:	da080c7a da130c73 da1d0c6b da270c64     z...s...k...d.'.
1a0044a4:	da310c5d da3b0c55 da450c4e da4f0c46     ].1.U.;.N.E.F.O.
1a0044b4:	da5a0c3f da640c38 da6e0c30 da780c29     ?.Z.8.d.0.n.).x.
1a0044c4:	da820c21 da8c0c1a da970c13 daa10c0b     !...............
1a0044d4:	daab0c04 dab50bfd dabf0bf5 daca0bee     ................
1a0044e4:	dad40be7 dade0be0 dae80bd8 daf30bd1     ................
1a0044f4:	dafd0bca db070bc2 db110bbb db1c0bb4     ................
1a004504:	db260bad db300ba5 db3b0b9e db450b97     ..&...0...;...E.
1a004514:	db4f0b90 db590b89 db640b81 db6e0b7a     ..O...Y...d.z.n.
1a004524:	db780b73 db830b6c db8d0b65 db970b5e     s.x.l...e...^...
1a004534:	dba20b56 dbac0b4f dbb60b48 dbc10b41     V...O...H...A...
1a004544:	dbcb0b3a dbd50b33 dbe00b2c dbea0b25     :...3...,...%...
1a004554:	dbf50b1e dbff0b16 dc090b0f dc140b08     ................
1a004564:	dc1e0b01 dc290afa dc330af3 dc3d0aec     ......)...3...=.
1a004574:	dc480ae5 dc520ade dc5d0ad7 dc670ad0     ..H...R...]...g.
1a004584:	dc720ac9 dc7c0ac2 dc860abb dc910ab4     ..r...|.........
1a004594:	dc9b0aad dca60aa6 dcb00a9f dcbb0a99     ................
1a0045a4:	dcc50a92 dcd00a8b dcda0a84 dce50a7d     ............}...
1a0045b4:	dcef0a76 dcfa0a6f dd040a68 dd0f0a61     v...o...h...a...
1a0045c4:	dd190a5b dd240a54 dd2e0a4d dd390a46     [...T.$.M...F.9.
1a0045d4:	dd440a3f dd4e0a38 dd590a32 dd630a2b     ?.D.8.N.2.Y.+.c.
1a0045e4:	dd6e0a24 dd780a1d dd830a16 dd8e0a10     $.n...x.........
1a0045f4:	dd980a09 dda30a02 ddad09fb ddb809f5     ................
1a004604:	ddc309ee ddcd09e7 ddd809e0 dde209da     ................
1a004614:	dded09d3 ddf809cc de0209c6 de0d09bf     ................
1a004624:	de1809b8 de2209b2 de2d09ab de3809a4     ......"...-...8.
1a004634:	de42099e de4d0997 de580991 de62098a     ..B...M...X...b.
1a004644:	de6d0983 de78097d de830976 de8d0970     ..m.}.x.v...p...
1a004654:	de980969 dea30963 dead095c deb80955     i...c...\...U...
1a004664:	dec3094f dece0948 ded80942 dee3093b     O...H...B...;...
1a004674:	deee0935 def9092e df030928 df0e0921     5.......(...!...
1a004684:	df19091b df240915 df2f090e df390908     ......$.../...9.
1a004694:	df440901 df4f08fb df5a08f4 df6508ee     ..D...O...Z...e.
1a0046a4:	df6f08e8 df7a08e1 df8508db df9008d4     ..o...z.........
1a0046b4:	df9b08ce dfa508c8 dfb008c1 dfbb08bb     ................
1a0046c4:	dfc608b5 dfd108ae dfdc08a8 dfe708a2     ................
1a0046d4:	dff1089b dffc0895 e007088f e0120889     ................
1a0046e4:	e01d0882 e028087c e0330876 e03e0870     ....|.(.v.3.p.>.
1a0046f4:	e0490869 e0540863 e05e085d e0690857     i.I.c.T.].^.W.i.
1a004704:	e0740850 e07f084a e08a0844 e095083e     P.t.J...D...>...
1a004714:	e0a00838 e0ab0832 e0b6082b e0c10825     8...2...+...%...
1a004724:	e0cc081f e0d70819 e0e20813 e0ed080d     ................
1a004734:	e0f80807 e1030801 e10e07fb e11907f5     ................
1a004744:	e12407ee e12f07e8 e13a07e2 e14507dc     ..$.../...:...E.
1a004754:	e15007d6 e15b07d0 e16607ca e17107c4     ..P...[...f...q.
1a004764:	e17c07be e18707b8 e19207b2 e19d07ac     ..|.............
1a004774:	e1a807a6 e1b307a0 e1be079a e1ca0795     ................
1a004784:	e1d5078f e1e00789 e1eb0783 e1f6077d     ............}...
1a004794:	e2010777 e20c0771 e217076b e2220765     w...q...k...e.".
1a0047a4:	e22d075f e239075a e2440754 e24f074e     _.-.Z.9.T.D.N.O.
1a0047b4:	e25a0748 e2650742 e270073d e27b0737     H.Z.B.e.=.p.7.{.
1a0047c4:	e2870731 e292072b e29d0725 e2a80720     1...+...%... ...
1a0047d4:	e2b3071a e2be0714 e2ca070e e2d50709     ................
1a0047e4:	e2e00703 e2eb06fd e2f606f7 e30106f2     ................
1a0047f4:	e30d06ec e31806e6 e32306e1 e32e06db     ..........#.....
1a004804:	e33a06d5 e34506d0 e35006ca e35b06c5     ..:...E...P...[.
1a004814:	e36706bf e37206b9 e37d06b4 e38806ae     ..g...r...}.....
1a004824:	e39406a8 e39f06a3 e3aa069d e3b50698     ................
1a004834:	e3c10692 e3cc068d e3d70687 e3e20682     ................
1a004844:	e3ee067c e3f90677 e4040671 e410066c     |...w...q...l...
1a004854:	e41b0666 e4260661 e432065b e43d0656     f...a.&.[.2.V.=.
1a004864:	e4480650 e454064b e45f0645 e46a0640     P.H.K.T.E._.@.j.
1a004874:	e476063b e4810635 e48c0630 e498062a     ;.v.5...0...*...
1a004884:	e4a30625 e4ae0620 e4ba061a e4c50615     %... ...........
1a004894:	e4d00610 e4dc060a e4e70605 e4f30600     ................
1a0048a4:	e4fe05fa e50905f5 e51505f0 e52005ea     .............. .
1a0048b4:	e52c05e5 e53705e0 e54205db e54e05d5     ..,...7...B...N.
1a0048c4:	e55905d0 e56505cb e57005c6 e57c05c1     ..Y...e...p...|.
1a0048d4:	e58705bb e59205b6 e59e05b1 e5a905ac     ................
1a0048e4:	e5b505a7 e5c005a1 e5cc059c e5d70597     ................
1a0048f4:	e5e30592 e5ee058d e5fa0588 e6050583     ................
1a004904:	e611057e e61c0578 e6280573 e633056e     ~...x...s.(.n.3.
1a004914:	e63f0569 e64a0564 e656055f e661055a     i.?.d.J._.V.Z.a.
1a004924:	e66d0555 e6780550 e684054b e68f0546     U.m.P.x.K...F...
1a004934:	e69b0541 e6a6053c e6b20537 e6bd0532     A...<...7...2...
1a004944:	e6c9052d e6d40528 e6e00523 e6ec051e     -...(...#.......
1a004954:	e6f7051a e7030515 e70e0510 e71a050b     ................
1a004964:	e7250506 e7310501 e73d04fc e74804f7     ..%...1...=...H.
1a004974:	e75404f2 e75f04ee e76b04e9 e77704e4     ..T..._...k...w.
1a004984:	e78204df e78e04da e79904d6 e7a504d1     ................
1a004994:	e7b104cc e7bc04c7 e7c804c2 e7d304be     ................
1a0049a4:	e7df04b9 e7eb04b4 e7f604b0 e80204ab     ................
1a0049b4:	e80e04a6 e81904a1 e825049d e8310498     ..........%...1.
1a0049c4:	e83c0493 e848048f e854048a e85f0485     ..<...H...T..._.
1a0049d4:	e86b0481 e877047c e8820478 e88e0473     ..k.|.w.x...s...
1a0049e4:	e89a046e e8a5046a e8b10465 e8bd0461     n...j...e...a...
1a0049f4:	e8c9045c e8d40457 e8e00453 e8ec044e     \...W...S...N...
1a004a04:	e8f7044a e9030445 e90f0441 e91b043c     J...E...A...<...
1a004a14:	e9260438 e9320433 e93e042f e94a042a     8.&.3.2./.>.*.J.
1a004a24:	e9550426 e9610422 e96d041d e9790419     &.U.".a...m...y.
1a004a34:	e9840414 e9900410 e99c040b e9a80407     ................
1a004a44:	e9b40403 e9bf03fe e9cb03fa e9d703f6     ................
1a004a54:	e9e303f1 e9ee03ed e9fa03e9 ea0603e4     ................
1a004a64:	ea1203e0 ea1e03dc ea2903d7 ea3503d3     ..........)...5.
1a004a74:	ea4103cf ea4d03ca ea5903c6 ea6503c2     ..A...M...Y...e.
1a004a84:	ea7003be ea7c03ba ea8803b5 ea9403b1     ..p...|.........
1a004a94:	eaa003ad eaac03a9 eab703a5 eac303a0     ................
1a004aa4:	eacf039c eadb0398 eae70394 eaf30390     ................
1a004ab4:	eaff038c eb0a0387 eb160383 eb22037f     ..............".
1a004ac4:	eb2e037b eb3a0377 eb460373 eb52036f     {...w.:.s.F.o.R.
1a004ad4:	eb5e036b eb6a0367 eb750363 eb81035f     k.^.g.j.c.u._...
1a004ae4:	eb8d035b eb990357 eba50353 ebb1034f     [...W...S...O...
1a004af4:	ebbd034b ebc90347 ebd50343 ebe1033f     K...G...C...?...
1a004b04:	ebed033b ebf90337 ec050333 ec10032f     ;...7...3.../...
1a004b14:	ec1c032b ec280327 ec340323 ec400320     +...'.(.#.4. .@.
1a004b24:	ec4c031c ec580318 ec640314 ec700310     ..L...X...d...p.
1a004b34:	ec7c030c ec880308 ec940305 eca00301     ..|.............
1a004b44:	ecac02fd ecb802f9 ecc402f5 ecd002f2     ................
1a004b54:	ecdc02ee ece802ea ecf402e6 ed0002e3     ................
1a004b64:	ed0c02df ed1802db ed2402d8 ed3002d4     ..........$...0.
1a004b74:	ed3c02d0 ed4802cc ed5402c9 ed6002c5     ..<...H...T...`.
1a004b84:	ed6c02c1 ed7802be ed8402ba ed9002b7     ..l...x.........
1a004b94:	ed9c02b3 eda802af edb402ac edc002a8     ................
1a004ba4:	edcc02a5 edd802a1 ede4029d edf0029a     ................
1a004bb4:	edfc0296 ee090293 ee15028f ee21028c     ..............!.
1a004bc4:	ee2d0288 ee390285 ee450281 ee51027e     ..-...9...E.~.Q.
1a004bd4:	ee5d027a ee690277 ee750273 ee810270     z.].w.i.s.u.p...
1a004be4:	ee8d026d ee990269 eea60266 eeb20262     m...i...f...b...
1a004bf4:	eebe025f eeca025c eed60258 eee20255     _...\...X...U...
1a004c04:	eeee0251 eefa024e ef06024b ef130247     Q...N...K...G...
1a004c14:	ef1f0244 ef2b0241 ef37023e ef43023a     D...A.+.>.7.:.C.
1a004c24:	ef4f0237 ef5b0234 ef670230 ef74022d     7.O.4.[.0.g.-.t.
1a004c34:	ef80022a ef8c0227 ef980223 efa40220     *...'...#... ...
1a004c44:	efb0021d efbc021a efc90217 efd50213     ................
1a004c54:	efe10210 efed020d eff9020a f0050207     ................
1a004c64:	f0120204 f01e0201 f02a01fd f03601fa     ..........*...6.
1a004c74:	f04201f7 f04e01f4 f05b01f1 f06701ee     ..B...N...[...g.
1a004c84:	f07301eb f07f01e8 f08b01e5 f09801e2     ..s.............
1a004c94:	f0a401df f0b001dc f0bc01d9 f0c801d6     ................
1a004ca4:	f0d501d3 f0e101d0 f0ed01cd f0f901ca     ................
1a004cb4:	f10501c7 f11201c4 f11e01c1 f12a01be     ..............*.
1a004cc4:	f13601bb f14301b8 f14f01b6 f15b01b3     ..6...C...O...[.
1a004cd4:	f16701b0 f17401ad f18001aa f18c01a7     ..g...t.........
1a004ce4:	f19801a4 f1a401a2 f1b1019f f1bd019c     ................
1a004cf4:	f1c90199 f1d50196 f1e20194 f1ee0191     ................
1a004d04:	f1fa018e f207018b f2130189 f21f0186     ................
1a004d14:	f22b0183 f2380180 f244017e f250017b     ..+...8.~.D.{.P.
1a004d24:	f25c0178 f2690176 f2750173 f2810170     x.\.v.i.s.u.p...
1a004d34:	f28e016e f29a016b f2a60168 f2b20166     n...k...h...f...
1a004d44:	f2bf0163 f2cb0161 f2d7015e f2e4015b     c...a...^...[...
1a004d54:	f2f00159 f2fc0156 f3080154 f3150151     Y...V...T...Q...
1a004d64:	f321014f f32d014c f33a014a f3460147     O.!.L.-.J.:.G.F.
1a004d74:	f3520145 f35f0142 f36b0140 f377013d     E.R.B._.@.k.=.w.
1a004d84:	f384013b f3900138 f39c0136 f3a90134     ;...8...6...4...
1a004d94:	f3b50131 f3c1012f f3ce012c f3da012a     1.../...,...*...
1a004da4:	f3e60128 f3f30125 f3ff0123 f40b0120     (...%...#... ...
1a004db4:	f418011e f424011c f4300119 f43d0117     ......$...0...=.
1a004dc4:	f4490115 f4550113 f4620110 f46e010e     ..I...U...b...n.
1a004dd4:	f47b010c f4870109 f4930107 f4a00105     ..{.............
1a004de4:	f4ac0103 f4b80100 f4c500fe f4d100fc     ................
1a004df4:	f4dd00fa f4ea00f8 f4f600f6 f50300f3     ................
1a004e04:	f50f00f1 f51b00ef f52800ed f53400eb     ..........(...4.
1a004e14:	f54000e9 f54d00e7 f55900e4 f56600e2     ..@...M...Y...f.
1a004e24:	f57200e0 f57e00de f58b00dc f59700da     ..r...~.........
1a004e34:	f5a400d8 f5b000d6 f5bc00d4 f5c900d2     ................
1a004e44:	f5d500d0 f5e200ce f5ee00cc f5fa00ca     ................
1a004e54:	f60700c8 f61300c6 f62000c4 f62c00c2     .......... ...,.
1a004e64:	f63900c0 f64500be f65100bd f65e00bb     ..9...E...Q...^.
1a004e74:	f66a00b9 f67700b7 f68300b5 f69000b3     ..j...w.........
1a004e84:	f69c00b1 f6a800af f6b500ae f6c100ac     ................
1a004e94:	f6ce00aa f6da00a8 f6e700a6 f6f300a5     ................
1a004ea4:	f6ff00a3 f70c00a1 f718009f f725009e     ..............%.
1a004eb4:	f731009c f73e009a f74a0098 f7570097     ..1...>...J...W.
1a004ec4:	f7630095 f76f0093 f77c0092 f7880090     ..c...o...|.....
1a004ed4:	f795008e f7a1008d f7ae008b f7ba0089     ................
1a004ee4:	f7c70088 f7d30086 f7e00085 f7ec0083     ................
1a004ef4:	f7f90081 f8050080 f811007e f81e007d     ........~...}...
1a004f04:	f82a007b f837007a f8430078 f8500077     {.*.z.7.x.C.w.P.
1a004f14:	f85c0075 f8690074 f8750072 f8820071     u.\.t.i.r.u.q...
1a004f24:	f88e006f f89b006e f8a7006c f8b4006b     o...n...l...k...
1a004f34:	f8c00069 f8cd0068 f8d90067 f8e60065     i...h...g...e...
1a004f44:	f8f20064 f8ff0062 f90b0061 f9180060     d...b...a...`...
1a004f54:	f924005e f931005d f93d005c f94a005a     ^.$.].1.\.=.Z.J.
1a004f64:	f9560059 f9630058 f96f0056 f97c0055     Y.V.X.c.V.o.U.|.
1a004f74:	f9880054 f9950053 f9a10051 f9ae0050     T...S...Q...P...
1a004f84:	f9ba004f f9c7004e f9d3004c f9e0004b     O...N...L...K...
1a004f94:	f9ec004a f9f90049 fa050048 fa120047     J...I...H...G...
1a004fa4:	fa1e0045 fa2b0044 fa370043 fa440042     E...D.+.C.7.B.D.
1a004fb4:	fa500041 fa5d0040 fa69003f fa76003d     A.P.@.].?.i.=.v.
1a004fc4:	fa82003c fa8f003b fa9b003a faa80039     <...;...:...9...
1a004fd4:	fab40038 fac10037 facd0036 fada0035     8...7...6...5...
1a004fe4:	fae60034 faf30033 fb000032 fb0c0031     4...3...2...1...
1a004ff4:	fb190030 fb25002f fb32002e fb3e002d     0.../.%...2.-.>.
1a005004:	fb4b002c fb57002b fb64002b fb70002a     ,.K.+.W.+.d.*.p.
1a005014:	fb7d0029 fb890028 fb960027 fba20026     ).}.(...'...&...
1a005024:	fbaf0025 fbbc0024 fbc80024 fbd50023     %...$...$...#...
1a005034:	fbe10022 fbee0021 fbfa0020 fc070020     "...!... ... ...
1a005044:	fc13001f fc20001e fc2c001d fc39001d     ...... ...,...9.
1a005054:	fc45001c fc52001b fc5f001a fc6b001a     ..E...R..._...k.
1a005064:	fc780019 fc840018 fc910018 fc9d0017     ..x.............
1a005074:	fcaa0016 fcb60016 fcc30015 fcd00014     ................
1a005084:	fcdc0014 fce90013 fcf50013 fd020012     ................
1a005094:	fd0e0011 fd1b0011 fd270010 fd340010     ..........'...4.
1a0050a4:	fd40000f fd4d000f fd5a000e fd66000e     ..@...M...Z...f.
1a0050b4:	fd73000d fd7f000d fd8c000c fd98000c     ..s.............
1a0050c4:	fda5000b fdb2000b fdbe000a fdcb000a     ................
1a0050d4:	fdd70009 fde40009 fdf00009 fdfd0008     ................
1a0050e4:	fe090008 fe160007 fe230007 fe2f0007     ..........#.../.
1a0050f4:	fe3c0006 fe480006 fe550006 fe610005     ..<...H...U...a.
1a005104:	fe6e0005 fe7a0005 fe870004 fe940004     ..n...z.........
1a005114:	fea00004 fead0004 feb90003 fec60003     ................
1a005124:	fed20003 fedf0003 feec0002 fef80002     ................
1a005134:	ff050002 ff110002 ff1e0002 ff2a0001     ..............*.
1a005144:	ff370001 ff440001 ff500001 ff5d0001     ..7...D...P...].
1a005154:	ff690001 ff760001 ff820000 ff8f0000     ..i...v.........
1a005164:	ff9b0000 ffa80000 ffb50000 ffc10000     ................
1a005174:	ffce0000 ffda0000 ffe70000 fff30000     ................
1a005184:	00000000 000d0000 00190000 00260000     ..............&.
1a005194:	00320000 003f0000 004b0000 00580000     ..2...?...K...X.
1a0051a4:	00650000 00710000 007e0000 008a0001     ..e...q...~.....
1a0051b4:	00970001 00a30001 00b00001 00bc0001     ................
1a0051c4:	00c90001 00d60001 00e20002 00ef0002     ................
1a0051d4:	00fb0002 01080002 01140002 01210003     ..............!.
1a0051e4:	012e0003 013a0003 01470003 01530004     ......:...G...S.
1a0051f4:	01600004 016c0004 01790004 01860005     ..`...l...y.....
1a005204:	01920005 019f0005 01ab0006 01b80006     ................
1a005214:	01c40006 01d10007 01dd0007 01ea0007     ................
1a005224:	01f70008 02030008 02100009 021c0009     ................
1a005234:	02290009 0235000a 0242000a 024e000b     ..)...5...B...N.
1a005244:	025b000b 0268000c 0274000c 0281000d     ..[...h...t.....
1a005254:	028d000d 029a000e 02a6000e 02b3000f     ................
1a005264:	02c0000f 02cc0010 02d90010 02e50011     ................
1a005274:	02f20011 02fe0012 030b0013 03170013     ................
1a005284:	03240014 03300014 033d0015 034a0016     ..$...0...=...J.
1a005294:	03560016 03630017 036f0018 037c0018     ..V...c...o...|.
1a0052a4:	03880019 0395001a 03a1001a 03ae001b     ................
1a0052b4:	03bb001c 03c7001d 03d4001d 03e0001e     ................
1a0052c4:	03ed001f 03f90020 04060020 04120021     .... ... ...!...
1a0052d4:	041f0022 042b0023 04380024 04440024     "...#.+.$.8.$.D.
1a0052e4:	04510025 045e0026 046a0027 04770028     %.Q.&.^.'.j.(.w.
1a0052f4:	04830029 0490002a 049c002b 04a9002b     )...*...+...+...
1a005304:	04b5002c 04c2002d 04ce002e 04db002f     ,...-......./...
1a005314:	04e70030 04f40031 05000032 050d0033     0...1...2...3...
1a005324:	051a0034 05260035 05330036 053f0037     4...5.&.6.3.7.?.
1a005334:	054c0038 05580039 0565003a 0571003b     8.L.9.X.:.e.;.q.
1a005344:	057e003c 058a003d 0597003f 05a30040     <.~.=...?...@...
1a005354:	05b00041 05bc0042 05c90043 05d50044     A...B...C...D...
1a005364:	05e20045 05ee0047 05fb0048 06070049     E...G...H...I...
1a005374:	0614004a 0620004b 062d004c 0639004e     J...K. .L.-.N.9.
1a005384:	0646004f 06520050 065f0051 066b0053     O.F.P.R.Q._.S.k.
1a005394:	06780054 06840055 06910056 069d0058     T.x.U...V...X...
1a0053a4:	06aa0059 06b6005a 06c3005c 06cf005d     Y...Z...\...]...
1a0053b4:	06dc005e 06e80060 06f50061 07010062     ^...`...a...b...
1a0053c4:	070e0064 071a0065 07270067 07330068     d...e...g.'.h.3.
1a0053d4:	07400069 074c006b 0759006c 0765006e     i.@.k.L.l.Y.n.e.
1a0053e4:	0772006f 077e0071 078b0072 07970074     o.r.q.~.r...t...
1a0053f4:	07a40075 07b00077 07bd0078 07c9007a     u...w...x...z...
1a005404:	07d6007b 07e2007d 07ef007e 07fb0080     {...}...~.......
1a005414:	08070081 08140083 08200085 082d0086     .......... ...-.
1a005424:	08390088 08460089 0852008b 085f008d     ..9...F...R..._.
1a005434:	086b008e 08780090 08840092 08910093     ..k...x.........
1a005444:	089d0095 08a90097 08b60098 08c2009a     ................
1a005454:	08cf009c 08db009e 08e8009f 08f400a1     ................
1a005464:	090100a3 090d00a5 091900a6 092600a8     ..............&.
1a005474:	093200aa 093f00ac 094b00ae 095800af     ..2...?...K...X.
1a005484:	096400b1 097000b3 097d00b5 098900b7     ..d...p...}.....
1a005494:	099600b9 09a200bb 09af00bd 09bb00be     ................
1a0054a4:	09c700c0 09d400c2 09e000c4 09ed00c6     ................
1a0054b4:	09f900c8 0a0600ca 0a1200cc 0a1e00ce     ................
1a0054c4:	0a2b00d0 0a3700d2 0a4400d4 0a5000d6     ..+...7...D...P.
1a0054d4:	0a5c00d8 0a6900da 0a7500dc 0a8200de     ..\...i...u.....
1a0054e4:	0a8e00e0 0a9a00e2 0aa700e4 0ab300e7     ................
1a0054f4:	0ac000e9 0acc00eb 0ad800ed 0ae500ef     ................
1a005504:	0af100f1 0afd00f3 0b0a00f6 0b1600f8     ................
1a005514:	0b2300fa 0b2f00fc 0b3b00fe 0b480100     ..#.../...;...H.
1a005524:	0b540103 0b600105 0b6d0107 0b790109     ..T...`...m...y.
1a005534:	0b85010c 0b92010e 0b9e0110 0bab0113     ................
1a005544:	0bb70115 0bc30117 0bd00119 0bdc011c     ................
1a005554:	0be8011e 0bf50120 0c010123 0c0d0125     .... ...#...%...
1a005564:	0c1a0128 0c26012a 0c32012c 0c3f012f     (...*.&.,.2./.?.
1a005574:	0c4b0131 0c570134 0c640136 0c700138     1.K.4.W.6.d.8.p.
1a005584:	0c7c013b 0c89013d 0c950140 0ca10142     ;.|.=...@...B...
1a005594:	0cae0145 0cba0147 0cc6014a 0cd3014c     E...G...J...L...
1a0055a4:	0cdf014f 0ceb0151 0cf80154 0d040156     O...Q...T...V...
1a0055b4:	0d100159 0d1c015b 0d29015e 0d350161     Y...[...^.).a.5.
1a0055c4:	0d410163 0d4e0166 0d5a0168 0d66016b     c.A.f.N.h.Z.k.f.
1a0055d4:	0d72016e 0d7f0170 0d8b0173 0d970176     n.r.p...s...v...
1a0055e4:	0da40178 0db0017b 0dbc017e 0dc80180     x...{...~.......
1a0055f4:	0dd50183 0de10186 0ded0189 0df9018b     ................
1a005604:	0e06018e 0e120191 0e1e0194 0e2b0196     ..............+.
1a005614:	0e370199 0e43019c 0e4f019f 0e5c01a2     ..7...C...O...\.
1a005624:	0e6801a4 0e7401a7 0e8001aa 0e8c01ad     ..h...t.........
1a005634:	0e9901b0 0ea501b3 0eb101b6 0ebd01b8     ................
1a005644:	0eca01bb 0ed601be 0ee201c1 0eee01c4     ................
1a005654:	0efb01c7 0f0701ca 0f1301cd 0f1f01d0     ................
1a005664:	0f2b01d3 0f3801d6 0f4401d9 0f5001dc     ..+...8...D...P.
1a005674:	0f5c01df 0f6801e2 0f7501e5 0f8101e8     ..\...h...u.....
1a005684:	0f8d01eb 0f9901ee 0fa501f1 0fb201f4     ................
1a005694:	0fbe01f7 0fca01fa 0fd601fd 0fe20201     ................
1a0056a4:	0fee0204 0ffb0207 1007020a 1013020d     ................
1a0056b4:	101f0210 102b0213 10370217 1044021a     ......+...7...D.
1a0056c4:	1050021d 105c0220 10680223 10740227     ..P. .\.#.h.'.t.
1a0056d4:	1080022a 108c022d 10990230 10a50234     *...-...0...4...
1a0056e4:	10b10237 10bd023a 10c9023e 10d50241     7...:...>...A...
1a0056f4:	10e10244 10ed0247 10fa024b 1106024e     D...G...K...N...
1a005704:	11120251 111e0255 112a0258 1136025c     Q...U...X.*.\.6.
1a005714:	1142025f 114e0262 115a0266 11670269     _.B.b.N.f.Z.i.g.
1a005724:	1173026d 117f0270 118b0273 11970277     m.s.p...s...w...
1a005734:	11a3027a 11af027e 11bb0281 11c70285     z...~...........
1a005744:	11d30288 11df028c 11eb028f 11f70293     ................
1a005754:	12040296 1210029a 121c029d 122802a1     ..............(.
1a005764:	123402a5 124002a8 124c02ac 125802af     ..4...@...L...X.
1a005774:	126402b3 127002b7 127c02ba 128802be     ..d...p...|.....
1a005784:	129402c1 12a002c5 12ac02c9 12b802cc     ................
1a005794:	12c402d0 12d002d4 12dc02d8 12e802db     ................
1a0057a4:	12f402df 130002e3 130c02e6 131802ea     ................
1a0057b4:	132402ee 133002f2 133c02f5 134802f9     ..$...0...<...H.
1a0057c4:	135402fd 13600301 136c0305 13780308     ..T...`...l...x.
1a0057d4:	1384030c 13900310 139c0314 13a80318     ................
1a0057e4:	13b4031c 13c00320 13cc0323 13d80327     .... ...#...'...
1a0057f4:	13e4032b 13f0032f 13fb0333 14070337     +.../...3...7...
1a005804:	1413033b 141f033f 142b0343 14370347     ;...?...C.+.G.7.
1a005814:	1443034b 144f034f 145b0353 14670357     K.C.O.O.S.[.W.g.
1a005824:	1473035b 147f035f 148b0363 14960367     [.s._...c...g...
1a005834:	14a2036b 14ae036f 14ba0373 14c60377     k...o...s...w...
1a005844:	14d2037b 14de037f 14ea0383 14f60387     {...............
1a005854:	1501038c 150d0390 15190394 15250398     ..............%.
1a005864:	1531039c 153d03a0 154903a5 155403a9     ..1...=...I...T.
1a005874:	156003ad 156c03b1 157803b5 158403ba     ..`...l...x.....
1a005884:	159003be 159b03c2 15a703c6 15b303ca     ................
1a005894:	15bf03cf 15cb03d3 15d703d7 15e203dc     ................
1a0058a4:	15ee03e0 15fa03e4 160603e9 161203ed     ................
1a0058b4:	161d03f1 162903f6 163503fa 164103fe     ......)...5...A.
1a0058c4:	164c0403 16580407 1664040b 16700410     ..L...X...d...p.
1a0058d4:	167c0414 16870419 1693041d 169f0422     ..|........."...
1a0058e4:	16ab0426 16b6042a 16c2042f 16ce0433     &...*.../...3...
1a0058f4:	16da0438 16e5043c 16f10441 16fd0445     8...<...A...E...
1a005904:	1709044a 1714044e 17200453 172c0457     J...N...S. .W.,.
1a005914:	1737045c 17430461 174f0465 175b046a     \.7.a.C.e.O.j.[.
1a005924:	1766046e 17720473 177e0478 1789047c     n.f.s.r.x.~.|...
1a005934:	17950481 17a10485 17ac048a 17b8048f     ................
1a005944:	17c40493 17cf0498 17db049d 17e704a1     ................
1a005954:	17f204a6 17fe04ab 180a04b0 181504b4     ................
1a005964:	182104b9 182d04be 183804c2 184404c7     ..!...-...8...D.
1a005974:	184f04cc 185b04d1 186704d6 187204da     ..O...[...g...r.
1a005984:	187e04df 188904e4 189504e9 18a104ee     ..~.............
1a005994:	18ac04f2 18b804f7 18c304fc 18cf0501     ................
1a0059a4:	18db0506 18e6050b 18f20510 18fd0515     ................
1a0059b4:	1909051a 1914051e 19200523 192c0528     ........#. .(.,.
1a0059c4:	1937052d 19430532 194e0537 195a053c     -.7.2.C.7.N.<.Z.
1a0059d4:	19650541 19710546 197c054b 19880550     A.e.F.q.K.|.P...
1a0059e4:	19930555 199f055a 19aa055f 19b60564     U...Z..._...d...
1a0059f4:	19c10569 19cd056e 19d80573 19e40578     i...n...s...x...
1a005a04:	19ef057e 19fb0583 1a060588 1a12058d     ~...............
1a005a14:	1a1d0592 1a290597 1a34059c 1a4005a1     ......)...4...@.
1a005a24:	1a4b05a7 1a5705ac 1a6205b1 1a6e05b6     ..K...W...b...n.
1a005a34:	1a7905bb 1a8405c1 1a9005c6 1a9b05cb     ..y.............
1a005a44:	1aa705d0 1ab205d5 1abe05db 1ac905e0     ................
1a005a54:	1ad405e5 1ae005ea 1aeb05f0 1af705f5     ................
1a005a64:	1b0205fa 1b0d0600 1b190605 1b24060a     ..............$.
1a005a74:	1b300610 1b3b0615 1b46061a 1b520620     ..0...;...F. .R.
1a005a84:	1b5d0625 1b68062a 1b740630 1b7f0635     %.].*.h.0.t.5...
1a005a94:	1b8a063b 1b960640 1ba10645 1bac064b     ;...@...E...K...
1a005aa4:	1bb80650 1bc30656 1bce065b 1bda0661     P...V...[...a...
1a005ab4:	1be50666 1bf0066c 1bfc0671 1c070677     f...l...q...w...
1a005ac4:	1c12067c 1c1e0682 1c290687 1c34068d     |.........)...4.
1a005ad4:	1c3f0692 1c4b0698 1c56069d 1c6106a3     ..?...K...V...a.
1a005ae4:	1c6c06a8 1c7806ae 1c8306b4 1c8e06b9     ..l...x.........
1a005af4:	1c9906bf 1ca506c5 1cb006ca 1cbb06d0     ................
1a005b04:	1cc606d5 1cd206db 1cdd06e1 1ce806e6     ................
1a005b14:	1cf306ec 1cff06f2 1d0a06f7 1d1506fd     ................
1a005b24:	1d200703 1d2b0709 1d36070e 1d420714     .. ...+...6...B.
1a005b34:	1d4d071a 1d580720 1d630725 1d6e072b     ..M. .X.%.c.+.n.
1a005b44:	1d790731 1d850737 1d90073d 1d9b0742     1.y.7...=...B...
1a005b54:	1da60748 1db1074e 1dbc0754 1dc7075a     H...N...T...Z...
1a005b64:	1dd3075f 1dde0765 1de9076b 1df40771     _...e...k...q...
1a005b74:	1dff0777 1e0a077d 1e150783 1e200789     w...}......... .
1a005b84:	1e2b078f 1e360795 1e42079a 1e4d07a0     ..+...6...B...M.
1a005b94:	1e5807a6 1e6307ac 1e6e07b2 1e7907b8     ..X...c...n...y.
1a005ba4:	1e8407be 1e8f07c4 1e9a07ca 1ea507d0     ................
1a005bb4:	1eb007d6 1ebb07dc 1ec607e2 1ed107e8     ................
1a005bc4:	1edc07ee 1ee707f5 1ef207fb 1efd0801     ................
1a005bd4:	1f080807 1f13080d 1f1e0813 1f290819     ..............).
1a005be4:	1f34081f 1f3f0825 1f4a082b 1f550832     ..4.%.?.+.J.2.U.
1a005bf4:	1f600838 1f6b083e 1f760844 1f81084a     8.`.>.k.D.v.J...
1a005c04:	1f8c0850 1f970857 1fa2085d 1fac0863     P...W...]...c...
1a005c14:	1fb70869 1fc20870 1fcd0876 1fd8087c     i...p...v...|...
1a005c24:	1fe30882 1fee0889 1ff9088f 20040895     ............... 
1a005c34:	200f089b 201908a2 202408a8 202f08ae     ... ... ..$ ../ 
1a005c44:	203a08b5 204508bb 205008c1 205b08c8     ..: ..E ..P ..[ 
1a005c54:	206508ce 207008d4 207b08db 208608e1     ..e ..p ..{ ... 
1a005c64:	209108e8 209b08ee 20a608f4 20b108fb     ... ... ... ... 
1a005c74:	20bc0901 20c70908 20d1090e 20dc0915     ... ... ... ... 
1a005c84:	20e7091b 20f20921 20fd0928 2107092e     ... !.. (.. ...!
1a005c94:	21120935 211d093b 21280942 21320948     5..!;..!B.(!H.2!
1a005ca4:	213d094f 21480955 2153095c 215d0963     O.=!U.H!\.S!c.]!
1a005cb4:	21680969 21730970 217d0976 2188097d     i.h!p.s!v.}!}..!
1a005cc4:	21930983 219e098a 21a80991 21b30997     ...!...!...!...!
1a005cd4:	21be099e 21c809a4 21d309ab 21de09b2     ...!...!...!...!
1a005ce4:	21e809b8 21f309bf 21fe09c6 220809cc     ...!...!...!..."
1a005cf4:	221309d3 221e09da 222809e0 223309e7     ..."..."..("..3"
1a005d04:	223d09ee 224809f5 225309fb 225d0a02     ..="..H"..S"..]"
1a005d14:	22680a09 22720a10 227d0a16 22880a1d     ..h"..r"..}"..."
1a005d24:	22920a24 229d0a2b 22a70a32 22b20a38     $.."+.."2.."8.."
1a005d34:	22bc0a3f 22c70a46 22d20a4d 22dc0a54     ?.."F.."M.."T.."
1a005d44:	22e70a5b 22f10a61 22fc0a68 23060a6f     [.."a.."h.."o..#
1a005d54:	23110a76 231b0a7d 23260a84 23300a8b     v..#}..#..&#..0#
1a005d64:	233b0a92 23450a99 23500a9f 235a0aa6     ..;#..E#..P#..Z#
1a005d74:	23650aad 236f0ab4 237a0abb 23840ac2     ..e#..o#..z#...#
1a005d84:	238e0ac9 23990ad0 23a30ad7 23ae0ade     ...#...#...#...#
1a005d94:	23b80ae5 23c30aec 23cd0af3 23d70afa     ...#...#...#...#
1a005da4:	23e20b01 23ec0b08 23f70b0f 24010b16     ...#...#...#...$
1a005db4:	240b0b1e 24160b25 24200b2c 242b0b33     ...$%..$,. $3.+$
1a005dc4:	24350b3a 243f0b41 244a0b48 24540b4f     :.5$A.?$H.J$O.T$
1a005dd4:	245e0b56 24690b5e 24730b65 247d0b6c     V.^$^.i$e.s$l.}$
1a005de4:	24880b73 24920b7a 249c0b81 24a70b89     s..$z..$...$...$
1a005df4:	24b10b90 24bb0b97 24c50b9e 24d00ba5     ...$...$...$...$
1a005e04:	24da0bad 24e40bb4 24ef0bbb 24f90bc2     ...$...$...$...$
1a005e14:	25030bca 250d0bd1 25180bd8 25220be0     ...%...%...%.."%
1a005e24:	252c0be7 25360bee 25410bf5 254b0bfd     ..,%..6%..A%..K%
1a005e34:	25550c04 255f0c0b 25690c13 25740c1a     ..U%.._%..i%..t%
1a005e44:	257e0c21 25880c29 25920c30 259c0c38     !.~%)..%0..%8..%
1a005e54:	25a60c3f 25b10c46 25bb0c4e 25c50c55     ?..%F..%N..%U..%
1a005e64:	25cf0c5d 25d90c64 25e30c6b 25ed0c73     ]..%d..%k..%s..%
1a005e74:	25f80c7a 26020c82 260c0c89 26160c91     z..%...&...&...&
1a005e84:	26200c98 262a0ca0 26340ca7 263e0caf     .. &..*&..4&..>&
1a005e94:	26480cb6 26520cbe 265c0cc5 26660ccd     ..H&..R&..\&..f&
1a005ea4:	26710cd4 267b0cdc 26850ce3 268f0ceb     ..q&..{&...&...&
1a005eb4:	26990cf3 26a30cfa 26ad0d02 26b70d09     ...&...&...&...&
1a005ec4:	26c10d11 26cb0d19 26d50d20 26df0d28     ...&...& ..&(..&
1a005ed4:	26e90d30 26f30d37 26fd0d3f 27070d46     0..&7..&?..&F..'
1a005ee4:	27110d4e 271a0d56 27240d5d 272e0d65     N..'V..'].$'e..'
1a005ef4:	27380d6d 27420d75 274c0d7c 27560d84     m.8'u.B'|.L'..V'
1a005f04:	27600d8c 276a0d93 27740d9b 277e0da3     ..`'..j'..t'..~'
1a005f14:	27880dab 27910db2 279b0dba 27a50dc2     ...'...'...'...'
1a005f24:	27af0dca 27b90dd2 27c30dd9 27cd0de1     ...'...'...'...'
1a005f34:	27d60de9 27e00df1 27ea0df9 27f40e01     ...'...'...'...'
1a005f44:	27fe0e08 28080e10 28110e18 281b0e20     ...'...(...( ..(
1a005f54:	28250e28 282f0e30 28380e38 28420e40     (.%(0./(8.8(@.B(
1a005f64:	284c0e47 28560e4f 28600e57 28690e5f     G.L(O.V(W.`(_.i(
1a005f74:	28730e67 287d0e6f 28860e77 28900e7f     g.s(o.}(w..(...(
1a005f84:	289a0e87 28a40e8f 28ad0e97 28b70e9f     ...(...(...(...(
1a005f94:	28c10ea7 28ca0eaf 28d40eb7 28de0ebf     ...(...(...(...(
1a005fa4:	28e70ec7 28f10ecf 28fb0ed7 29040edf     ...(...(...(...)
1a005fb4:	290e0ee7 29180eef 29210ef7 292b0eff     ...)...)..!)..+)
1a005fc4:	29350f07 293e0f10 29480f18 29510f20     ..5)..>)..H) .Q)
1a005fd4:	295b0f28 29650f30 296e0f38 29780f40     (.[)0.e)8.n)@.x)
1a005fe4:	29810f48 298b0f51 29940f59 299e0f61     H..)Q..)Y..)a..)
1a005ff4:	29a70f69 29b10f71 29bb0f79 29c40f82     i..)q..)y..)...)
1a006004:	29ce0f8a 29d70f92 29e10f9a 29ea0fa3     ...)...)...)...)
1a006014:	29f40fab 29fd0fb3 2a070fbb 2a100fc4     ...)...)...*...*
1a006024:	2a1a0fcc 2a230fd4 2a2c0fdc 2a360fe5     ...*..#*..,*..6*
1a006034:	2a3f0fed 2a490ff5 2a520ffe 2a5c1006     ..?*..I*..R*..\*
1a006044:	2a65100e 2a6e1016 2a78101f 2a811027     ..e*..n*..x*'..*
1a006054:	2a8b1030 2a941038 2a9d1040 2aa71049     0..*8..*@..*I..*
1a006064:	2ab01051 2ab91059 2ac31062 2acc106a     Q..*Y..*b..*j..*
1a006074:	2ad61073 2adf107b 2ae81083 2af2108c     s..*{..*...*...*
1a006084:	2afb1094 2b04109d 2b0d10a5 2b1710ae     ...*...+...+...+
1a006094:	2b2010b6 2b2910bf 2b3310c7 2b3c10d0     .. +..)+..3+..<+
1a0060a4:	2b4510d8 2b4e10e0 2b5810e9 2b6110f2     ..E+..N+..X+..a+
1a0060b4:	2b6a10fa 2b731103 2b7d110b 2b861114     ..j+..s+..}+...+
1a0060c4:	2b8f111c 2b981125 2ba1112d 2bab1136     ...+%..+-..+6..+
1a0060d4:	2bb4113e 2bbd1147 2bc61150 2bcf1158     >..+G..+P..+X..+
1a0060e4:	2bd81161 2be21169 2beb1172 2bf4117b     a..+i..+r..+{..+
1a0060f4:	2bfd1183 2c06118c 2c0f1195 2c18119d     ...+...,...,...,
1a006104:	2c2111a6 2c2b11af 2c3411b7 2c3d11c0     ..!,..+,..4,..=,
1a006114:	2c4611c9 2c4f11d1 2c5811da 2c6111e3     ..F,..O,..X,..a,
1a006124:	2c6a11eb 2c7311f4 2c7c11fd 2c851206     ..j,..s,..|,...,
1a006134:	2c8e120e 2c971217 2ca01220 2ca91229     ...,..., ..,)..,
1a006144:	2cb21231 2cbb123a 2cc41243 2ccd124c     1..,:..,C..,L..,
1a006154:	2cd61255 2cdf125d 2ce81266 2cf1126f     U..,]..,f..,o..,
1a006164:	2cfa1278 2d031281 2d0c128a 2d151292     x..,...-...-...-
1a006174:	2d1e129b 2d2712a4 2d2f12ad 2d3812b6     ...-..'-../-..8-
1a006184:	2d4112bf 2d4a12c8 2d5312d1 2d5c12d9     ..A-..J-..S-..\-
1a006194:	2d6512e2 2d6e12eb 2d7612f4 2d7f12fd     ..e-..n-..v-...-
1a0061a4:	2d881306 2d91130f 2d9a1318 2da31321     ...-...-...-!..-
1a0061b4:	2dab132a 2db41333 2dbd133c 2dc61345     *..-3..-<..-E..-
1a0061c4:	2dcf134e 2dd71357 2de01360 2de91369     N..-W..-`..-i..-
1a0061d4:	2df21372 2dfa137b 2e031384 2e0c138d     r..-{..-........
1a0061e4:	2e151396 2e1d139f 2e2613a8 2e2f13b1     ..........&.../.
1a0061f4:	2e3713ba 2e4013c3 2e4913cc 2e5113d5     ..7...@...I...Q.
1a006204:	2e5a13df 2e6313e8 2e6b13f1 2e7413fa     ..Z...c...k...t.
1a006214:	2e7d1403 2e85140c 2e8e1415 2e97141e     ..}.............
1a006224:	2e9f1428 2ea81431 2eb0143a 2eb91443     (...1...:...C...
1a006234:	2ec2144c 2eca1455 2ed3145f 2edb1468     L...U..._...h...
1a006244:	2ee41471 2eec147a 2ef51483 2efd148d     q...z...........
1a006254:	2f061496 2f0e149f 2f1714a8 2f2014b2     .../.../.../.. /
1a006264:	2f2814bb 2f3014c4 2f3914cd 2f4114d7     ..(/..0/..9/..A/
1a006274:	2f4a14e0 2f5214e9 2f5b14f3 2f6314fc     ..J/..R/..[/..c/
1a006284:	2f6c1505 2f74150e 2f7d1518 2f851521     ..l/..t/..}/!../
1a006294:	2f8d152a 2f961534 2f9e153d 2fa71547     *../4../=../G../
1a0062a4:	2faf1550 2fb71559 2fc01563 2fc8156c     P../Y../c../l../
1a0062b4:	2fd01575 2fd9157f 2fe11588 2fea1592     u../.../.../.../
1a0062c4:	2ff2159b 2ffa15a4 300215ae 300b15b7     .../.../...0...0
1a0062d4:	301315c1 301b15ca 302415d4 302c15dd     ...0...0..$0..,0
1a0062e4:	303415e6 303c15f0 304515f9 304d1603     ..40..<0..E0..M0
1a0062f4:	3055160c 305d1616 3066161f 306e1629     ..U0..]0..f0).n0
1a006304:	30761632 307e163c 30871645 308f164f     2.v0<.~0E..0O..0
1a006314:	30971659 309f1662 30a7166c 30af1675     Y..0b..0l..0u..0
1a006324:	30b8167f 30c01688 30c81692 30d0169b     ...0...0...0...0
1a006334:	30d816a5 30e016af 30e816b8 30f016c2     ...0...0...0...0
1a006344:	30f916cb 310116d5 310916df 311116e8     ...0...1...1...1
1a006354:	311916f2 312116fc 31291705 3131170f     ...1..!1..)1..11
1a006364:	31391719 31411722 3149172c 31511736     ..91".A1,.I16.Q1
1a006374:	3159173f 31611749 31691753 3171175c     ?.Y1I.a1S.i1\.q1
1a006384:	31791766 31811770 3189177a 31911783     f.y1p..1z..1...1
1a006394:	3199178d 31a11797 31a917a0 31b117aa     ...1...1...1...1
1a0063a4:	31b917b4 31c017be 31c817c8 31d017d1     ...1...1...1...1
1a0063b4:	31d817db 31e017e5 31e817ef 31f017f8     ...1...1...1...1
1a0063c4:	31f81802 31ff180c 32071816 320f1820     ...1...1...2 ..2
1a0063d4:	3217182a 321f1833 3227183d 322e1847     *..23..2=.'2G..2
1a0063e4:	32361851 323e185b 32461865 324e186f     Q.62[.>2e.F2o.N2
1a0063f4:	32551878 325d1882 3265188c 326d1896     x.U2..]2..e2..m2
1a006404:	327418a0 327c18aa 328418b4 328b18be     ..t2..|2...2...2
1a006414:	329318c8 329b18d2 32a318dc 32aa18e6     ...2...2...2...2
1a006424:	32b218ef 32ba18f9 32c11903 32c9190d     ...2...2...2...2
1a006434:	32d01917 32d81921 32e0192b 32e71935     ...2!..2+..25..2
1a006444:	32ef193f 32f71949 32fe1953 3306195d     ?..2I..2S..2]..3
1a006454:	330d1967 33151971 331d197b 33241985     g..3q..3{..3..$3
1a006464:	332c198f 3333199a 333b19a4 334219ae     ..,3..33..;3..B3
1a006474:	334a19b8 335119c2 335919cc 336019d6     ..J3..Q3..Y3..`3
1a006484:	336819e0 336f19ea 337719f4 337e19fe     ..h3..o3..w3..~3
1a006494:	33861a08 338d1a13 33951a1d 339c1a27     ...3...3...3'..3
1a0064a4:	33a31a31 33ab1a3b 33b21a45 33ba1a4f     1..3;..3E..3O..3
1a0064b4:	33c11a5a 33c81a64 33d01a6e 33d71a78     Z..3d..3n..3x..3
1a0064c4:	33df1a82 33e61a8c 33ed1a97 33f51aa1     ...3...3...3...3
1a0064d4:	33fc1aab 34031ab5 340b1abf 34121aca     ...3...4...4...4
1a0064e4:	34191ad4 34201ade 34281ae8 342f1af3     ...4.. 4..(4../4
1a0064f4:	34361afd 343e1b07 34451b11 344c1b1c     ..64..>4..E4..L4
1a006504:	34531b26 345b1b30 34621b3b 34691b45     &.S40.[4;.b4E.i4
1a006514:	34701b4f 34771b59 347f1b64 34861b6e     O.p4Y.w4d..4n..4
1a006524:	348d1b78 34941b83 349b1b8d 34a21b97     x..4...4...4...4
1a006534:	34aa1ba2 34b11bac 34b81bb6 34bf1bc1     ...4...4...4...4
1a006544:	34c61bcb 34cd1bd5 34d41be0 34db1bea     ...4...4...4...4
1a006554:	34e21bf5 34ea1bff 34f11c09 34f81c14     ...4...4...4...4
1a006564:	34ff1c1e 35061c29 350d1c33 35141c3d     ...4)..53..5=..5
1a006574:	351b1c48 35221c52 35291c5d 35301c67     H..5R."5].)5g.05
1a006584:	35371c72 353e1c7c 35451c86 354c1c91     r.75|.>5..E5..L5
1a006594:	35531c9b 355a1ca6 35611cb0 35671cbb     ..S5..Z5..a5..g5
1a0065a4:	356e1cc5 35751cd0 357c1cda 35831ce5     ..n5..u5..|5...5
1a0065b4:	358a1cef 35911cfa 35981d04 359f1d0f     ...5...5...5...5
1a0065c4:	35a51d19 35ac1d24 35b31d2e 35ba1d39     ...5$..5...59..5
1a0065d4:	35c11d44 35c81d4e 35ce1d59 35d51d63     D..5N..5Y..5c..5
1a0065e4:	35dc1d6e 35e31d78 35ea1d83 35f01d8e     n..5x..5...5...5
1a0065f4:	35f71d98 35fe1da3 36051dad 360b1db8     ...5...5...6...6
1a006604:	36121dc3 36191dcd 36201dd8 36261de2     ...6...6.. 6..&6
1a006614:	362d1ded 36341df8 363a1e02 36411e0d     ..-6..46..:6..A6
1a006624:	36481e18 364e1e22 36551e2d 365c1e38     ..H6".N6-.U68.\6
1a006634:	36621e42 36691e4d 366f1e58 36761e62     B.b6M.i6X.o6b.v6
1a006644:	367d1e6d 36831e78 368a1e83 36901e8d     m.}6x..6...6...6
1a006654:	36971e98 369d1ea3 36a41ead 36ab1eb8     ...6...6...6...6
1a006664:	36b11ec3 36b81ece 36be1ed8 36c51ee3     ...6...6...6...6
1a006674:	36cb1eee 36d21ef9 36d81f03 36df1f0e     ...6...6...6...6
1a006684:	36e51f19 36eb1f24 36f21f2f 36f81f39     ...6$..6/..69..6
1a006694:	36ff1f44 37051f4f 370c1f5a 37121f65     D..6O..7Z..7e..7
1a0066a4:	37181f6f 371f1f7a 37251f85 372c1f90     o..7z..7..%7..,7
1a0066b4:	37321f9b 37381fa5 373f1fb0 37451fbb     ..27..87..?7..E7
1a0066c4:	374b1fc6 37521fd1 37581fdc 375e1fe7     ..K7..R7..X7..^7
1a0066d4:	37651ff1 376b1ffc 37712007 37772012     ..e7..k7. q7. w7
1a0066e4:	377e201d 37842028 378a2033 3790203e     . ~7( .73 .7> .7
1a0066f4:	37972049 379d2054 37a3205e 37a92069     I .7T .7^ .7i .7
1a006704:	37b02074 37b6207f 37bc208a 37c22095     t .7. .7. .7. .7
1a006714:	37c820a0 37ce20ab 37d520b6 37db20c1     . .7. .7. .7. .7
1a006724:	37e120cc 37e720d7 37ed20e2 37f320ed     . .7. .7. .7. .7
1a006734:	37f920f8 37ff2103 3805210e 380b2119     . .7.!.7.!.8.!.8
1a006744:	38122124 3818212f 381e213a 38242145     $!.8/!.8:!.8E!$8
1a006754:	382a2150 3830215b 38362166 383c2171     P!*8[!08f!68q!<8
1a006764:	3842217c 38482187 384e2192 3854219d     |!B8.!H8.!N8.!T8
1a006774:	385a21a8 386021b3 386621be 386b21ca     .!Z8.!`8.!f8.!k8
1a006784:	387121d5 387721e0 387d21eb 388321f6     .!q8.!w8.!}8.!.8
1a006794:	38892201 388f220c 38952217 389b2222     .".8.".8.".8"".8
1a0067a4:	38a1222d 38a62239 38ac2244 38b2224f     -".89".8D".8O".8
1a0067b4:	38b8225a 38be2265 38c32270 38c9227b     Z".8e".8p".8{".8
1a0067c4:	38cf2287 38d52292 38db229d 38e022a8     .".8.".8.".8.".8
1a0067d4:	38e622b3 38ec22be 38f222ca 38f722d5     .".8.".8.".8.".8
1a0067e4:	38fd22e0 390322eb 390922f6 390e2301     .".8.".9.".9.#.9
1a0067f4:	3914230d 391a2318 391f2323 3925232e     .#.9.#.9##.9.#%9
1a006804:	392b233a 39302345 39362350 393b235b     :#+9E#09P#69[#;9
1a006814:	39412367 39472372 394c237d 39522388     g#A9r#G9}#L9.#R9
1a006824:	39582394 395d239f 396323aa 396823b5     .#X9.#]9.#c9.#h9
1a006834:	396e23c1 397323cc 397923d7 397e23e2     .#n9.#s9.#y9.#~9
1a006844:	398423ee 398923f9 398f2404 39942410     .#.9.#.9.$.9.$.9
1a006854:	399a241b 399f2426 39a52432 39aa243d     .$.9&$.92$.9=$.9
1a006864:	39b02448 39b52454 39bb245f 39c0246a     H$.9T$.9_$.9j$.9
1a006874:	39c52476 39cb2481 39d0248c 39d62498     v$.9.$.9.$.9.$.9
1a006884:	39db24a3 39e024ae 39e624ba 39eb24c5     .$.9.$.9.$.9.$.9
1a006894:	39f024d0 39f624dc 39fb24e7 3a0024f3     .$.9.$.9.$.9.$.:
1a0068a4:	3a0624fe 3a0b2509 3a102515 3a162520     .$.:.%.:.%.: %.:
1a0068b4:	3a1b252c 3a202537 3a252542 3a2b254e     ,%.:7% :B%%:N%+:
1a0068c4:	3a302559 3a352565 3a3a2570 3a3f257c     Y%0:e%5:p%::|%?:
1a0068d4:	3a452587 3a4a2592 3a4f259e 3a5425a9     .%E:.%J:.%O:.%T:
1a0068e4:	3a5925b5 3a5f25c0 3a6425cc 3a6925d7     .%Y:.%_:.%d:.%i:
1a0068f4:	3a6e25e3 3a7325ee 3a7825fa 3a7d2605     .%n:.%s:.%x:.&}:
1a006904:	3a822611 3a88261c 3a8d2628 3a922633     .&.:.&.:(&.:3&.:
1a006914:	3a97263f 3a9c264a 3aa12656 3aa62661     ?&.:J&.:V&.:a&.:
1a006924:	3aab266d 3ab02678 3ab52684 3aba268f     m&.:x&.:.&.:.&.:
1a006934:	3abf269b 3ac426a6 3ac926b2 3ace26bd     .&.:.&.:.&.:.&.:
1a006944:	3ad326c9 3ad826d4 3add26e0 3ae226ec     .&.:.&.:.&.:.&.:
1a006954:	3ae626f7 3aeb2703 3af0270e 3af5271a     .&.:.'.:.'.:.'.:
1a006964:	3afa2725 3aff2731 3b04273d 3b092748     %'.:1'.:='.;H'.;
1a006974:	3b0e2754 3b12275f 3b17276b 3b1c2777     T'.;_'.;k'.;w'.;
1a006984:	3b212782 3b26278e 3b2a2799 3b2f27a5     .'!;.'&;.'*;.'/;
1a006994:	3b3427b1 3b3927bc 3b3e27c8 3b4227d3     .'4;.'9;.'>;.'B;
1a0069a4:	3b4727df 3b4c27eb 3b5027f6 3b552802     .'G;.'L;.'P;.(U;
1a0069b4:	3b5a280e 3b5f2819 3b632825 3b682831     .(Z;.(_;%(c;1(h;
1a0069c4:	3b6d283c 3b712848 3b762854 3b7b285f     <(m;H(q;T(v;_({;
1a0069d4:	3b7f286b 3b842877 3b882882 3b8d288e     k(.;w(.;.(.;.(.;
1a0069e4:	3b92289a 3b9628a5 3b9b28b1 3b9f28bd     .(.;.(.;.(.;.(.;
1a0069f4:	3ba428c9 3ba928d4 3bad28e0 3bb228ec     .(.;.(.;.(.;.(.;
1a006a04:	3bb628f7 3bbb2903 3bbf290f 3bc4291b     .(.;.).;.).;.).;
1a006a14:	3bc82926 3bcd2932 3bd1293e 3bd6294a     &).;2).;>).;J).;
1a006a24:	3bda2955 3bde2961 3be3296d 3be72979     U).;a).;m).;y).;
1a006a34:	3bec2984 3bf02990 3bf5299c 3bf929a8     .).;.).;.).;.).;
1a006a44:	3bfd29b4 3c0229bf 3c0629cb 3c0a29d7     .).;.).<.).<.).<
1a006a54:	3c0f29e3 3c1329ee 3c1729fa 3c1c2a06     .).<.).<.).<.*.<
1a006a64:	3c202a12 3c242a1e 3c292a29 3c2d2a35     .* <.*$<)*)<5*-<
1a006a74:	3c312a41 3c362a4d 3c3a2a59 3c3e2a65     A*1<M*6<Y*:<e*><
1a006a84:	3c422a70 3c462a7c 3c4b2a88 3c4f2a94     p*B<|*F<.*K<.*O<
1a006a94:	3c532aa0 3c572aac 3c5b2ab7 3c602ac3     .*S<.*W<.*[<.*`<
1a006aa4:	3c642acf 3c682adb 3c6c2ae7 3c702af3     .*d<.*h<.*l<.*p<
1a006ab4:	3c742aff 3c792b0a 3c7d2b16 3c812b22     .*t<.+y<.+}<"+.<
1a006ac4:	3c852b2e 3c892b3a 3c8d2b46 3c912b52     .+.<:+.<F+.<R+.<
1a006ad4:	3c952b5e 3c992b6a 3c9d2b75 3ca12b81     ^+.<j+.<u+.<.+.<
1a006ae4:	3ca52b8d 3ca92b99 3cad2ba5 3cb12bb1     .+.<.+.<.+.<.+.<
1a006af4:	3cb52bbd 3cb92bc9 3cbd2bd5 3cc12be1     .+.<.+.<.+.<.+.<
1a006b04:	3cc52bed 3cc92bf9 3ccd2c05 3cd12c10     .+.<.+.<.,.<.,.<
1a006b14:	3cd52c1c 3cd92c28 3cdd2c34 3ce02c40     .,.<(,.<4,.<@,.<
1a006b24:	3ce42c4c 3ce82c58 3cec2c64 3cf02c70     L,.<X,.<d,.<p,.<
1a006b34:	3cf42c7c 3cf82c88 3cfb2c94 3cff2ca0     |,.<.,.<.,.<.,.<
1a006b44:	3d032cac 3d072cb8 3d0b2cc4 3d0e2cd0     .,.=.,.=.,.=.,.=
1a006b54:	3d122cdc 3d162ce8 3d1a2cf4 3d1d2d00     .,.=.,.=.,.=.-.=
1a006b64:	3d212d0c 3d252d18 3d282d24 3d2c2d30     .-!=.-%=$-(=0-,=
1a006b74:	3d302d3c 3d342d48 3d372d54 3d3b2d60     <-0=H-4=T-7=`-;=
1a006b84:	3d3f2d6c 3d422d78 3d462d84 3d492d90     l-?=x-B=.-F=.-I=
1a006b94:	3d4d2d9c 3d512da8 3d542db4 3d582dc0     .-M=.-Q=.-T=.-X=
1a006ba4:	3d5b2dcc 3d5f2dd8 3d632de4 3d662df0     .-[=.-_=.-c=.-f=
1a006bb4:	3d6a2dfc 3d6d2e09 3d712e15 3d742e21     .-j=..m=..q=!.t=
1a006bc4:	3d782e2d 3d7b2e39 3d7f2e45 3d822e51     -.x=9.{=E..=Q..=
1a006bd4:	3d862e5d 3d892e69 3d8d2e75 3d902e81     ]..=i..=u..=...=
1a006be4:	3d932e8d 3d972e99 3d9a2ea6 3d9e2eb2     ...=...=...=...=
1a006bf4:	3da12ebe 3da42eca 3da82ed6 3dab2ee2     ...=...=...=...=
1a006c04:	3daf2eee 3db22efa 3db52f06 3db92f13     ...=...=./.=./.=
1a006c14:	3dbc2f1f 3dbf2f2b 3dc22f37 3dc62f43     ./.=+/.=7/.=C/.=
1a006c24:	3dc92f4f 3dcc2f5b 3dd02f67 3dd32f74     O/.=[/.=g/.=t/.=
1a006c34:	3dd62f80 3dd92f8c 3ddd2f98 3de02fa4     ./.=./.=./.=./.=
1a006c44:	3de32fb0 3de62fbc 3de92fc9 3ded2fd5     ./.=./.=./.=./.=
1a006c54:	3df02fe1 3df32fed 3df62ff9 3df93005     ./.=./.=./.=.0.=
1a006c64:	3dfc3012 3dff301e 3e03302a 3e063036     .0.=.0.=*0.>60.>
1a006c74:	3e093042 3e0c304e 3e0f305b 3e123067     B0.>N0.>[0.>g0.>
1a006c84:	3e153073 3e18307f 3e1b308b 3e1e3098     s0.>.0.>.0.>.0.>
1a006c94:	3e2130a4 3e2430b0 3e2730bc 3e2a30c8     .0!>.0$>.0'>.0*>
1a006ca4:	3e2d30d5 3e3030e1 3e3330ed 3e3630f9     .0->.00>.03>.06>
1a006cb4:	3e393105 3e3c3112 3e3f311e 3e42312a     .19>.1<>.1?>*1B>
1a006cc4:	3e453136 3e483143 3e4a314f 3e4d315b     61E>C1H>O1J>[1M>
1a006cd4:	3e503167 3e533174 3e563180 3e59318c     g1P>t1S>.1V>.1Y>
1a006ce4:	3e5c3198 3e5e31a4 3e6131b1 3e6431bd     .1\>.1^>.1a>.1d>
1a006cf4:	3e6731c9 3e6a31d5 3e6c31e2 3e6f31ee     .1g>.1j>.1l>.1o>
1a006d04:	3e7231fa 3e753207 3e773213 3e7a321f     .1r>.2u>.2w>.2z>
1a006d14:	3e7d322b 3e803238 3e823244 3e853250     +2}>82.>D2.>P2.>
1a006d24:	3e88325c 3e8a3269 3e8d3275 3e903281     \2.>i2.>u2.>.2.>
1a006d34:	3e92328e 3e95329a 3e9832a6 3e9a32b2     .2.>.2.>.2.>.2.>
1a006d44:	3e9d32bf 3e9f32cb 3ea232d7 3ea532e4     .2.>.2.>.2.>.2.>
1a006d54:	3ea732f0 3eaa32fc 3eac3308 3eaf3315     .2.>.2.>.3.>.3.>
1a006d64:	3eb13321 3eb4332d 3eb6333a 3eb93346     !3.>-3.>:3.>F3.>
1a006d74:	3ebb3352 3ebe335f 3ec0336b 3ec33377     R3.>_3.>k3.>w3.>
1a006d84:	3ec53384 3ec83390 3eca339c 3ecc33a9     .3.>.3.>.3.>.3.>
1a006d94:	3ecf33b5 3ed133c1 3ed433ce 3ed633da     .3.>.3.>.3.>.3.>
1a006da4:	3ed833e6 3edb33f3 3edd33ff 3ee0340b     .3.>.3.>.3.>.4.>
1a006db4:	3ee23418 3ee43424 3ee73430 3ee9343d     .4.>$4.>04.>=4.>
1a006dc4:	3eeb3449 3eed3455 3ef03462 3ef2346e     I4.>U4.>b4.>n4.>
1a006dd4:	3ef4347b 3ef73487 3ef93493 3efb34a0     {4.>.4.>.4.>.4.>
1a006de4:	3efd34ac 3f0034b8 3f0234c5 3f0434d1     .4.>.4.?.4.?.4.?
1a006df4:	3f0634dd 3f0834ea 3f0a34f6 3f0d3503     .4.?.4.?.4.?.5.?
1a006e04:	3f0f350f 3f11351b 3f133528 3f153534     .5.?.5.?(5.?45.?
1a006e14:	3f173540 3f19354d 3f1c3559 3f1e3566     @5.?M5.?Y5.?f5.?
1a006e24:	3f203572 3f22357e 3f24358b 3f263597     r5 ?~5"?.5$?.5&?
1a006e34:	3f2835a4 3f2a35b0 3f2c35bc 3f2e35c9     .5(?.5*?.5,?.5.?
1a006e44:	3f3035d5 3f3235e2 3f3435ee 3f3635fa     .50?.52?.54?.56?
1a006e54:	3f383607 3f3a3613 3f3c3620 3f3e362c     .68?.6:? 6<?,6>?
1a006e64:	3f403639 3f423645 3f433651 3f45365e     96@?E6B?Q6C?^6E?
1a006e74:	3f47366a 3f493677 3f4b3683 3f4d3690     j6G?w6I?.6K?.6M?
1a006e84:	3f4f369c 3f5136a8 3f5236b5 3f5436c1     .6O?.6Q?.6R?.6T?
1a006e94:	3f5636ce 3f5836da 3f5a36e7 3f5b36f3     .6V?.6X?.6Z?.6[?
1a006ea4:	3f5d36ff 3f5f370c 3f613718 3f623725     .6]?.7_?.7a?%7b?
1a006eb4:	3f643731 3f66373e 3f68374a 3f693757     17d?>7f?J7h?W7i?
1a006ec4:	3f6b3763 3f6d376f 3f6e377c 3f703788     c7k?o7m?|7n?.7p?
1a006ed4:	3f723795 3f7337a1 3f7537ae 3f7737ba     .7r?.7s?.7u?.7w?
1a006ee4:	3f7837c7 3f7a37d3 3f7b37e0 3f7d37ec     .7x?.7z?.7{?.7}?
1a006ef4:	3f7f37f9 3f803805 3f823811 3f83381e     .7.?.8.?.8.?.8.?
1a006f04:	3f85382a 3f863837 3f883843 3f893850     *8.?78.?C8.?P8.?
1a006f14:	3f8b385c 3f8c3869 3f8e3875 3f8f3882     \8.?i8.?u8.?.8.?
1a006f24:	3f91388e 3f92389b 3f9438a7 3f9538b4     .8.?.8.?.8.?.8.?
1a006f34:	3f9738c0 3f9838cd 3f9938d9 3f9b38e6     .8.?.8.?.8.?.8.?
1a006f44:	3f9c38f2 3f9e38ff 3f9f390b 3fa03918     .8.?.8.?.9.?.9.?
1a006f54:	3fa23924 3fa33931 3fa4393d 3fa6394a     $9.?19.?=9.?J9.?
1a006f64:	3fa73956 3fa83963 3faa396f 3fab397c     V9.?c9.?o9.?|9.?
1a006f74:	3fac3988 3fad3995 3faf39a1 3fb039ae     .9.?.9.?.9.?.9.?
1a006f84:	3fb139ba 3fb239c7 3fb439d3 3fb539e0     .9.?.9.?.9.?.9.?
1a006f94:	3fb639ec 3fb739f9 3fb83a05 3fb93a12     .9.?.9.?.:.?.:.?
1a006fa4:	3fbb3a1e 3fbc3a2b 3fbd3a37 3fbe3a44     .:.?+:.?7:.?D:.?
1a006fb4:	3fbf3a50 3fc03a5d 3fc13a69 3fc33a76     P:.?]:.?i:.?v:.?
1a006fc4:	3fc43a82 3fc53a8f 3fc63a9b 3fc73aa8     .:.?.:.?.:.?.:.?
1a006fd4:	3fc83ab4 3fc93ac1 3fca3acd 3fcb3ada     .:.?.:.?.:.?.:.?
1a006fe4:	3fcc3ae6 3fcd3af3 3fce3b00 3fcf3b0c     .:.?.:.?.;.?.;.?
1a006ff4:	3fd03b19 3fd13b25 3fd23b32 3fd33b3e     .;.?%;.?2;.?>;.?
1a007004:	3fd43b4b 3fd53b57 3fd53b64 3fd63b70     K;.?W;.?d;.?p;.?
1a007014:	3fd73b7d 3fd83b89 3fd93b96 3fda3ba2     };.?.;.?.;.?.;.?
1a007024:	3fdb3baf 3fdc3bbc 3fdc3bc8 3fdd3bd5     .;.?.;.?.;.?.;.?
1a007034:	3fde3be1 3fdf3bee 3fe03bfa 3fe03c07     .;.?.;.?.;.?.<.?
1a007044:	3fe13c13 3fe23c20 3fe33c2c 3fe33c39     .<.? <.?,<.?9<.?
1a007054:	3fe43c45 3fe53c52 3fe63c5f 3fe63c6b     E<.?R<.?_<.?k<.?
1a007064:	3fe73c78 3fe83c84 3fe83c91 3fe93c9d     x<.?.<.?.<.?.<.?
1a007074:	3fea3caa 3fea3cb6 3feb3cc3 3fec3cd0     .<.?.<.?.<.?.<.?
1a007084:	3fec3cdc 3fed3ce9 3fed3cf5 3fee3d02     .<.?.<.?.<.?.=.?
1a007094:	3fef3d0e 3fef3d1b 3ff03d27 3ff03d34     .=.?.=.?'=.?4=.?
1a0070a4:	3ff13d40 3ff13d4d 3ff23d5a 3ff23d66     @=.?M=.?Z=.?f=.?
1a0070b4:	3ff33d73 3ff33d7f 3ff43d8c 3ff43d98     s=.?.=.?.=.?.=.?
1a0070c4:	3ff53da5 3ff53db2 3ff63dbe 3ff63dcb     .=.?.=.?.=.?.=.?
1a0070d4:	3ff73dd7 3ff73de4 3ff73df0 3ff83dfd     .=.?.=.?.=.?.=.?
1a0070e4:	3ff83e09 3ff93e16 3ff93e23 3ff93e2f     .>.?.>.?#>.?/>.?
1a0070f4:	3ffa3e3c 3ffa3e48 3ffa3e55 3ffb3e61     <>.?H>.?U>.?a>.?
1a007104:	3ffb3e6e 3ffb3e7a 3ffc3e87 3ffc3e94     n>.?z>.?.>.?.>.?
1a007114:	3ffc3ea0 3ffc3ead 3ffd3eb9 3ffd3ec6     .>.?.>.?.>.?.>.?
1a007124:	3ffd3ed2 3ffd3edf 3ffe3eec 3ffe3ef8     .>.?.>.?.>.?.>.?
1a007134:	3ffe3f05 3ffe3f11 3ffe3f1e 3fff3f2a     .?.?.?.?.?.?*?.?
1a007144:	3fff3f37 3fff3f44 3fff3f50 3fff3f5d     7?.?D?.?P?.?]?.?
1a007154:	3fff3f69 3fff3f76 40003f82 40003f8f     i?.?v?.?.?.@.?.@
1a007164:	40003f9b 40003fa8 40003fb5 40003fc1     .?.@.?.@.?.@.?.@
1a007174:	40003fce 40003fda 40003fe7 40003ff3     .?.@.?.@.?.@.?.@

1a007184 <realCoefBQ15>:
1a007184:	40004000 4000400d 40004019 40004026     .@.@.@.@.@.@&@.@
1a007194:	40004032 4000403f 4000404b 40004058     2@.@?@.@K@.@X@.@
1a0071a4:	40004065 40004071 4000407e 3fff408a     e@.@q@.@~@.@.@.?
1a0071b4:	3fff4097 3fff40a3 3fff40b0 3fff40bc     .@.?.@.?.@.?.@.?
1a0071c4:	3fff40c9 3fff40d6 3ffe40e2 3ffe40ef     .@.?.@.?.@.?.@.?
1a0071d4:	3ffe40fb 3ffe4108 3ffe4114 3ffd4121     .@.?.A.?.A.?!A.?
1a0071e4:	3ffd412e 3ffd413a 3ffd4147 3ffc4153     .A.?:A.?GA.?SA.?
1a0071f4:	3ffc4160 3ffc416c 3ffc4179 3ffb4186     `A.?lA.?yA.?.A.?
1a007204:	3ffb4192 3ffb419f 3ffa41ab 3ffa41b8     .A.?.A.?.A.?.A.?
1a007214:	3ffa41c4 3ff941d1 3ff941dd 3ff941ea     .A.?.A.?.A.?.A.?
1a007224:	3ff841f7 3ff84203 3ff74210 3ff7421c     .A.?.B.?.B.?.B.?
1a007234:	3ff74229 3ff64235 3ff64242 3ff5424e     )B.?5B.?BB.?NB.?
1a007244:	3ff5425b 3ff44268 3ff44274 3ff34281     [B.?hB.?tB.?.B.?
1a007254:	3ff3428d 3ff2429a 3ff242a6 3ff142b3     .B.?.B.?.B.?.B.?
1a007264:	3ff142c0 3ff042cc 3ff042d9 3fef42e5     .B.?.B.?.B.?.B.?
1a007274:	3fef42f2 3fee42fe 3fed430b 3fed4317     .B.?.B.?.C.?.C.?
1a007284:	3fec4324 3fec4330 3feb433d 3fea434a     $C.?0C.?=C.?JC.?
1a007294:	3fea4356 3fe94363 3fe8436f 3fe8437c     VC.?cC.?oC.?|C.?
1a0072a4:	3fe74388 3fe64395 3fe643a1 3fe543ae     .C.?.C.?.C.?.C.?
1a0072b4:	3fe443bb 3fe343c7 3fe343d4 3fe243e0     .C.?.C.?.C.?.C.?
1a0072c4:	3fe143ed 3fe043f9 3fe04406 3fdf4412     .C.?.C.?.D.?.D.?
1a0072d4:	3fde441f 3fdd442b 3fdc4438 3fdc4444     .D.?+D.?8D.?DD.?
1a0072e4:	3fdb4451 3fda445e 3fd9446a 3fd84477     QD.?^D.?jD.?wD.?
1a0072f4:	3fd74483 3fd64490 3fd5449c 3fd544a9     .D.?.D.?.D.?.D.?
1a007304:	3fd444b5 3fd344c2 3fd244ce 3fd144db     .D.?.D.?.D.?.D.?
1a007314:	3fd044e7 3fcf44f4 3fce4500 3fcd450d     .D.?.D.?.E.?.E.?
1a007324:	3fcc451a 3fcb4526 3fca4533 3fc9453f     .E.?&E.?3E.??E.?
1a007334:	3fc8454c 3fc74558 3fc64565 3fc54571     LE.?XE.?eE.?qE.?
1a007344:	3fc4457e 3fc3458a 3fc14597 3fc045a3     ~E.?.E.?.E.?.E.?
1a007354:	3fbf45b0 3fbe45bc 3fbd45c9 3fbc45d5     .E.?.E.?.E.?.E.?
1a007364:	3fbb45e2 3fb945ee 3fb845fb 3fb74607     .E.?.E.?.E.?.F.?
1a007374:	3fb64614 3fb54620 3fb4462d 3fb24639     .F.? F.?-F.?9F.?
1a007384:	3fb14646 3fb04652 3faf465f 3fad466b     FF.?RF.?_F.?kF.?
1a007394:	3fac4678 3fab4684 3faa4691 3fa8469d     xF.?.F.?.F.?.F.?
1a0073a4:	3fa746aa 3fa646b6 3fa446c3 3fa346cf     .F.?.F.?.F.?.F.?
1a0073b4:	3fa246dc 3fa046e8 3f9f46f5 3f9e4701     .F.?.F.?.F.?.G.?
1a0073c4:	3f9c470e 3f9b471a 3f994727 3f984733     .G.?.G.?'G.?3G.?
1a0073d4:	3f974740 3f95474c 3f944759 3f924765     @G.?LG.?YG.?eG.?
1a0073e4:	3f914772 3f8f477e 3f8e478b 3f8c4797     rG.?~G.?.G.?.G.?
1a0073f4:	3f8b47a4 3f8947b0 3f8847bd 3f8647c9     .G.?.G.?.G.?.G.?
1a007404:	3f8547d6 3f8347e2 3f8247ef 3f8047fb     .G.?.G.?.G.?.G.?
1a007414:	3f7f4807 3f7d4814 3f7b4820 3f7a482d     .H.?.H}? H{?-Hz?
1a007424:	3f784839 3f774846 3f754852 3f73485f     9Hx?FHw?RHu?_Hs?
1a007434:	3f72486b 3f704878 3f6e4884 3f6d4891     kHr?xHp?.Hn?.Hm?
1a007444:	3f6b489d 3f6948a9 3f6848b6 3f6648c2     .Hk?.Hi?.Hh?.Hf?
1a007454:	3f6448cf 3f6248db 3f6148e8 3f5f48f4     .Hd?.Hb?.Ha?.H_?
1a007464:	3f5d4901 3f5b490d 3f5a4919 3f584926     .I]?.I[?.IZ?&IX?
1a007474:	3f564932 3f54493f 3f52494b 3f514958     2IV??IT?KIR?XIQ?
1a007484:	3f4f4964 3f4d4970 3f4b497d 3f494989     dIO?pIM?}IK?.II?
1a007494:	3f474996 3f4549a2 3f4349af 3f4249bb     .IG?.IE?.IC?.IB?
1a0074a4:	3f4049c7 3f3e49d4 3f3c49e0 3f3a49ed     .I@?.I>?.I<?.I:?
1a0074b4:	3f3849f9 3f364a06 3f344a12 3f324a1e     .I8?.J6?.J4?.J2?
1a0074c4:	3f304a2b 3f2e4a37 3f2c4a44 3f2a4a50     +J0?7J.?DJ,?PJ*?
1a0074d4:	3f284a5c 3f264a69 3f244a75 3f224a82     \J(?iJ&?uJ$?.J"?
1a0074e4:	3f204a8e 3f1e4a9a 3f1c4aa7 3f194ab3     .J ?.J.?.J.?.J.?
1a0074f4:	3f174ac0 3f154acc 3f134ad8 3f114ae5     .J.?.J.?.J.?.J.?
1a007504:	3f0f4af1 3f0d4afd 3f0a4b0a 3f084b16     .J.?.J.?.K.?.K.?
1a007514:	3f064b23 3f044b2f 3f024b3b 3f004b48     #K.?/K.?;K.?HK.?
1a007524:	3efd4b54 3efb4b60 3ef94b6d 3ef74b79     TK.>`K.>mK.>yK.>
1a007534:	3ef44b85 3ef24b92 3ef04b9e 3eed4bab     .K.>.K.>.K.>.K.>
1a007544:	3eeb4bb7 3ee94bc3 3ee74bd0 3ee44bdc     .K.>.K.>.K.>.K.>
1a007554:	3ee24be8 3ee04bf5 3edd4c01 3edb4c0d     .K.>.K.>.L.>.L.>
1a007564:	3ed84c1a 3ed64c26 3ed44c32 3ed14c3f     .L.>&L.>2L.>?L.>
1a007574:	3ecf4c4b 3ecc4c57 3eca4c64 3ec84c70     KL.>WL.>dL.>pL.>
1a007584:	3ec54c7c 3ec34c89 3ec04c95 3ebe4ca1     |L.>.L.>.L.>.L.>
1a007594:	3ebb4cae 3eb94cba 3eb64cc6 3eb44cd3     .L.>.L.>.L.>.L.>
1a0075a4:	3eb14cdf 3eaf4ceb 3eac4cf8 3eaa4d04     .L.>.L.>.L.>.M.>
1a0075b4:	3ea74d10 3ea54d1c 3ea24d29 3e9f4d35     .M.>.M.>)M.>5M.>
1a0075c4:	3e9d4d41 3e9a4d4e 3e984d5a 3e954d66     AM.>NM.>ZM.>fM.>
1a0075d4:	3e924d72 3e904d7f 3e8d4d8b 3e8a4d97     rM.>.M.>.M.>.M.>
1a0075e4:	3e884da4 3e854db0 3e824dbc 3e804dc8     .M.>.M.>.M.>.M.>
1a0075f4:	3e7d4dd5 3e7a4de1 3e774ded 3e754df9     .M}>.Mz>.Mw>.Mu>
1a007604:	3e724e06 3e6f4e12 3e6c4e1e 3e6a4e2b     .Nr>.No>.Nl>+Nj>
1a007614:	3e674e37 3e644e43 3e614e4f 3e5e4e5c     7Ng>CNd>ONa>\N^>
1a007624:	3e5c4e68 3e594e74 3e564e80 3e534e8c     hN\>tNY>.NV>.NS>
1a007634:	3e504e99 3e4d4ea5 3e4a4eb1 3e484ebd     .NP>.NM>.NJ>.NH>
1a007644:	3e454eca 3e424ed6 3e3f4ee2 3e3c4eee     .NE>.NB>.N?>.N<>
1a007654:	3e394efb 3e364f07 3e334f13 3e304f1f     .N9>.O6>.O3>.O0>
1a007664:	3e2d4f2b 3e2a4f38 3e274f44 3e244f50     +O->8O*>DO'>PO$>
1a007674:	3e214f5c 3e1e4f68 3e1b4f75 3e184f81     \O!>hO.>uO.>.O.>
1a007684:	3e154f8d 3e124f99 3e0f4fa5 3e0c4fb2     .O.>.O.>.O.>.O.>
1a007694:	3e094fbe 3e064fca 3e034fd6 3dff4fe2     .O.>.O.>.O.>.O.=
1a0076a4:	3dfc4fee 3df94ffb 3df65007 3df35013     .O.=.O.=.P.=.P.=
1a0076b4:	3df0501f 3ded502b 3de95037 3de65044     .P.=+P.=7P.=DP.=
1a0076c4:	3de35050 3de0505c 3ddd5068 3dd95074     PP.=\P.=hP.=tP.=
1a0076d4:	3dd65080 3dd3508c 3dd05099 3dcc50a5     .P.=.P.=.P.=.P.=
1a0076e4:	3dc950b1 3dc650bd 3dc250c9 3dbf50d5     .P.=.P.=.P.=.P.=
1a0076f4:	3dbc50e1 3db950ed 3db550fa 3db25106     .P.=.P.=.P.=.Q.=
1a007704:	3daf5112 3dab511e 3da8512a 3da45136     .Q.=.Q.=*Q.=6Q.=
1a007714:	3da15142 3d9e514e 3d9a515a 3d975167     BQ.=NQ.=ZQ.=gQ.=
1a007724:	3d935173 3d90517f 3d8d518b 3d895197     sQ.=.Q.=.Q.=.Q.=
1a007734:	3d8651a3 3d8251af 3d7f51bb 3d7b51c7     .Q.=.Q.=.Q.=.Q{=
1a007744:	3d7851d3 3d7451df 3d7151eb 3d6d51f7     .Qx=.Qt=.Qq=.Qm=
1a007754:	3d6a5204 3d665210 3d63521c 3d5f5228     .Rj=.Rf=.Rc=(R_=
1a007764:	3d5b5234 3d585240 3d54524c 3d515258     4R[=@RX=LRT=XRQ=
1a007774:	3d4d5264 3d495270 3d46527c 3d425288     dRM=pRI=|RF=.RB=
1a007784:	3d3f5294 3d3b52a0 3d3752ac 3d3452b8     .R?=.R;=.R7=.R4=
1a007794:	3d3052c4 3d2c52d0 3d2852dc 3d2552e8     .R0=.R,=.R(=.R%=
1a0077a4:	3d2152f4 3d1d5300 3d1a530c 3d165318     .R!=.S.=.S.=.S.=
1a0077b4:	3d125324 3d0e5330 3d0b533c 3d075348     $S.=0S.=<S.=HS.=
1a0077c4:	3d035354 3cff5360 3cfb536c 3cf85378     TS.=`S.<lS.<xS.<
1a0077d4:	3cf45384 3cf05390 3cec539c 3ce853a8     .S.<.S.<.S.<.S.<
1a0077e4:	3ce453b4 3ce053c0 3cdd53cc 3cd953d8     .S.<.S.<.S.<.S.<
1a0077f4:	3cd553e4 3cd153f0 3ccd53fb 3cc95407     .S.<.S.<.S.<.T.<
1a007804:	3cc55413 3cc1541f 3cbd542b 3cb95437     .T.<.T.<+T.<7T.<
1a007814:	3cb55443 3cb1544f 3cad545b 3ca95467     CT.<OT.<[T.<gT.<
1a007824:	3ca55473 3ca1547f 3c9d548b 3c995496     sT.<.T.<.T.<.T.<
1a007834:	3c9554a2 3c9154ae 3c8d54ba 3c8954c6     .T.<.T.<.T.<.T.<
1a007844:	3c8554d2 3c8154de 3c7d54ea 3c7954f6     .T.<.T.<.T}<.Ty<
1a007854:	3c745501 3c70550d 3c6c5519 3c685525     .Ut<.Up<.Ul<%Uh<
1a007864:	3c645531 3c60553d 3c5b5549 3c575554     1Ud<=U`<IU[<TUW<
1a007874:	3c535560 3c4f556c 3c4b5578 3c465584     `US<lUO<xUK<.UF<
1a007884:	3c425590 3c3e559b 3c3a55a7 3c3655b3     .UB<.U><.U:<.U6<
1a007894:	3c3155bf 3c2d55cb 3c2955d7 3c2455e2     .U1<.U-<.U)<.U$<
1a0078a4:	3c2055ee 3c1c55fa 3c175606 3c135612     .U <.U.<.V.<.V.<
1a0078b4:	3c0f561d 3c0a5629 3c065635 3c025641     .V.<)V.<5V.<AV.<
1a0078c4:	3bfd564c 3bf95658 3bf55664 3bf05670     LV.;XV.;dV.;pV.;
1a0078d4:	3bec567c 3be75687 3be35693 3bde569f     |V.;.V.;.V.;.V.;
1a0078e4:	3bda56ab 3bd656b6 3bd156c2 3bcd56ce     .V.;.V.;.V.;.V.;
1a0078f4:	3bc856da 3bc456e5 3bbf56f1 3bbb56fd     .V.;.V.;.V.;.V.;
1a007904:	3bb65709 3bb25714 3bad5720 3ba9572c     .W.;.W.; W.;,W.;
1a007914:	3ba45737 3b9f5743 3b9b574f 3b96575b     7W.;CW.;OW.;[W.;
1a007924:	3b925766 3b8d5772 3b88577e 3b845789     fW.;rW.;~W.;.W.;
1a007934:	3b7f5795 3b7b57a1 3b7657ac 3b7157b8     .W.;.W{;.Wv;.Wq;
1a007944:	3b6d57c4 3b6857cf 3b6357db 3b5f57e7     .Wm;.Wh;.Wc;.W_;
1a007954:	3b5a57f2 3b5557fe 3b50580a 3b4c5815     .WZ;.WU;.XP;.XL;
1a007964:	3b475821 3b42582d 3b3e5838 3b395844     !XG;-XB;8X>;DX9;
1a007974:	3b34584f 3b2f585b 3b2a5867 3b265872     OX4;[X/;gX*;rX&;
1a007984:	3b21587e 3b1c5889 3b175895 3b1258a1     ~X!;.X.;.X.;.X.;
1a007994:	3b0e58ac 3b0958b8 3b0458c3 3aff58cf     .X.;.X.;.X.;.X.:
1a0079a4:	3afa58db 3af558e6 3af058f2 3aeb58fd     .X.:.X.:.X.:.X.:
1a0079b4:	3ae65909 3ae25914 3add5920 3ad8592c     .Y.:.Y.: Y.:,Y.:
1a0079c4:	3ad35937 3ace5943 3ac9594e 3ac4595a     7Y.:CY.:NY.:ZY.:
1a0079d4:	3abf5965 3aba5971 3ab5597c 3ab05988     eY.:qY.:|Y.:.Y.:
1a0079e4:	3aab5993 3aa6599f 3aa159aa 3a9c59b6     .Y.:.Y.:.Y.:.Y.:
1a0079f4:	3a9759c1 3a9259cd 3a8d59d8 3a8859e4     .Y.:.Y.:.Y.:.Y.:
1a007a04:	3a8259ef 3a7d59fb 3a785a06 3a735a12     .Y.:.Y}:.Zx:.Zs:
1a007a14:	3a6e5a1d 3a695a29 3a645a34 3a5f5a40     .Zn:)Zi:4Zd:@Z_:
1a007a24:	3a595a4b 3a545a57 3a4f5a62 3a4a5a6e     KZY:WZT:bZO:nZJ:
1a007a34:	3a455a79 3a3f5a84 3a3a5a90 3a355a9b     yZE:.Z?:.Z::.Z5:
1a007a44:	3a305aa7 3a2b5ab2 3a255abe 3a205ac9     .Z0:.Z+:.Z%:.Z :
1a007a54:	3a1b5ad4 3a165ae0 3a105aeb 3a0b5af7     .Z.:.Z.:.Z.:.Z.:
1a007a64:	3a065b02 3a005b0d 39fb5b19 39f65b24     .[.:.[.:.[.9$[.9
1a007a74:	39f05b30 39eb5b3b 39e65b46 39e05b52     0[.9;[.9F[.9R[.9
1a007a84:	39db5b5d 39d65b68 39d05b74 39cb5b7f     ][.9h[.9t[.9.[.9
1a007a94:	39c55b8a 39c05b96 39bb5ba1 39b55bac     .[.9.[.9.[.9.[.9
1a007aa4:	39b05bb8 39aa5bc3 39a55bce 399f5bda     .[.9.[.9.[.9.[.9
1a007ab4:	399a5be5 39945bf0 398f5bfc 39895c07     .[.9.[.9.[.9.\.9
1a007ac4:	39845c12 397e5c1e 39795c29 39735c34     .\.9.\~9)\y94\s9
1a007ad4:	396e5c3f 39685c4b 39635c56 395d5c61     ?\n9K\h9V\c9a\]9
1a007ae4:	39585c6c 39525c78 394c5c83 39475c8e     l\X9x\R9.\L9.\G9
1a007af4:	39415c99 393b5ca5 39365cb0 39305cbb     .\A9.\;9.\69.\09
1a007b04:	392b5cc6 39255cd2 391f5cdd 391a5ce8     .\+9.\%9.\.9.\.9
1a007b14:	39145cf3 390e5cff 39095d0a 39035d15     .\.9.\.9.].9.].9
1a007b24:	38fd5d20 38f75d2b 38f25d36 38ec5d42      ].8+].86].8B].8
1a007b34:	38e65d4d 38e05d58 38db5d63 38d55d6e     M].8X].8c].8n].8
1a007b44:	38cf5d79 38c95d85 38c35d90 38be5d9b     y].8.].8.].8.].8
1a007b54:	38b85da6 38b25db1 38ac5dbc 38a65dc7     .].8.].8.].8.].8
1a007b64:	38a15dd3 389b5dde 38955de9 388f5df4     .].8.].8.].8.].8
1a007b74:	38895dff 38835e0a 387d5e15 38775e20     .].8.^.8.^}8 ^w8
1a007b84:	38715e2b 386b5e36 38665e42 38605e4d     +^q86^k8B^f8M^`8
1a007b94:	385a5e58 38545e63 384e5e6e 38485e79     X^Z8c^T8n^N8y^H8
1a007ba4:	38425e84 383c5e8f 38365e9a 38305ea5     .^B8.^<8.^68.^08
1a007bb4:	382a5eb0 38245ebb 381e5ec6 38185ed1     .^*8.^$8.^.8.^.8
1a007bc4:	38125edc 380b5ee7 38055ef2 37ff5efd     .^.8.^.8.^.8.^.7
1a007bd4:	37f95f08 37f35f13 37ed5f1e 37e75f29     ._.7._.7._.7)_.7
1a007be4:	37e15f34 37db5f3f 37d55f4a 37ce5f55     4_.7?_.7J_.7U_.7
1a007bf4:	37c85f60 37c25f6b 37bc5f76 37b65f81     `_.7k_.7v_.7._.7
1a007c04:	37b05f8c 37a95f97 37a35fa2 379d5fac     ._.7._.7._.7._.7
1a007c14:	37975fb7 37905fc2 378a5fcd 37845fd8     ._.7._.7._.7._.7
1a007c24:	377e5fe3 37775fee 37715ff9 376b6004     ._~7._w7._q7.`k7
1a007c34:	3765600f 375e6019 37586024 3752602f     .`e7.`^7$`X7/`R7
1a007c44:	374b603a 37456045 373f6050 3738605b     :`K7E`E7P`?7[`87
1a007c54:	37326065 372c6070 3725607b 371f6086     e`27p`,7{`%7.`.7
1a007c64:	37186091 3712609b 370c60a6 370560b1     .`.7.`.7.`.7.`.7
1a007c74:	36ff60bc 36f860c7 36f260d1 36eb60dc     .`.6.`.6.`.6.`.6
1a007c84:	36e560e7 36df60f2 36d860fd 36d26107     .`.6.`.6.`.6.a.6
1a007c94:	36cb6112 36c5611d 36be6128 36b86132     .a.6.a.6(a.62a.6
1a007ca4:	36b1613d 36ab6148 36a46153 369d615d     =a.6Ha.6Sa.6]a.6
1a007cb4:	36976168 36906173 368a617d 36836188     ha.6sa.6}a.6.a.6
1a007cc4:	367d6193 3676619e 366f61a8 366961b3     .a}6.av6.ao6.ai6
1a007cd4:	366261be 365c61c8 365561d3 364e61de     .ab6.a\6.aU6.aN6
1a007ce4:	364861e8 364161f3 363a61fe 36346208     .aH6.aA6.a:6.b46
1a007cf4:	362d6213 3626621e 36206228 36196233     .b-6.b&6(b 63b.6
1a007d04:	3612623d 360b6248 36056253 35fe625d     =b.6Hb.6Sb.6]b.5
1a007d14:	35f76268 35f06272 35ea627d 35e36288     hb.5rb.5}b.5.b.5
1a007d24:	35dc6292 35d5629d 35ce62a7 35c862b2     .b.5.b.5.b.5.b.5
1a007d34:	35c162bc 35ba62c7 35b362d2 35ac62dc     .b.5.b.5.b.5.b.5
1a007d44:	35a562e7 359f62f1 359862fc 35916306     .b.5.b.5.b.5.c.5
1a007d54:	358a6311 3583631b 357c6326 35756330     .c.5.c.5&c|50cu5
1a007d64:	356e633b 35676345 35616350 355a635a     ;cn5Ecg5Pca5ZcZ5
1a007d74:	35536365 354c636f 3545637a 353e6384     ecS5ocL5zcE5.c>5
1a007d84:	3537638e 35306399 352963a3 352263ae     .c75.c05.c)5.c"5
1a007d94:	351b63b8 351463c3 350d63cd 350663d7     .c.5.c.5.c.5.c.5
1a007da4:	34ff63e2 34f863ec 34f163f7 34ea6401     .c.4.c.4.c.4.d.4
1a007db4:	34e2640b 34db6416 34d46420 34cd642b     .d.4.d.4 d.4+d.4
1a007dc4:	34c66435 34bf643f 34b8644a 34b16454     5d.4?d.4Jd.4Td.4
1a007dd4:	34aa645e 34a26469 349b6473 3494647d     ^d.4id.4sd.4}d.4
1a007de4:	348d6488 34866492 347f649c 347764a7     .d.4.d.4.d.4.dw4
1a007df4:	347064b1 346964bb 346264c5 345b64d0     .dp4.di4.db4.d[4
1a007e04:	345364da 344c64e4 344564ef 343e64f9     .dS4.dL4.dE4.d>4
1a007e14:	34366503 342f650d 34286518 34206522     .e64.e/4.e(4"e 4
1a007e24:	3419652c 34126536 340b6541 3403654b     ,e.46e.4Ae.4Ke.4
1a007e34:	33fc6555 33f5655f 33ed6569 33e66574     Ue.3_e.3ie.3te.3
1a007e44:	33df657e 33d76588 33d06592 33c8659c     ~e.3.e.3.e.3.e.3
1a007e54:	33c165a6 33ba65b1 33b265bb 33ab65c5     .e.3.e.3.e.3.e.3
1a007e64:	33a365cf 339c65d9 339565e3 338d65ed     .e.3.e.3.e.3.e.3
1a007e74:	338665f8 337e6602 3377660c 336f6616     .e.3.f~3.fw3.fo3
1a007e84:	33686620 3360662a 33596634 3351663e      fh3*f`34fY3>fQ3
1a007e94:	334a6648 33426652 333b665c 33336666     HfJ3RfB3\f;3ff33
1a007ea4:	332c6671 3324667b 331d6685 3315668f     qf,3{f$3.f.3.f.3
1a007eb4:	330d6699 330666a3 32fe66ad 32f766b7     .f.3.f.3.f.2.f.2
1a007ec4:	32ef66c1 32e766cb 32e066d5 32d866df     .f.2.f.2.f.2.f.2
1a007ed4:	32d066e9 32c966f3 32c166fd 32ba6707     .f.2.f.2.f.2.g.2
1a007ee4:	32b26711 32aa671a 32a36724 329b672e     .g.2.g.2$g.2.g.2
1a007ef4:	32936738 328b6742 3284674c 327c6756     8g.2Bg.2Lg.2Vg|2
1a007f04:	32746760 326d676a 32656774 325d677e     `gt2jgm2tge2~g]2
1a007f14:	32556788 324e6791 3246679b 323e67a5     .gU2.gN2.gF2.g>2
1a007f24:	323667af 322e67b9 322767c3 321f67cd     .g62.g.2.g'2.g.2
1a007f34:	321767d6 320f67e0 320767ea 31ff67f4     .g.2.g.2.g.2.g.1
1a007f44:	31f867fe 31f06808 31e86811 31e0681b     .g.1.h.1.h.1.h.1
1a007f54:	31d86825 31d0682f 31c86838 31c06842     %h.1/h.18h.1Bh.1
1a007f64:	31b9684c 31b16856 31a96860 31a16869     Lh.1Vh.1`h.1ih.1
1a007f74:	31996873 3191687d 31896886 31816890     sh.1}h.1.h.1.h.1
1a007f84:	3179689a 317168a4 316968ad 316168b7     .hy1.hq1.hi1.ha1
1a007f94:	315968c1 315168ca 314968d4 314168de     .hY1.hQ1.hI1.hA1
1a007fa4:	313968e7 313168f1 312968fb 31216904     .h91.h11.h)1.i!1
1a007fb4:	3119690e 31116918 31096921 3101692b     .i.1.i.1!i.1+i.1
1a007fc4:	30f96935 30f0693e 30e86948 30e06951     5i.0>i.0Hi.0Qi.0
1a007fd4:	30d8695b 30d06965 30c8696e 30c06978     [i.0ei.0ni.0xi.0
1a007fe4:	30b86981 30af698b 30a76994 309f699e     .i.0.i.0.i.0.i.0
1a007ff4:	309769a7 308f69b1 308769bb 307e69c4     .i.0.i.0.i.0.i~0
1a008004:	307669ce 306e69d7 306669e1 305d69ea     .iv0.in0.if0.i]0
1a008014:	305569f4 304d69fd 30456a07 303c6a10     .iU0.iM0.jE0.j<0
1a008024:	30346a1a 302c6a23 30246a2c 301b6a36     .j40#j,0,j$06j.0
1a008034:	30136a3f 300b6a49 30026a52 2ffa6a5c     ?j.0Ij.0Rj.0\j./
1a008044:	2ff26a65 2fea6a6e 2fe16a78 2fd96a81     ej./nj./xj./.j./
1a008054:	2fd06a8b 2fc86a94 2fc06a9d 2fb76aa7     .j./.j./.j./.j./
1a008064:	2faf6ab0 2fa76ab9 2f9e6ac3 2f966acc     .j./.j./.j./.j./
1a008074:	2f8d6ad6 2f856adf 2f7d6ae8 2f746af2     .j./.j./.j}/.jt/
1a008084:	2f6c6afb 2f636b04 2f5b6b0d 2f526b17     .jl/.kc/.k[/.kR/
1a008094:	2f4a6b20 2f416b29 2f396b33 2f306b3c      kJ/)kA/3k9/<k0/
1a0080a4:	2f286b45 2f206b4e 2f176b58 2f0e6b61     Ek(/Nk /Xk./ak./
1a0080b4:	2f066b6a 2efd6b73 2ef56b7d 2eec6b86     jk./sk..}k...k..
1a0080c4:	2ee46b8f 2edb6b98 2ed36ba1 2eca6bab     .k...k...k...k..
1a0080d4:	2ec26bb4 2eb96bbd 2eb06bc6 2ea86bcf     .k...k...k...k..
1a0080e4:	2e9f6bd8 2e976be2 2e8e6beb 2e856bf4     .k...k...k...k..
1a0080f4:	2e7d6bfd 2e746c06 2e6b6c0f 2e636c18     .k}..lt..lk..lc.
1a008104:	2e5a6c21 2e516c2b 2e496c34 2e406c3d     !lZ.+lQ.4lI.=l@.
1a008114:	2e376c46 2e2f6c4f 2e266c58 2e1d6c61     Fl7.Ol/.Xl&.al..
1a008124:	2e156c6a 2e0c6c73 2e036c7c 2dfa6c85     jl..sl..|l...l.-
1a008134:	2df26c8e 2de96c97 2de06ca0 2dd76ca9     .l.-.l.-.l.-.l.-
1a008144:	2dcf6cb2 2dc66cbb 2dbd6cc4 2db46ccd     .l.-.l.-.l.-.l.-
1a008154:	2dab6cd6 2da36cdf 2d9a6ce8 2d916cf1     .l.-.l.-.l.-.l.-
1a008164:	2d886cfa 2d7f6d03 2d766d0c 2d6e6d15     .l.-.m.-.mv-.mn-
1a008174:	2d656d1e 2d5c6d27 2d536d2f 2d4a6d38     .me-'m\-/mS-8mJ-
1a008184:	2d416d41 2d386d4a 2d2f6d53 2d276d5c     AmA-Jm8-Sm/-\m'-
1a008194:	2d1e6d65 2d156d6e 2d0c6d76 2d036d7f     em.-nm.-vm.-.m.-
1a0081a4:	2cfa6d88 2cf16d91 2ce86d9a 2cdf6da3     .m.,.m.,.m.,.m.,
1a0081b4:	2cd66dab 2ccd6db4 2cc46dbd 2cbb6dc6     .m.,.m.,.m.,.m.,
1a0081c4:	2cb26dcf 2ca96dd7 2ca06de0 2c976de9     .m.,.m.,.m.,.m.,
1a0081d4:	2c8e6df2 2c856dfa 2c7c6e03 2c736e0c     .m.,.m.,.n|,.ns,
1a0081e4:	2c6a6e15 2c616e1d 2c586e26 2c4f6e2f     .nj,.na,&nX,/nO,
1a0081f4:	2c466e37 2c3d6e40 2c346e49 2c2b6e51     7nF,@n=,In4,Qn+,
1a008204:	2c216e5a 2c186e63 2c0f6e6b 2c066e74     Zn!,cn.,kn.,tn.,
1a008214:	2bfd6e7d 2bf46e85 2beb6e8e 2be26e97     }n.+.n.+.n.+.n.+
1a008224:	2bd86e9f 2bcf6ea8 2bc66eb0 2bbd6eb9     .n.+.n.+.n.+.n.+
1a008234:	2bb46ec2 2bab6eca 2ba16ed3 2b986edb     .n.+.n.+.n.+.n.+
1a008244:	2b8f6ee4 2b866eec 2b7d6ef5 2b736efd     .n.+.n.+.n}+.ns+
1a008254:	2b6a6f06 2b616f0e 2b586f17 2b4e6f20     .oj+.oa+.oX+ oN+
1a008264:	2b456f28 2b3c6f30 2b336f39 2b296f41     (oE+0o<+9o3+Ao)+
1a008274:	2b206f4a 2b176f52 2b0d6f5b 2b046f63     Jo +Ro.+[o.+co.+
1a008284:	2afb6f6c 2af26f74 2ae86f7d 2adf6f85     lo.*to.*}o.*.o.*
1a008294:	2ad66f8d 2acc6f96 2ac36f9e 2ab96fa7     .o.*.o.*.o.*.o.*
1a0082a4:	2ab06faf 2aa76fb7 2a9d6fc0 2a946fc8     .o.*.o.*.o.*.o.*
1a0082b4:	2a8b6fd0 2a816fd9 2a786fe1 2a6e6fea     .o.*.o.*.ox*.on*
1a0082c4:	2a656ff2 2a5c6ffa 2a527002 2a49700b     .oe*.o\*.pR*.pI*
1a0082d4:	2a3f7013 2a36701b 2a2c7024 2a23702c     .p?*.p6*$p,*,p#*
1a0082e4:	2a1a7034 2a10703c 2a077045 29fd704d     4p.*<p.*Ep.*Mp.)
1a0082f4:	29f47055 29ea705d 29e17066 29d7706e     Up.)]p.)fp.)np.)
1a008304:	29ce7076 29c4707e 29bb7087 29b1708f     vp.)~p.).p.).p.)
1a008314:	29a77097 299e709f 299470a7 298b70af     .p.).p.).p.).p.)
1a008324:	298170b8 297870c0 296e70c8 296570d0     .p.).px).pn).pe)
1a008334:	295b70d8 295170e0 294870e8 293e70f0     .p[).pQ).pH).p>)
1a008344:	293570f9 292b7101 29217109 29187111     .p5).q+).q!).q.)
1a008354:	290e7119 29047121 28fb7129 28f17131     .q.)!q.))q.(1q.(
1a008364:	28e77139 28de7141 28d47149 28ca7151     9q.(Aq.(Iq.(Qq.(
1a008374:	28c17159 28b77161 28ad7169 28a47171     Yq.(aq.(iq.(qq.(
1a008384:	289a7179 28907181 28867189 287d7191     yq.(.q.(.q.(.q}(
1a008394:	28737199 286971a1 286071a9 285671b1     .qs(.qi(.q`(.qV(
1a0083a4:	284c71b9 284271c0 283871c8 282f71d0     .qL(.qB(.q8(.q/(
1a0083b4:	282571d8 281b71e0 281171e8 280871f0     .q%(.q.(.q.(.q.(
1a0083c4:	27fe71f8 27f471ff 27ea7207 27e0720f     .q.'.q.'.r.'.r.'
1a0083d4:	27d67217 27cd721f 27c37227 27b9722e     .r.'.r.''r.'.r.'
1a0083e4:	27af7236 27a5723e 279b7246 2791724e     6r.'>r.'Fr.'Nr.'
1a0083f4:	27887255 277e725d 27747265 276a726d     Ur.']r~'ert'mrj'
1a008404:	27607274 2756727c 274c7284 2742728b     tr`'|rV'.rL'.rB'
1a008414:	27387293 272e729b 272472a3 271a72aa     .r8'.r.'.r$'.r.'
1a008424:	271172b2 270772ba 26fd72c1 26f372c9     .r.'.r.'.r.&.r.&
1a008434:	26e972d0 26df72d8 26d572e0 26cb72e7     .r.&.r.&.r.&.r.&
1a008444:	26c172ef 26b772f7 26ad72fe 26a37306     .r.&.r.&.r.&.s.&
1a008454:	2699730d 268f7315 2685731d 267b7324     .s.&.s.&.s.&$s{&
1a008464:	2671732c 26667333 265c733b 26527342     ,sq&3sf&;s\&BsR&
1a008474:	2648734a 263e7351 26347359 262a7360     JsH&Qs>&Ys4&`s*&
1a008484:	26207368 2616736f 260c7377 2602737e     hs &os.&ws.&~s.&
1a008494:	25f87386 25ed738d 25e37395 25d9739c     .s.%.s.%.s.%.s.%
1a0084a4:	25cf73a3 25c573ab 25bb73b2 25b173ba     .s.%.s.%.s.%.s.%
1a0084b4:	25a673c1 259c73c8 259273d0 258873d7     .s.%.s.%.s.%.s.%
1a0084c4:	257e73df 257473e6 256973ed 255f73f5     .s~%.st%.si%.s_%
1a0084d4:	255573fc 254b7403 2541740b 25367412     .sU%.tK%.tA%.t6%
1a0084e4:	252c7419 25227420 25187428 250d742f     .t,% t"%(t.%/t.%
1a0084f4:	25037436 24f9743e 24ef7445 24e4744c     6t.%>t.$Et.$Lt.$
1a008504:	24da7453 24d0745b 24c57462 24bb7469     St.$[t.$bt.$it.$
1a008514:	24b17470 24a77477 249c747f 24927486     pt.$wt.$.t.$.t.$
1a008524:	2488748d 247d7494 2473749b 246974a2     .t.$.t}$.ts$.ti$
1a008534:	245e74aa 245474b1 244a74b8 243f74bf     .t^$.tT$.tJ$.t?$
1a008544:	243574c6 242b74cd 242074d4 241674db     .t5$.t+$.t $.t.$
1a008554:	240b74e2 240174ea 23f774f1 23ec74f8     .t.$.t.$.t.#.t.#
1a008564:	23e274ff 23d77506 23cd750d 23c37514     .t.#.u.#.u.#.u.#
1a008574:	23b8751b 23ae7522 23a37529 23997530     .u.#"u.#)u.#0u.#
1a008584:	238e7537 2384753e 237a7545 236f754c     7u.#>u.#Euz#Luo#
1a008594:	23657553 235a755a 23507561 23457567     Sue#ZuZ#auP#guE#
1a0085a4:	233b756e 23307575 2326757c 231b7583     nu;#uu0#|u&#.u.#
1a0085b4:	2311758a 23067591 22fc7598 22f1759f     .u.#.u.#.u.".u."
1a0085c4:	22e775a5 22dc75ac 22d275b3 22c775ba     .u.".u.".u.".u."
1a0085d4:	22bc75c1 22b275c8 22a775ce 229d75d5     .u.".u.".u.".u."
1a0085e4:	229275dc 228875e3 227d75ea 227275f0     .u.".u.".u}".ur"
1a0085f4:	226875f7 225d75fe 22537605 2248760b     .uh".u]".vS".vH"
1a008604:	223d7612 22337619 22287620 221e7626     .v=".v3" v("&v."
1a008614:	2213762d 22087634 21fe763a 21f37641     -v."4v.":v.!Av.!
1a008624:	21e87648 21de764e 21d37655 21c8765c     Hv.!Nv.!Uv.!\v.!
1a008634:	21be7662 21b37669 21a8766f 219e7676     bv.!iv.!ov.!vv.!
1a008644:	2193767d 21887683 217d768a 21737690     }v.!.v.!.v}!.vs!
1a008654:	21687697 215d769d 215376a4 214876ab     .vh!.v]!.vS!.vH!
1a008664:	213d76b1 213276b8 212876be 211d76c5     .v=!.v2!.v(!.v.!
1a008674:	211276cb 210776d2 20fd76d8 20f276df     .v.!.v.!.v. .v. 
1a008684:	20e776e5 20dc76eb 20d176f2 20c776f8     .v. .v. .v. .v. 
1a008694:	20bc76ff 20b17705 20a6770c 209b7712     .v. .w. .w. .w. 
1a0086a4:	20917718 2086771f 207b7725 2070772c     .w. .w. %w{ ,wp 
1a0086b4:	20657732 205b7738 2050773f 20457745     2we 8w[ ?wP EwE 
1a0086c4:	203a774b 202f7752 20247758 2019775e     Kw: Rw/ Xw$ ^w. 
1a0086d4:	200f7765 2004776b 1ff97771 1fee7777     ew. kw. qw..ww..
1a0086e4:	1fe3777e 1fd87784 1fcd778a 1fc27790     ~w...w...w...w..
1a0086f4:	1fb77797 1fac779d 1fa277a3 1f9777a9     .w...w...w...w..
1a008704:	1f8c77b0 1f8177b6 1f7677bc 1f6b77c2     .w...w...wv..wk.
1a008714:	1f6077c8 1f5577ce 1f4a77d5 1f3f77db     .w`..wU..wJ..w?.
1a008724:	1f3477e1 1f2977e7 1f1e77ed 1f1377f3     .w4..w)..w...w..
1a008734:	1f0877f9 1efd77ff 1ef27805 1ee7780b     .w...w...x...x..
1a008744:	1edc7812 1ed17818 1ec6781e 1ebb7824     .x...x...x..$x..
1a008754:	1eb0782a 1ea57830 1e9a7836 1e8f783c     *x..0x..6x..<x..
1a008764:	1e847842 1e797848 1e6e784e 1e637854     Bx..Hxy.Nxn.Txc.
1a008774:	1e58785a 1e4d7860 1e427866 1e36786b     ZxX.`xM.fxB.kx6.
1a008784:	1e2b7871 1e207877 1e15787d 1e0a7883     qx+.wx .}x...x..
1a008794:	1dff7889 1df4788f 1de97895 1dde789b     .x...x...x...x..
1a0087a4:	1dd378a1 1dc778a6 1dbc78ac 1db178b2     .x...x...x...x..
1a0087b4:	1da678b8 1d9b78be 1d9078c3 1d8578c9     .x...x...x...x..
1a0087c4:	1d7978cf 1d6e78d5 1d6378db 1d5878e0     .xy..xn..xc..xX.
1a0087d4:	1d4d78e6 1d4278ec 1d3678f2 1d2b78f7     .xM..xB..x6..x+.
1a0087e4:	1d2078fd 1d157903 1d0a7909 1cff790e     .x ..y...y...y..
1a0087f4:	1cf37914 1ce8791a 1cdd791f 1cd27925     .y...y...y..%y..
1a008804:	1cc6792b 1cbb7930 1cb07936 1ca5793b     +y..0y..6y..;y..
1a008814:	1c997941 1c8e7947 1c83794c 1c787952     Ay..Gy..Ly..Ryx.
1a008824:	1c6c7958 1c61795d 1c567963 1c4b7968     Xyl.]ya.cyV.hyK.
1a008834:	1c3f796e 1c347973 1c297979 1c1e797e     ny?.sy4.yy).~y..
1a008844:	1c127984 1c077989 1bfc798f 1bf07994     .y...y...y...y..
1a008854:	1be5799a 1bda799f 1bce79a5 1bc379aa     .y...y...y...y..
1a008864:	1bb879b0 1bac79b5 1ba179bb 1b9679c0     .y...y...y...y..
1a008874:	1b8a79c5 1b7f79cb 1b7479d0 1b6879d6     .y...y...yt..yh.
1a008884:	1b5d79db 1b5279e0 1b4679e6 1b3b79eb     .y]..yR..yF..y;.
1a008894:	1b3079f0 1b2479f6 1b1979fb 1b0d7a00     .y0..y$..y...z..
1a0088a4:	1b027a06 1af77a0b 1aeb7a10 1ae07a16     .z...z...z...z..
1a0088b4:	1ad47a1b 1ac97a20 1abe7a25 1ab27a2b     .z.. z..%z..+z..
1a0088c4:	1aa77a30 1a9b7a35 1a907a3a 1a847a3f     0z..5z..:z..?z..
1a0088d4:	1a797a45 1a6e7a4a 1a627a4f 1a577a54     Ezy.Jzn.Ozb.TzW.
1a0088e4:	1a4b7a59 1a407a5f 1a347a64 1a297a69     YzK._z@.dz4.iz).
1a0088f4:	1a1d7a6e 1a127a73 1a067a78 19fb7a7d     nz..sz..xz..}z..
1a008904:	19ef7a82 19e47a88 19d87a8d 19cd7a92     .z...z...z...z..
1a008914:	19c17a97 19b67a9c 19aa7aa1 199f7aa6     .z...z...z...z..
1a008924:	19937aab 19887ab0 197c7ab5 19717aba     .z...z...z|..zq.
1a008934:	19657abf 195a7ac4 194e7ac9 19437ace     .ze..zZ..zN..zC.
1a008944:	19377ad3 192c7ad8 19207add 19147ae2     .z7..z,..z ..z..
1a008954:	19097ae6 18fd7aeb 18f27af0 18e67af5     .z...z...z...z..
1a008964:	18db7afa 18cf7aff 18c37b04 18b87b09     .z...z...{...{..
1a008974:	18ac7b0e 18a17b12 18957b17 18897b1c     .{...{...{...{..
1a008984:	187e7b21 18727b26 18677b2a 185b7b2f     !{~.&{r.*{g./{[.
1a008994:	184f7b34 18447b39 18387b3e 182d7b42     4{O.9{D.>{8.B{-.
1a0089a4:	18217b47 18157b4c 180a7b50 17fe7b55     G{!.L{..P{..U{..
1a0089b4:	17f27b5a 17e77b5f 17db7b63 17cf7b68     Z{.._{..c{..h{..
1a0089c4:	17c47b6d 17b87b71 17ac7b76 17a17b7b     m{..q{..v{..{{..
1a0089d4:	17957b7f 17897b84 177e7b88 17727b8d     .{...{...{~..{r.
1a0089e4:	17667b92 175b7b96 174f7b9b 17437b9f     .{f..{[..{O..{C.
1a0089f4:	17377ba4 172c7ba9 17207bad 17147bb2     .{7..{,..{ ..{..
1a008a04:	17097bb6 16fd7bbb 16f17bbf 16e57bc4     .{...{...{...{..
1a008a14:	16da7bc8 16ce7bcd 16c27bd1 16b67bd6     .{...{...{...{..
1a008a24:	16ab7bda 169f7bde 16937be3 16877be7     .{...{...{...{..
1a008a34:	167c7bec 16707bf0 16647bf5 16587bf9     .{|..{p..{d..{X.
1a008a44:	164c7bfd 16417c02 16357c06 16297c0a     .{L..|A..|5..|).
1a008a54:	161d7c0f 16127c13 16067c17 15fa7c1c     .|...|...|...|..
1a008a64:	15ee7c20 15e27c24 15d77c29 15cb7c2d      |..$|..)|..-|..
1a008a74:	15bf7c31 15b37c36 15a77c3a 159b7c3e     1|..6|..:|..>|..
1a008a84:	15907c42 15847c46 15787c4b 156c7c4f     B|..F|..K|x.O|l.
1a008a94:	15607c53 15547c57 15497c5b 153d7c60     S|`.W|T.[|I.`|=.
1a008aa4:	15317c64 15257c68 15197c6c 150d7c70     d|1.h|%.l|..p|..
1a008ab4:	15017c74 14f67c79 14ea7c7d 14de7c81     t|..y|..}|...|..
1a008ac4:	14d27c85 14c67c89 14ba7c8d 14ae7c91     .|...|...|...|..
1a008ad4:	14a27c95 14967c99 148b7c9d 147f7ca1     .|...|...|...|..
1a008ae4:	14737ca5 14677ca9 145b7cad 144f7cb1     .|s..|g..|[..|O.
1a008af4:	14437cb5 14377cb9 142b7cbd 141f7cc1     .|C..|7..|+..|..
1a008b04:	14137cc5 14077cc9 13fb7ccd 13f07cd1     .|...|...|...|..
1a008b14:	13e47cd5 13d87cd9 13cc7cdd 13c07ce0     .|...|...|...|..
1a008b24:	13b47ce4 13a87ce8 139c7cec 13907cf0     .|...|...|...|..
1a008b34:	13847cf4 13787cf8 136c7cfb 13607cff     .|...|x..|l..|`.
1a008b44:	13547d03 13487d07 133c7d0b 13307d0e     .}T..}H..}<..}0.
1a008b54:	13247d12 13187d16 130c7d1a 13007d1d     .}$..}...}...}..
1a008b64:	12f47d21 12e87d25 12dc7d28 12d07d2c     !}..%}..(}..,}..
1a008b74:	12c47d30 12b87d34 12ac7d37 12a07d3b     0}..4}..7}..;}..
1a008b84:	12947d3f 12887d42 127c7d46 12707d49     ?}..B}..F}|.I}p.
1a008b94:	12647d4d 12587d51 124c7d54 12407d58     M}d.Q}X.T}L.X}@.
1a008ba4:	12347d5b 12287d5f 121c7d63 12107d66     [}4._}(.c}..f}..
1a008bb4:	12047d6a 11f77d6d 11eb7d71 11df7d74     j}..m}..q}..t}..
1a008bc4:	11d37d78 11c77d7b 11bb7d7f 11af7d82     x}..{}...}...}..
1a008bd4:	11a37d86 11977d89 118b7d8d 117f7d90     .}...}...}...}..
1a008be4:	11737d93 11677d97 115a7d9a 114e7d9e     .}s..}g..}Z..}N.
1a008bf4:	11427da1 11367da4 112a7da8 111e7dab     .}B..}6..}*..}..
1a008c04:	11127daf 11067db2 10fa7db5 10ed7db9     .}...}...}...}..
1a008c14:	10e17dbc 10d57dbf 10c97dc2 10bd7dc6     .}...}...}...}..
1a008c24:	10b17dc9 10a57dcc 10997dd0 108c7dd3     .}...}...}...}..
1a008c34:	10807dd6 10747dd9 10687ddd 105c7de0     .}...}t..}h..}\.
1a008c44:	10507de3 10447de6 10377de9 102b7ded     .}P..}D..}7..}+.
1a008c54:	101f7df0 10137df3 10077df6 0ffb7df9     .}...}...}...}..
1a008c64:	0fee7dfc 0fe27dff 0fd67e03 0fca7e06     .}...}...~...~..
1a008c74:	0fbe7e09 0fb27e0c 0fa57e0f 0f997e12     .~...~...~...~..
1a008c84:	0f8d7e15 0f817e18 0f757e1b 0f687e1e     .~...~...~u..~h.
1a008c94:	0f5c7e21 0f507e24 0f447e27 0f387e2a     !~\.$~P.'~D.*~8.
1a008ca4:	0f2b7e2d 0f1f7e30 0f137e33 0f077e36     -~+.0~..3~..6~..
1a008cb4:	0efb7e39 0eee7e3c 0ee27e3f 0ed67e42     9~..<~..?~..B~..
1a008cc4:	0eca7e45 0ebd7e48 0eb17e4a 0ea57e4d     E~..H~..J~..M~..
1a008cd4:	0e997e50 0e8c7e53 0e807e56 0e747e59     P~..S~..V~..Y~t.
1a008ce4:	0e687e5c 0e5c7e5e 0e4f7e61 0e437e64     \~h.^~\.a~O.d~C.
1a008cf4:	0e377e67 0e2b7e6a 0e1e7e6c 0e127e6f     g~7.j~+.l~..o~..
1a008d04:	0e067e72 0df97e75 0ded7e77 0de17e7a     r~..u~..w~..z~..
1a008d14:	0dd57e7d 0dc87e80 0dbc7e82 0db07e85     }~...~...~...~..
1a008d24:	0da47e88 0d977e8a 0d8b7e8d 0d7f7e90     .~...~...~...~..
1a008d34:	0d727e92 0d667e95 0d5a7e98 0d4e7e9a     .~r..~f..~Z..~N.
1a008d44:	0d417e9d 0d357e9f 0d297ea2 0d1c7ea5     .~A..~5..~)..~..
1a008d54:	0d107ea7 0d047eaa 0cf87eac 0ceb7eaf     .~...~...~...~..
1a008d64:	0cdf7eb1 0cd37eb4 0cc67eb6 0cba7eb9     .~...~...~...~..
1a008d74:	0cae7ebb 0ca17ebe 0c957ec0 0c897ec3     .~...~...~...~..
1a008d84:	0c7c7ec5 0c707ec8 0c647eca 0c577ecc     .~|..~p..~d..~W.
1a008d94:	0c4b7ecf 0c3f7ed1 0c327ed4 0c267ed6     .~K..~?..~2..~&.
1a008da4:	0c1a7ed8 0c0d7edb 0c017edd 0bf57ee0     .~...~...~...~..
1a008db4:	0be87ee2 0bdc7ee4 0bd07ee7 0bc37ee9     .~...~...~...~..
1a008dc4:	0bb77eeb 0bab7eed 0b9e7ef0 0b927ef2     .~...~...~...~..
1a008dd4:	0b857ef4 0b797ef7 0b6d7ef9 0b607efb     .~...~y..~m..~`.
1a008de4:	0b547efd 0b487f00 0b3b7f02 0b2f7f04     .~T...H...;.../.
1a008df4:	0b237f06 0b167f08 0b0a7f0a 0afd7f0d     ..#.............
1a008e04:	0af17f0f 0ae57f11 0ad87f13 0acc7f15     ................
1a008e14:	0ac07f17 0ab37f19 0aa77f1c 0a9a7f1e     ................
1a008e24:	0a8e7f20 0a827f22 0a757f24 0a697f26      ..."...$.u.&.i.
1a008e34:	0a5c7f28 0a507f2a 0a447f2c 0a377f2e     (.\.*.P.,.D...7.
1a008e44:	0a2b7f30 0a1e7f32 0a127f34 0a067f36     0.+.2...4...6...
1a008e54:	09f97f38 09ed7f3a 09e07f3c 09d47f3e     8...:...<...>...
1a008e64:	09c77f40 09bb7f42 09af7f43 09a27f45     @...B...C...E...
1a008e74:	09967f47 09897f49 097d7f4b 09707f4d     G...I...K.}.M.p.
1a008e84:	09647f4f 09587f51 094b7f52 093f7f54     O.d.Q.X.R.K.T.?.
1a008e94:	09327f56 09267f58 09197f5a 090d7f5b     V.2.X.&.Z...[...
1a008ea4:	09017f5d 08f47f5f 08e87f61 08db7f62     ]..._...a...b...
1a008eb4:	08cf7f64 08c27f66 08b67f68 08a97f69     d...f...h...i...
1a008ec4:	089d7f6b 08917f6d 08847f6e 08787f70     k...m...n...p.x.
1a008ed4:	086b7f72 085f7f73 08527f75 08467f77     r.k.s._.u.R.w.F.
1a008ee4:	08397f78 082d7f7a 08207f7b 08147f7d     x.9.z.-.{. .}...
1a008ef4:	08077f7f 07fb7f80 07ef7f82 07e27f83     ................
1a008f04:	07d67f85 07c97f86 07bd7f88 07b07f89     ................
1a008f14:	07a47f8b 07977f8c 078b7f8e 077e7f8f     ..............~.
1a008f24:	07727f91 07657f92 07597f94 074c7f95     ..r...e...Y...L.
1a008f34:	07407f97 07337f98 07277f99 071a7f9b     ..@...3...'.....
1a008f44:	070e7f9c 07017f9e 06f57f9f 06e87fa0     ................
1a008f54:	06dc7fa2 06cf7fa3 06c37fa4 06b67fa6     ................
1a008f64:	06aa7fa7 069d7fa8 06917faa 06847fab     ................
1a008f74:	06787fac 066b7fad 065f7faf 06527fb0     ..x...k..._...R.
1a008f84:	06467fb1 06397fb2 062d7fb4 06207fb5     ..F...9...-... .
1a008f94:	06147fb6 06077fb7 05fb7fb8 05ee7fb9     ................
1a008fa4:	05e27fbb 05d57fbc 05c97fbd 05bc7fbe     ................
1a008fb4:	05b07fbf 05a37fc0 05977fc1 058a7fc3     ................
1a008fc4:	057e7fc4 05717fc5 05657fc6 05587fc7     ..~...q...e...X.
1a008fd4:	054c7fc8 053f7fc9 05337fca 05267fcb     ..L...?...3...&.
1a008fe4:	051a7fcc 050d7fcd 05007fce 04f47fcf     ................
1a008ff4:	04e77fd0 04db7fd1 04ce7fd2 04c27fd3     ................
1a009004:	04b57fd4 04a97fd5 049c7fd5 04907fd6     ................
1a009014:	04837fd7 04777fd8 046a7fd9 045e7fda     ......w...j...^.
1a009024:	04517fdb 04447fdc 04387fdc 042b7fdd     ..Q...D...8...+.
1a009034:	041f7fde 04127fdf 04067fe0 03f97fe0     ................
1a009044:	03ed7fe1 03e07fe2 03d47fe3 03c77fe3     ................
1a009054:	03bb7fe4 03ae7fe5 03a17fe6 03957fe6     ................
1a009064:	03887fe7 037c7fe8 036f7fe8 03637fe9     ......|...o...c.
1a009074:	03567fea 034a7fea 033d7feb 03307fec     ..V...J...=...0.
1a009084:	03247fec 03177fed 030b7fed 02fe7fee     ..$.............
1a009094:	02f27fef 02e57fef 02d97ff0 02cc7ff0     ................
1a0090a4:	02c07ff1 02b37ff1 02a67ff2 029a7ff2     ................
1a0090b4:	028d7ff3 02817ff3 02747ff4 02687ff4     ..........t...h.
1a0090c4:	025b7ff5 024e7ff5 02427ff6 02357ff6     ..[...N...B...5.
1a0090d4:	02297ff7 021c7ff7 02107ff7 02037ff8     ..).............
1a0090e4:	01f77ff8 01ea7ff9 01dd7ff9 01d17ff9     ................
1a0090f4:	01c47ffa 01b87ffa 01ab7ffa 019f7ffb     ................
1a009104:	01927ffb 01867ffb 01797ffc 016c7ffc     ..........y...l.
1a009114:	01607ffc 01537ffc 01477ffd 013a7ffd     ..`...S...G...:.
1a009124:	012e7ffd 01217ffd 01147ffe 01087ffe     ......!.........
1a009134:	00fb7ffe 00ef7ffe 00e27ffe 00d67fff     ................
1a009144:	00c97fff 00bc7fff 00b07fff 00a37fff     ................
1a009154:	00977fff 008a7fff 007e7fff 00717fff     ..........~...q.
1a009164:	00657fff 00587fff 004b7fff 003f7fff     ..e...X...K...?.
1a009174:	00327fff 00267fff 00197fff 000d7fff     ..2...&.........
1a009184:	00007fff fff37fff ffe77fff ffda7fff     ................
1a009194:	ffce7fff ffc17fff ffb57fff ffa87fff     ................
1a0091a4:	ff9b7fff ff8f7fff ff827fff ff767fff     ..............v.
1a0091b4:	ff697fff ff5d7fff ff507fff ff447fff     ..i...]...P...D.
1a0091c4:	ff377fff ff2a7fff ff1e7ffe ff117ffe     ..7...*.........
1a0091d4:	ff057ffe fef87ffe feec7ffe fedf7ffd     ................
1a0091e4:	fed27ffd fec67ffd feb97ffd fead7ffc     ................
1a0091f4:	fea07ffc fe947ffc fe877ffc fe7a7ffb     ..............z.
1a009204:	fe6e7ffb fe617ffb fe557ffa fe487ffa     ..n...a...U...H.
1a009214:	fe3c7ffa fe2f7ff9 fe237ff9 fe167ff9     ..<.../...#.....
1a009224:	fe097ff8 fdfd7ff8 fdf07ff7 fde47ff7     ................
1a009234:	fdd77ff7 fdcb7ff6 fdbe7ff6 fdb27ff5     ................
1a009244:	fda57ff5 fd987ff4 fd8c7ff4 fd7f7ff3     ................
1a009254:	fd737ff3 fd667ff2 fd5a7ff2 fd4d7ff1     ..s...f...Z...M.
1a009264:	fd407ff1 fd347ff0 fd277ff0 fd1b7fef     ..@...4...'.....
1a009274:	fd0e7fef fd027fee fcf57fed fce97fed     ................
1a009284:	fcdc7fec fcd07fec fcc37feb fcb67fea     ................
1a009294:	fcaa7fea fc9d7fe9 fc917fe8 fc847fe8     ................
1a0092a4:	fc787fe7 fc6b7fe6 fc5f7fe6 fc527fe5     ..x...k..._...R.
1a0092b4:	fc457fe4 fc397fe3 fc2c7fe3 fc207fe2     ..E...9...,... .
1a0092c4:	fc137fe1 fc077fe0 fbfa7fe0 fbee7fdf     ................
1a0092d4:	fbe17fde fbd57fdd fbc87fdc fbbc7fdc     ................
1a0092e4:	fbaf7fdb fba27fda fb967fd9 fb897fd8     ................
1a0092f4:	fb7d7fd7 fb707fd6 fb647fd5 fb577fd5     ..}...p...d...W.
1a009304:	fb4b7fd4 fb3e7fd3 fb327fd2 fb257fd1     ..K...>...2...%.
1a009314:	fb197fd0 fb0c7fcf fb007fce faf37fcd     ................
1a009324:	fae67fcc fada7fcb facd7fca fac17fc9     ................
1a009334:	fab47fc8 faa87fc7 fa9b7fc6 fa8f7fc5     ................
1a009344:	fa827fc4 fa767fc3 fa697fc1 fa5d7fc0     ......v...i...].
1a009354:	fa507fbf fa447fbe fa377fbd fa2b7fbc     ..P...D...7...+.
1a009364:	fa1e7fbb fa127fb9 fa057fb8 f9f97fb7     ................
1a009374:	f9ec7fb6 f9e07fb5 f9d37fb4 f9c77fb2     ................
1a009384:	f9ba7fb1 f9ae7fb0 f9a17faf f9957fad     ................
1a009394:	f9887fac f97c7fab f96f7faa f9637fa8     ......|...o...c.
1a0093a4:	f9567fa7 f94a7fa6 f93d7fa4 f9317fa3     ..V...J...=...1.
1a0093b4:	f9247fa2 f9187fa0 f90b7f9f f8ff7f9e     ..$.............
1a0093c4:	f8f27f9c f8e67f9b f8d97f99 f8cd7f98     ................
1a0093d4:	f8c07f97 f8b47f95 f8a77f94 f89b7f92     ................
1a0093e4:	f88e7f91 f8827f8f f8757f8e f8697f8c     ..........u...i.
1a0093f4:	f85c7f8b f8507f89 f8437f88 f8377f86     ..\...P...C...7.
1a009404:	f82a7f85 f81e7f83 f8117f82 f8057f80     ..*.............
1a009414:	f7f97f7f f7ec7f7d f7e07f7b f7d37f7a     ....}...{...z...
1a009424:	f7c77f78 f7ba7f77 f7ae7f75 f7a17f73     x...w...u...s...
1a009434:	f7957f72 f7887f70 f77c7f6e f76f7f6d     r...p...n.|.m.o.
1a009444:	f7637f6b f7577f69 f74a7f68 f73e7f66     k.c.i.W.h.J.f.>.
1a009454:	f7317f64 f7257f62 f7187f61 f70c7f5f     d.1.b.%.a..._...
1a009464:	f6ff7f5d f6f37f5b f6e77f5a f6da7f58     ]...[...Z...X...
1a009474:	f6ce7f56 f6c17f54 f6b57f52 f6a87f51     V...T...R...Q...
1a009484:	f69c7f4f f6907f4d f6837f4b f6777f49     O...M...K...I.w.
1a009494:	f66a7f47 f65e7f45 f6517f43 f6457f42     G.j.E.^.C.Q.B.E.
1a0094a4:	f6397f40 f62c7f3e f6207f3c f6137f3a     @.9.>.,.<. .:...
1a0094b4:	f6077f38 f5fa7f36 f5ee7f34 f5e27f32     8...6...4...2...
1a0094c4:	f5d57f30 f5c97f2e f5bc7f2c f5b07f2a     0.......,...*...
1a0094d4:	f5a47f28 f5977f26 f58b7f24 f57e7f22     (...&...$...".~.
1a0094e4:	f5727f20 f5667f1e f5597f1c f54d7f19      .r...f...Y...M.
1a0094f4:	f5407f17 f5347f15 f5287f13 f51b7f11     ..@...4...(.....
1a009504:	f50f7f0f f5037f0d f4f67f0a f4ea7f08     ................
1a009514:	f4dd7f06 f4d17f04 f4c57f02 f4b87f00     ................
1a009524:	f4ac7efd f4a07efb f4937ef9 f4877ef7     .~...~...~...~..
1a009534:	f47b7ef4 f46e7ef2 f4627ef0 f4557eed     .~{..~n..~b..~U.
1a009544:	f4497eeb f43d7ee9 f4307ee7 f4247ee4     .~I..~=..~0..~$.
1a009554:	f4187ee2 f40b7ee0 f3ff7edd f3f37edb     .~...~...~...~..
1a009564:	f3e67ed8 f3da7ed6 f3ce7ed4 f3c17ed1     .~...~...~...~..
1a009574:	f3b57ecf f3a97ecc f39c7eca f3907ec8     .~...~...~...~..
1a009584:	f3847ec5 f3777ec3 f36b7ec0 f35f7ebe     .~...~w..~k..~_.
1a009594:	f3527ebb f3467eb9 f33a7eb6 f32d7eb4     .~R..~F..~:..~-.
1a0095a4:	f3217eb1 f3157eaf f3087eac f2fc7eaa     .~!..~...~...~..
1a0095b4:	f2f07ea7 f2e47ea5 f2d77ea2 f2cb7e9f     .~...~...~...~..
1a0095c4:	f2bf7e9d f2b27e9a f2a67e98 f29a7e95     .~...~...~...~..
1a0095d4:	f28e7e92 f2817e90 f2757e8d f2697e8a     .~...~...~u..~i.
1a0095e4:	f25c7e88 f2507e85 f2447e82 f2387e80     .~\..~P..~D..~8.
1a0095f4:	f22b7e7d f21f7e7a f2137e77 f2077e75     }~+.z~..w~..u~..
1a009604:	f1fa7e72 f1ee7e6f f1e27e6c f1d57e6a     r~..o~..l~..j~..
1a009614:	f1c97e67 f1bd7e64 f1b17e61 f1a47e5e     g~..d~..a~..^~..
1a009624:	f1987e5c f18c7e59 f1807e56 f1747e53     \~..Y~..V~..S~t.
1a009634:	f1677e50 f15b7e4d f14f7e4a f1437e48     P~g.M~[.J~O.H~C.
1a009644:	f1367e45 f12a7e42 f11e7e3f f1127e3c     E~6.B~*.?~..<~..
1a009654:	f1057e39 f0f97e36 f0ed7e33 f0e17e30     9~..6~..3~..0~..
1a009664:	f0d57e2d f0c87e2a f0bc7e27 f0b07e24     -~..*~..'~..$~..
1a009674:	f0a47e21 f0987e1e f08b7e1b f07f7e18     !~...~...~...~..
1a009684:	f0737e15 f0677e12 f05b7e0f f04e7e0c     .~s..~g..~[..~N.
1a009694:	f0427e09 f0367e06 f02a7e03 f01e7dff     .~B..~6..~*..}..
1a0096a4:	f0127dfc f0057df9 eff97df6 efed7df3     .}...}...}...}..
1a0096b4:	efe17df0 efd57ded efc97de9 efbc7de6     .}...}...}...}..
1a0096c4:	efb07de3 efa47de0 ef987ddd ef8c7dd9     .}...}...}...}..
1a0096d4:	ef807dd6 ef747dd3 ef677dd0 ef5b7dcc     .}...}t..}g..}[.
1a0096e4:	ef4f7dc9 ef437dc6 ef377dc2 ef2b7dbf     .}O..}C..}7..}+.
1a0096f4:	ef1f7dbc ef137db9 ef067db5 eefa7db2     .}...}...}...}..
1a009704:	eeee7daf eee27dab eed67da8 eeca7da4     .}...}...}...}..
1a009714:	eebe7da1 eeb27d9e eea67d9a ee997d97     .}...}...}...}..
1a009724:	ee8d7d93 ee817d90 ee757d8d ee697d89     .}...}...}u..}i.
1a009734:	ee5d7d86 ee517d82 ee457d7f ee397d7b     .}]..}Q..}E.{}9.
1a009744:	ee2d7d78 ee217d74 ee157d71 ee097d6d     x}-.t}!.q}..m}..
1a009754:	edfc7d6a edf07d66 ede47d63 edd87d5f     j}..f}..c}.._}..
1a009764:	edcc7d5b edc07d58 edb47d54 eda87d51     [}..X}..T}..Q}..
1a009774:	ed9c7d4d ed907d49 ed847d46 ed787d42     M}..I}..F}..B}x.
1a009784:	ed6c7d3f ed607d3b ed547d37 ed487d34     ?}l.;}`.7}T.4}H.
1a009794:	ed3c7d30 ed307d2c ed247d28 ed187d25     0}<.,}0.(}$.%}..
1a0097a4:	ed0c7d21 ed007d1d ecf47d1a ece87d16     !}...}...}...}..
1a0097b4:	ecdc7d12 ecd07d0e ecc47d0b ecb87d07     .}...}...}...}..
1a0097c4:	ecac7d03 eca07cff ec947cfb ec887cf8     .}...|...|...|..
1a0097d4:	ec7c7cf4 ec707cf0 ec647cec ec587ce8     .||..|p..|d..|X.
1a0097e4:	ec4c7ce4 ec407ce0 ec347cdd ec287cd9     .|L..|@..|4..|(.
1a0097f4:	ec1c7cd5 ec107cd1 ec057ccd ebf97cc9     .|...|...|...|..
1a009804:	ebed7cc5 ebe17cc1 ebd57cbd ebc97cb9     .|...|...|...|..
1a009814:	ebbd7cb5 ebb17cb1 eba57cad eb997ca9     .|...|...|...|..
1a009824:	eb8d7ca5 eb817ca1 eb757c9d eb6a7c99     .|...|...|u..|j.
1a009834:	eb5e7c95 eb527c91 eb467c8d eb3a7c89     .|^..|R..|F..|:.
1a009844:	eb2e7c85 eb227c81 eb167c7d eb0a7c79     .|...|".}|..y|..
1a009854:	eaff7c74 eaf37c70 eae77c6c eadb7c68     t|..p|..l|..h|..
1a009864:	eacf7c64 eac37c60 eab77c5b eaac7c57     d|..`|..[|..W|..
1a009874:	eaa07c53 ea947c4f ea887c4b ea7c7c46     S|..O|..K|..F||.
1a009884:	ea707c42 ea657c3e ea597c3a ea4d7c36     B|p.>|e.:|Y.6|M.
1a009894:	ea417c31 ea357c2d ea297c29 ea1e7c24     1|A.-|5.)|).$|..
1a0098a4:	ea127c20 ea067c1c e9fa7c17 e9ee7c13      |...|...|...|..
1a0098b4:	e9e37c0f e9d77c0a e9cb7c06 e9bf7c02     .|...|...|...|..
1a0098c4:	e9b47bfd e9a87bf9 e99c7bf5 e9907bf0     .{...{...{...{..
1a0098d4:	e9847bec e9797be7 e96d7be3 e9617bde     .{...{y..{m..{a.
1a0098e4:	e9557bda e94a7bd6 e93e7bd1 e9327bcd     .{U..{J..{>..{2.
1a0098f4:	e9267bc8 e91b7bc4 e90f7bbf e9037bbb     .{&..{...{...{..
1a009904:	e8f77bb6 e8ec7bb2 e8e07bad e8d47ba9     .{...{...{...{..
1a009914:	e8c97ba4 e8bd7b9f e8b17b9b e8a57b96     .{...{...{...{..
1a009924:	e89a7b92 e88e7b8d e8827b88 e8777b84     .{...{...{...{w.
1a009934:	e86b7b7f e85f7b7b e8547b76 e8487b71     .{k.{{_.v{T.q{H.
1a009944:	e83c7b6d e8317b68 e8257b63 e8197b5f     m{<.h{1.c{%._{..
1a009954:	e80e7b5a e8027b55 e7f67b50 e7eb7b4c     Z{..U{..P{..L{..
1a009964:	e7df7b47 e7d37b42 e7c87b3e e7bc7b39     G{..B{..>{..9{..
1a009974:	e7b17b34 e7a57b2f e7997b2a e78e7b26     4{../{..*{..&{..
1a009984:	e7827b21 e7777b1c e76b7b17 e75f7b12     !{...{w..{k..{_.
1a009994:	e7547b0e e7487b09 e73d7b04 e7317aff     .{T..{H..{=..z1.
1a0099a4:	e7257afa e71a7af5 e70e7af0 e7037aeb     .z%..z...z...z..
1a0099b4:	e6f77ae6 e6ec7ae2 e6e07add e6d47ad8     .z...z...z...z..
1a0099c4:	e6c97ad3 e6bd7ace e6b27ac9 e6a67ac4     .z...z...z...z..
1a0099d4:	e69b7abf e68f7aba e6847ab5 e6787ab0     .z...z...z...zx.
1a0099e4:	e66d7aab e6617aa6 e6567aa1 e64a7a9c     .zm..za..zV..zJ.
1a0099f4:	e63f7a97 e6337a92 e6287a8d e61c7a88     .z?..z3..z(..z..
1a009a04:	e6117a82 e6057a7d e5fa7a78 e5ee7a73     .z..}z..xz..sz..
1a009a14:	e5e37a6e e5d77a69 e5cc7a64 e5c07a5f     nz..iz..dz.._z..
1a009a24:	e5b57a59 e5a97a54 e59e7a4f e5927a4a     Yz..Tz..Oz..Jz..
1a009a34:	e5877a45 e57c7a3f e5707a3a e5657a35     Ez..?z|.:zp.5ze.
1a009a44:	e5597a30 e54e7a2b e5427a25 e5377a20     0zY.+zN.%zB. z7.
1a009a54:	e52c7a1b e5207a16 e5157a10 e5097a0b     .z,..z ..z...z..
1a009a64:	e4fe7a06 e4f37a00 e4e779fb e4dc79f6     .z...z...y...y..
1a009a74:	e4d079f0 e4c579eb e4ba79e6 e4ae79e0     .y...y...y...y..
1a009a84:	e4a379db e49879d6 e48c79d0 e48179cb     .y...y...y...y..
1a009a94:	e47679c5 e46a79c0 e45f79bb e45479b5     .yv..yj..y_..yT.
1a009aa4:	e44879b0 e43d79aa e43279a5 e426799f     .yH..y=..y2..y&.
1a009ab4:	e41b799a e4107994 e404798f e3f97989     .y...y...y...y..
1a009ac4:	e3ee7984 e3e2797e e3d77979 e3cc7973     .y..~y..yy..sy..
1a009ad4:	e3c1796e e3b57968 e3aa7963 e39f795d     ny..hy..cy..]y..
1a009ae4:	e3947958 e3887952 e37d794c e3727947     Xy..Ry..Ly}.Gyr.
1a009af4:	e3677941 e35b793b e3507936 e3457930     Ayg.;y[.6yP.0yE.
1a009b04:	e33a792b e32e7925 e323791f e318791a     +y:.%y...y#..y..
1a009b14:	e30d7914 e301790e e2f67909 e2eb7903     .y...y...y...y..
1a009b24:	e2e078fd e2d578f7 e2ca78f2 e2be78ec     .x...x...x...x..
1a009b34:	e2b378e6 e2a878e0 e29d78db e29278d5     .x...x...x...x..
1a009b44:	e28778cf e27b78c9 e27078c3 e26578be     .x...x{..xp..xe.
1a009b54:	e25a78b8 e24f78b2 e24478ac e23978a6     .xZ..xO..xD..x9.
1a009b64:	e22d78a1 e222789b e2177895 e20c788f     .x-..x"..x...x..
1a009b74:	e2017889 e1f67883 e1eb787d e1e07877     .x...x..}x..wx..
1a009b84:	e1d57871 e1ca786b e1be7866 e1b37860     qx..kx..fx..`x..
1a009b94:	e1a8785a e19d7854 e192784e e1877848     Zx..Tx..Nx..Hx..
1a009ba4:	e17c7842 e171783c e1667836 e15b7830     Bx|.<xq.6xf.0x[.
1a009bb4:	e150782a e1457824 e13a781e e12f7818     *xP.$xE..x:..x/.
1a009bc4:	e1247812 e119780b e10e7805 e10377ff     .x$..x...x...w..
1a009bd4:	e0f877f9 e0ed77f3 e0e277ed e0d777e7     .w...w...w...w..
1a009be4:	e0cc77e1 e0c177db e0b677d5 e0ab77ce     .w...w...w...w..
1a009bf4:	e0a077c8 e09577c2 e08a77bc e07f77b6     .w...w...w...w..
1a009c04:	e07477b0 e06977a9 e05e77a3 e054779d     .wt..wi..w^..wT.
1a009c14:	e0497797 e03e7790 e033778a e0287784     .wI..w>..w3..w(.
1a009c24:	e01d777e e0127777 e0077771 dffc776b     ~w..ww..qw..kw..
1a009c34:	dff17765 dfe7775e dfdc7758 dfd17752     ew..^w..Xw..Rw..
1a009c44:	dfc6774b dfbb7745 dfb0773f dfa57738     Kw..Ew..?w..8w..
1a009c54:	df9b7732 df90772c df857725 df7a771f     2w..,w..%w...wz.
1a009c64:	df6f7718 df657712 df5a770c df4f7705     .wo..we..wZ..wO.
1a009c74:	df4476ff df3976f8 df2f76f2 df2476eb     .vD..v9..v/..v$.
1a009c84:	df1976e5 df0e76df df0376d8 def976d2     .v...v...v...v..
1a009c94:	deee76cb dee376c5 ded876be dece76b8     .v...v...v...v..
1a009ca4:	dec376b1 deb876ab dead76a4 dea3769d     .v...v...v...v..
1a009cb4:	de987697 de8d7690 de83768a de787683     .v...v...v...vx.
1a009cc4:	de6d767d de627676 de58766f de4d7669     }vm.vvb.ovX.ivM.
1a009cd4:	de427662 de38765c de2d7655 de22764e     bvB.\v8.Uv-.Nv".
1a009ce4:	de187648 de0d7641 de02763a ddf87634     Hv..Av..:v..4v..
1a009cf4:	dded762d dde27626 ddd87620 ddcd7619     -v..&v.. v...v..
1a009d04:	ddc37612 ddb8760b ddad7605 dda375fe     .v...v...v...u..
1a009d14:	dd9875f7 dd8e75f0 dd8375ea dd7875e3     .u...u...u...ux.
1a009d24:	dd6e75dc dd6375d5 dd5975ce dd4e75c8     .un..uc..uY..uN.
1a009d34:	dd4475c1 dd3975ba dd2e75b3 dd2475ac     .uD..u9..u...u$.
1a009d44:	dd1975a5 dd0f759f dd047598 dcfa7591     .u...u...u...u..
1a009d54:	dcef758a dce57583 dcda757c dcd07575     .u...u..|u..uu..
1a009d64:	dcc5756e dcbb7567 dcb07561 dca6755a     nu..gu..au..Zu..
1a009d74:	dc9b7553 dc91754c dc867545 dc7c753e     Su..Lu..Eu..>u|.
1a009d84:	dc727537 dc677530 dc5d7529 dc527522     7ur.0ug.)u]."uR.
1a009d94:	dc48751b dc3d7514 dc33750d dc297506     .uH..u=..u3..u).
1a009da4:	dc1e74ff dc1474f8 dc0974f1 dbff74ea     .t...t...t...t..
1a009db4:	dbf574e2 dbea74db dbe074d4 dbd574cd     .t...t...t...t..
1a009dc4:	dbcb74c6 dbc174bf dbb674b8 dbac74b1     .t...t...t...t..
1a009dd4:	dba274aa db9774a2 db8d749b db837494     .t...t...t...t..
1a009de4:	db78748d db6e7486 db64747f db597477     .tx..tn..td.wtY.
1a009df4:	db4f7470 db457469 db3b7462 db30745b     ptO.itE.bt;.[t0.
1a009e04:	db267453 db1c744c db117445 db07743e     St&.Lt..Et..>t..
1a009e14:	dafd7436 daf3742f dae87428 dade7420     6t../t..(t.. t..
1a009e24:	dad47419 daca7412 dabf740b dab57403     .t...t...t...t..
1a009e34:	daab73fc daa173f5 da9773ed da8c73e6     .s...s...s...s..
1a009e44:	da8273df da7873d7 da6e73d0 da6473c8     .s...sx..sn..sd.
1a009e54:	da5a73c1 da4f73ba da4573b2 da3b73ab     .sZ..sO..sE..s;.
1a009e64:	da3173a3 da27739c da1d7395 da13738d     .s1..s'..s...s..
1a009e74:	da087386 d9fe737e d9f47377 d9ea736f     .s..~s..ws..os..
1a009e84:	d9e07368 d9d67360 d9cc7359 d9c27351     hs..`s..Ys..Qs..
1a009e94:	d9b8734a d9ae7342 d9a4733b d99a7333     Js..Bs..;s..3s..
1a009ea4:	d98f732c d9857324 d97b731d d9717315     ,s..$s...s{..sq.
1a009eb4:	d967730d d95d7306 d95372fe d94972f7     .sg..s]..rS..rI.
1a009ec4:	d93f72ef d93572e7 d92b72e0 d92172d8     .r?..r5..r+..r!.
1a009ed4:	d91772d0 d90d72c9 d90372c1 d8f972ba     .r...r...r...r..
1a009ee4:	d8ef72b2 d8e672aa d8dc72a3 d8d2729b     .r...r...r...r..
1a009ef4:	d8c87293 d8be728b d8b47284 d8aa727c     .r...r...r..|r..
1a009f04:	d8a07274 d896726d d88c7265 d882725d     tr..mr..er..]r..
1a009f14:	d8787255 d86f724e d8657246 d85b723e     Urx.Nro.Fre.>r[.
1a009f24:	d8517236 d847722e d83d7227 d833721f     6rQ..rG.'r=..r3.
1a009f34:	d82a7217 d820720f d8167207 d80c71ff     .r*..r ..r...q..
1a009f44:	d80271f8 d7f871f0 d7ef71e8 d7e571e0     .q...q...q...q..
1a009f54:	d7db71d8 d7d171d0 d7c871c8 d7be71c0     .q...q...q...q..
1a009f64:	d7b471b9 d7aa71b1 d7a071a9 d79771a1     .q...q...q...q..
1a009f74:	d78d7199 d7837191 d77a7189 d7707181     .q...q...qz..qp.
1a009f84:	d7667179 d75c7171 d7537169 d7497161     yqf.qq\.iqS.aqI.
1a009f94:	d73f7159 d7367151 d72c7149 d7227141     Yq?.Qq6.Iq,.Aq".
1a009fa4:	d7197139 d70f7131 d7057129 d6fc7121     9q..1q..)q..!q..
1a009fb4:	d6f27119 d6e87111 d6df7109 d6d57101     .q...q...q...q..
1a009fc4:	d6cb70f9 d6c270f0 d6b870e8 d6af70e0     .p...p...p...p..
1a009fd4:	d6a570d8 d69b70d0 d69270c8 d68870c0     .p...p...p...p..
1a009fe4:	d67f70b8 d67570af d66c70a7 d662709f     .p...pu..pl..pb.
1a009ff4:	d6597097 d64f708f d6457087 d63c707e     .pY..pO..pE.~p<.
1a00a004:	d6327076 d629706e d61f7066 d616705d     vp2.np).fp..]p..
1a00a014:	d60c7055 d603704d d5f97045 d5f0703c     Up..Mp..Ep..<p..
1a00a024:	d5e67034 d5dd702c d5d47024 d5ca701b     4p..,p..$p...p..
1a00a034:	d5c17013 d5b7700b d5ae7002 d5a46ffa     .p...p...p...o..
1a00a044:	d59b6ff2 d5926fea d5886fe1 d57f6fd9     .o...o...o...o..
1a00a054:	d5756fd0 d56c6fc8 d5636fc0 d5596fb7     .ou..ol..oc..oY.
1a00a064:	d5506faf d5476fa7 d53d6f9e d5346f96     .oP..oG..o=..o4.
1a00a074:	d52a6f8d d5216f85 d5186f7d d50e6f74     .o*..o!.}o..to..
1a00a084:	d5056f6c d4fc6f63 d4f36f5b d4e96f52     lo..co..[o..Ro..
1a00a094:	d4e06f4a d4d76f41 d4cd6f39 d4c46f30     Jo..Ao..9o..0o..
1a00a0a4:	d4bb6f28 d4b26f20 d4a86f17 d49f6f0e     (o.. o...o...o..
1a00a0b4:	d4966f06 d48d6efd d4836ef5 d47a6eec     .o...n...n...nz.
1a00a0c4:	d4716ee4 d4686edb d45f6ed3 d4556eca     .nq..nh..n_..nU.
1a00a0d4:	d44c6ec2 d4436eb9 d43a6eb0 d4316ea8     .nL..nC..n:..n1.
1a00a0e4:	d4286e9f d41e6e97 d4156e8e d40c6e85     .n(..n...n...n..
1a00a0f4:	d4036e7d d3fa6e74 d3f16e6b d3e86e63     }n..tn..kn..cn..
1a00a104:	d3df6e5a d3d56e51 d3cc6e49 d3c36e40     Zn..Qn..In..@n..
1a00a114:	d3ba6e37 d3b16e2f d3a86e26 d39f6e1d     7n../n..&n...n..
1a00a124:	d3966e15 d38d6e0c d3846e03 d37b6dfa     .n...n...n...m{.
1a00a134:	d3726df2 d3696de9 d3606de0 d3576dd7     .mr..mi..m`..mW.
1a00a144:	d34e6dcf d3456dc6 d33c6dbd d3336db4     .mN..mE..m<..m3.
1a00a154:	d32a6dab d3216da3 d3186d9a d30f6d91     .m*..m!..m...m..
1a00a164:	d3066d88 d2fd6d7f d2f46d76 d2eb6d6e     .m...m..vm..nm..
1a00a174:	d2e26d65 d2d96d5c d2d16d53 d2c86d4a     em..\m..Sm..Jm..
1a00a184:	d2bf6d41 d2b66d38 d2ad6d2f d2a46d27     Am..8m../m..'m..
1a00a194:	d29b6d1e d2926d15 d28a6d0c d2816d03     .m...m...m...m..
1a00a1a4:	d2786cfa d26f6cf1 d2666ce8 d25d6cdf     .lx..lo..lf..l].
1a00a1b4:	d2556cd6 d24c6ccd d2436cc4 d23a6cbb     .lU..lL..lC..l:.
1a00a1c4:	d2316cb2 d2296ca9 d2206ca0 d2176c97     .l1..l)..l ..l..
1a00a1d4:	d20e6c8e d2066c85 d1fd6c7c d1f46c73     .l...l..|l..sl..
1a00a1e4:	d1eb6c6a d1e36c61 d1da6c58 d1d16c4f     jl..al..Xl..Ol..
1a00a1f4:	d1c96c46 d1c06c3d d1b76c34 d1af6c2b     Fl..=l..4l..+l..
1a00a204:	d1a66c21 d19d6c18 d1956c0f d18c6c06     !l...l...l...l..
1a00a214:	d1836bfd d17b6bf4 d1726beb d1696be2     .k...k{..kr..ki.
1a00a224:	d1616bd8 d1586bcf d1506bc6 d1476bbd     .ka..kX..kP..kG.
1a00a234:	d13e6bb4 d1366bab d12d6ba1 d1256b98     .k>..k6..k-..k%.
1a00a244:	d11c6b8f d1146b86 d10b6b7d d1036b73     .k...k..}k..sk..
1a00a254:	d0fa6b6a d0f26b61 d0e96b58 d0e06b4e     jk..ak..Xk..Nk..
1a00a264:	d0d86b45 d0d06b3c d0c76b33 d0bf6b29     Ek..<k..3k..)k..
1a00a274:	d0b66b20 d0ae6b17 d0a56b0d d09d6b04      k...k...k...k..
1a00a284:	d0946afb d08c6af2 d0836ae8 d07b6adf     .j...j...j...j{.
1a00a294:	d0736ad6 d06a6acc d0626ac3 d0596ab9     .js..jj..jb..jY.
1a00a2a4:	d0516ab0 d0496aa7 d0406a9d d0386a94     .jQ..jI..j@..j8.
1a00a2b4:	d0306a8b d0276a81 d01f6a78 d0166a6e     .j0..j'.xj..nj..
1a00a2c4:	d00e6a65 d0066a5c cffe6a52 cff56a49     ej..\j..Rj..Ij..
1a00a2d4:	cfed6a3f cfe56a36 cfdc6a2c cfd46a23     ?j..6j..,j..#j..
1a00a2e4:	cfcc6a1a cfc46a10 cfbb6a07 cfb369fd     .j...j...j...i..
1a00a2f4:	cfab69f4 cfa369ea cf9a69e1 cf9269d7     .i...i...i...i..
1a00a304:	cf8a69ce cf8269c4 cf7969bb cf7169b1     .i...i...iy..iq.
1a00a314:	cf6969a7 cf61699e cf596994 cf51698b     .ii..ia..iY..iQ.
1a00a324:	cf486981 cf406978 cf38696e cf306965     .iH.xi@.ni8.ei0.
1a00a334:	cf28695b cf206951 cf186948 cf10693e     [i(.Qi .Hi..>i..
1a00a344:	cf076935 ceff692b cef76921 ceef6918     5i..+i..!i...i..
1a00a354:	cee7690e cedf6904 ced768fb cecf68f1     .i...i...h...h..
1a00a364:	cec768e7 cebf68de ceb768d4 ceaf68ca     .h...h...h...h..
1a00a374:	cea768c1 ce9f68b7 ce9768ad ce8f68a4     .h...h...h...h..
1a00a384:	ce87689a ce7f6890 ce776886 ce6f687d     .h...h...hw.}ho.
1a00a394:	ce676873 ce5f6869 ce576860 ce4f6856     shg.ih_.`hW.VhO.
1a00a3a4:	ce47684c ce406842 ce386838 ce30682f     LhG.Bh@.8h8./h0.
1a00a3b4:	ce286825 ce20681b ce186811 ce106808     %h(..h ..h...h..
1a00a3c4:	ce0867fe ce0167f4 cdf967ea cdf167e0     .g...g...g...g..
1a00a3d4:	cde967d6 cde167cd cdd967c3 cdd267b9     .g...g...g...g..
1a00a3e4:	cdca67af cdc267a5 cdba679b cdb26791     .g...g...g...g..
1a00a3f4:	cdab6788 cda3677e cd9b6774 cd93676a     .g..~g..tg..jg..
1a00a404:	cd8c6760 cd846756 cd7c674c cd756742     `g..Vg..Lg|.Bgu.
1a00a414:	cd6d6738 cd65672e cd5d6724 cd56671a     8gm..ge.$g]..gV.
1a00a424:	cd4e6711 cd466707 cd3f66fd cd3766f3     .gN..gF..f?..f7.
1a00a434:	cd3066e9 cd2866df cd2066d5 cd1966cb     .f0..f(..f ..f..
1a00a444:	cd1166c1 cd0966b7 cd0266ad ccfa66a3     .f...f...f...f..
1a00a454:	ccf36699 cceb668f cce36685 ccdc667b     .f...f...f..{f..
1a00a464:	ccd46671 cccd6666 ccc5665c ccbe6652     qf..ff..\f..Rf..
1a00a474:	ccb66648 ccaf663e cca76634 cca0662a     Hf..>f..4f..*f..
1a00a484:	cc986620 cc916616 cc89660c cc826602      f...f...f...f..
1a00a494:	cc7a65f8 cc7365ed cc6b65e3 cc6465d9     .ez..es..ek..ed.
1a00a4a4:	cc5d65cf cc5565c5 cc4e65bb cc4665b1     .e]..eU..eN..eF.
1a00a4b4:	cc3f65a6 cc38659c cc306592 cc296588     .e?..e8..e0..e).
1a00a4c4:	cc21657e cc1a6574 cc136569 cc0b655f     ~e!.te..ie.._e..
1a00a4d4:	cc046555 cbfd654b cbf56541 cbee6536     Ue..Ke..Ae..6e..
1a00a4e4:	cbe7652c cbe06522 cbd86518 cbd1650d     ,e.."e...e...e..
1a00a4f4:	cbca6503 cbc264f9 cbbb64ef cbb464e4     .e...d...d...d..
1a00a504:	cbad64da cba564d0 cb9e64c5 cb9764bb     .d...d...d...d..
1a00a514:	cb9064b1 cb8964a7 cb81649c cb7a6492     .d...d...d...dz.
1a00a524:	cb736488 cb6c647d cb656473 cb5e6469     .ds.}dl.sde.id^.
1a00a534:	cb56645e cb4f6454 cb48644a cb41643f     ^dV.TdO.JdH.?dA.
1a00a544:	cb3a6435 cb33642b cb2c6420 cb256416     5d:.+d3. d,..d%.
1a00a554:	cb1e640b cb166401 cb0f63f7 cb0863ec     .d...d...c...c..
1a00a564:	cb0163e2 cafa63d7 caf363cd caec63c3     .c...c...c...c..
1a00a574:	cae563b8 cade63ae cad763a3 cad06399     .c...c...c...c..
1a00a584:	cac9638e cac26384 cabb637a cab4636f     .c...c..zc..oc..
1a00a594:	caad6365 caa6635a ca9f6350 ca996345     ec..Zc..Pc..Ec..
1a00a5a4:	ca92633b ca8b6330 ca846326 ca7d631b     ;c..0c..&c...c}.
1a00a5b4:	ca766311 ca6f6306 ca6862fc ca6162f1     .cv..co..bh..ba.
1a00a5c4:	ca5b62e7 ca5462dc ca4d62d2 ca4662c7     .b[..bT..bM..bF.
1a00a5d4:	ca3f62bc ca3862b2 ca3262a7 ca2b629d     .b?..b8..b2..b+.
1a00a5e4:	ca246292 ca1d6288 ca16627d ca106272     .b$..b..}b..rb..
1a00a5f4:	ca096268 ca02625d c9fb6253 c9f56248     hb..]b..Sb..Hb..
1a00a604:	c9ee623d c9e76233 c9e06228 c9da621e     =b..3b..(b...b..
1a00a614:	c9d36213 c9cc6208 c9c661fe c9bf61f3     .b...b...a...a..
1a00a624:	c9b861e8 c9b261de c9ab61d3 c9a461c8     .a...a...a...a..
1a00a634:	c99e61be c99761b3 c99161a8 c98a619e     .a...a...a...a..
1a00a644:	c9836193 c97d6188 c976617d c9706173     .a...a}.}av.sap.
1a00a654:	c9696168 c963615d c95c6153 c9556148     hai.]ac.Sa\.HaU.
1a00a664:	c94f613d c9486132 c9426128 c93b611d     =aO.2aH.(aB..a;.
1a00a674:	c9356112 c92e6107 c92860fd c92160f2     .a5..a...`(..`!.
1a00a684:	c91b60e7 c91560dc c90e60d1 c90860c7     .`...`...`...`..
1a00a694:	c90160bc c8fb60b1 c8f460a6 c8ee609b     .`...`...`...`..
1a00a6a4:	c8e86091 c8e16086 c8db607b c8d46070     .`...`..{`..p`..
1a00a6b4:	c8ce6065 c8c8605b c8c16050 c8bb6045     e`..[`..P`..E`..
1a00a6c4:	c8b5603a c8ae602f c8a86024 c8a26019     :`../`..$`...`..
1a00a6d4:	c89b600f c8956004 c88f5ff9 c8895fee     .`...`..._..._..
1a00a6e4:	c8825fe3 c87c5fd8 c8765fcd c8705fc2     ._..._|.._v.._p.
1a00a6f4:	c8695fb7 c8635fac c85d5fa2 c8575f97     ._i.._c.._].._W.
1a00a704:	c8505f8c c84a5f81 c8445f76 c83e5f6b     ._P.._J.v_D.k_>.
1a00a714:	c8385f60 c8325f55 c82b5f4a c8255f3f     `_8.U_2.J_+.?_%.
1a00a724:	c81f5f34 c8195f29 c8135f1e c80d5f13     4_..)_..._..._..
1a00a734:	c8075f08 c8015efd c7fb5ef2 c7f55ee7     ._...^...^...^..
1a00a744:	c7ee5edc c7e85ed1 c7e25ec6 c7dc5ebb     .^...^...^...^..
1a00a754:	c7d65eb0 c7d05ea5 c7ca5e9a c7c45e8f     .^...^...^...^..
1a00a764:	c7be5e84 c7b85e79 c7b25e6e c7ac5e63     .^..y^..n^..c^..
1a00a774:	c7a65e58 c7a05e4d c79a5e42 c7955e36     X^..M^..B^..6^..
1a00a784:	c78f5e2b c7895e20 c7835e15 c77d5e0a     +^.. ^...^...^}.
1a00a794:	c7775dff c7715df4 c76b5de9 c7655dde     .]w..]q..]k..]e.
1a00a7a4:	c75f5dd3 c75a5dc7 c7545dbc c74e5db1     .]_..]Z..]T..]N.
1a00a7b4:	c7485da6 c7425d9b c73d5d90 c7375d85     .]H..]B..]=..]7.
1a00a7c4:	c7315d79 c72b5d6e c7255d63 c7205d58     y]1.n]+.c]%.X] .
1a00a7d4:	c71a5d4d c7145d42 c70e5d36 c7095d2b     M]..B]..6]..+]..
1a00a7e4:	c7035d20 c6fd5d15 c6f75d0a c6f25cff      ]...]...]...\..
1a00a7f4:	c6ec5cf3 c6e65ce8 c6e15cdd c6db5cd2     .\...\...\...\..
1a00a804:	c6d55cc6 c6d05cbb c6ca5cb0 c6c55ca5     .\...\...\...\..
1a00a814:	c6bf5c99 c6b95c8e c6b45c83 c6ae5c78     .\...\...\..x\..
1a00a824:	c6a85c6c c6a35c61 c69d5c56 c6985c4b     l\..a\..V\..K\..
1a00a834:	c6925c3f c68d5c34 c6875c29 c6825c1e     ?\..4\..)\...\..
1a00a844:	c67c5c12 c6775c07 c6715bfc c66c5bf0     .\|..\w..[q..[l.
1a00a854:	c6665be5 c6615bda c65b5bce c6565bc3     .[f..[a..[[..[V.
1a00a864:	c6505bb8 c64b5bac c6455ba1 c6405b96     .[P..[K..[E..[@.
1a00a874:	c63b5b8a c6355b7f c6305b74 c62a5b68     .[;..[5.t[0.h[*.
1a00a884:	c6255b5d c6205b52 c61a5b46 c6155b3b     ][%.R[ .F[..;[..
1a00a894:	c6105b30 c60a5b24 c6055b19 c6005b0d     0[..$[...[...[..
1a00a8a4:	c5fa5b02 c5f55af7 c5f05aeb c5ea5ae0     .[...Z...Z...Z..
1a00a8b4:	c5e55ad4 c5e05ac9 c5db5abe c5d55ab2     .Z...Z...Z...Z..
1a00a8c4:	c5d05aa7 c5cb5a9b c5c65a90 c5c15a84     .Z...Z...Z...Z..
1a00a8d4:	c5bb5a79 c5b65a6e c5b15a62 c5ac5a57     yZ..nZ..bZ..WZ..
1a00a8e4:	c5a75a4b c5a15a40 c59c5a34 c5975a29     KZ..@Z..4Z..)Z..
1a00a8f4:	c5925a1d c58d5a12 c5885a06 c58359fb     .Z...Z...Z...Y..
1a00a904:	c57e59ef c57859e4 c57359d8 c56e59cd     .Y~..Yx..Ys..Yn.
1a00a914:	c56959c1 c56459b6 c55f59aa c55a599f     .Yi..Yd..Y_..YZ.
1a00a924:	c5555993 c5505988 c54b597c c5465971     .YU..YP.|YK.qYF.
1a00a934:	c5415965 c53c595a c537594e c5325943     eYA.ZY<.NY7.CY2.
1a00a944:	c52d5937 c528592c c5235920 c51e5914     7Y-.,Y(. Y#..Y..
1a00a954:	c51a5909 c51558fd c51058f2 c50b58e6     .Y...X...X...X..
1a00a964:	c50658db c50158cf c4fc58c3 c4f758b8     .X...X...X...X..
1a00a974:	c4f258ac c4ee58a1 c4e95895 c4e45889     .X...X...X...X..
1a00a984:	c4df587e c4da5872 c4d65867 c4d1585b     ~X..rX..gX..[X..
1a00a994:	c4cc584f c4c75844 c4c25838 c4be582d     OX..DX..8X..-X..
1a00a9a4:	c4b95821 c4b45815 c4b0580a c4ab57fe     !X...X...X...W..
1a00a9b4:	c4a657f2 c4a157e7 c49d57db c49857cf     .W...W...W...W..
1a00a9c4:	c49357c4 c48f57b8 c48a57ac c48557a1     .W...W...W...W..
1a00a9d4:	c4815795 c47c5789 c478577e c4735772     .W...W|.~Wx.rWs.
1a00a9e4:	c46e5766 c46a575b c465574f c4615743     fWn.[Wj.OWe.CWa.
1a00a9f4:	c45c5737 c457572c c4535720 c44e5714     7W\.,WW. WS..WN.
1a00aa04:	c44a5709 c44556fd c44156f1 c43c56e5     .WJ..VE..VA..V<.
1a00aa14:	c43856da c43356ce c42f56c2 c42a56b6     .V8..V3..V/..V*.
1a00aa24:	c42656ab c422569f c41d5693 c4195687     .V&..V"..V...V..
1a00aa34:	c414567c c4105670 c40b5664 c4075658     |V..pV..dV..XV..
1a00aa44:	c403564c c3fe5641 c3fa5635 c3f65629     LV..AV..5V..)V..
1a00aa54:	c3f1561d c3ed5612 c3e95606 c3e455fa     .V...V...V...U..
1a00aa64:	c3e055ee c3dc55e2 c3d755d7 c3d355cb     .U...U...U...U..
1a00aa74:	c3cf55bf c3ca55b3 c3c655a7 c3c2559b     .U...U...U...U..
1a00aa84:	c3be5590 c3ba5584 c3b55578 c3b1556c     .U...U..xU..lU..
1a00aa94:	c3ad5560 c3a95554 c3a55549 c3a0553d     `U..TU..IU..=U..
1a00aaa4:	c39c5531 c3985525 c3945519 c390550d     1U..%U...U...U..
1a00aab4:	c38c5501 c38754f6 c38354ea c37f54de     .U...T...T...T..
1a00aac4:	c37b54d2 c37754c6 c37354ba c36f54ae     .T{..Tw..Ts..To.
1a00aad4:	c36b54a2 c3675496 c363548b c35f547f     .Tk..Tg..Tc..T_.
1a00aae4:	c35b5473 c3575467 c353545b c34f544f     sT[.gTW.[TS.OTO.
1a00aaf4:	c34b5443 c3475437 c343542b c33f541f     CTK.7TG.+TC..T?.
1a00ab04:	c33b5413 c3375407 c33353fb c32f53f0     .T;..T7..S3..S/.
1a00ab14:	c32b53e4 c32753d8 c32353cc c32053c0     .S+..S'..S#..S .
1a00ab24:	c31c53b4 c31853a8 c314539c c3105390     .S...S...S...S..
1a00ab34:	c30c5384 c3085378 c305536c c3015360     .S..xS..lS..`S..
1a00ab44:	c2fd5354 c2f95348 c2f5533c c2f25330     TS..HS..<S..0S..
1a00ab54:	c2ee5324 c2ea5318 c2e6530c c2e35300     $S...S...S...S..
1a00ab64:	c2df52f4 c2db52e8 c2d852dc c2d452d0     .R...R...R...R..
1a00ab74:	c2d052c4 c2cc52b8 c2c952ac c2c552a0     .R...R...R...R..
1a00ab84:	c2c15294 c2be5288 c2ba527c c2b75270     .R...R..|R..pR..
1a00ab94:	c2b35264 c2af5258 c2ac524c c2a85240     dR..XR..LR..@R..
1a00aba4:	c2a55234 c2a15228 c29d521c c29a5210     4R..(R...R...R..
1a00abb4:	c2965204 c29351f7 c28f51eb c28c51df     .R...Q...Q...Q..
1a00abc4:	c28851d3 c28551c7 c28151bb c27e51af     .Q...Q...Q...Q~.
1a00abd4:	c27a51a3 c2775197 c273518b c270517f     .Qz..Qw..Qs..Qp.
1a00abe4:	c26d5173 c2695167 c266515a c262514e     sQm.gQi.ZQf.NQb.
1a00abf4:	c25f5142 c25c5136 c258512a c255511e     BQ_.6Q\.*QX..QU.
1a00ac04:	c2515112 c24e5106 c24b50fa c24750ed     .QQ..QN..PK..PG.
1a00ac14:	c24450e1 c24150d5 c23e50c9 c23a50bd     .PD..PA..P>..P:.
1a00ac24:	c23750b1 c23450a5 c2305099 c22d508c     .P7..P4..P0..P-.
1a00ac34:	c22a5080 c2275074 c2235068 c220505c     .P*.tP'.hP#.\P .
1a00ac44:	c21d5050 c21a5044 c2175037 c213502b     PP..DP..7P..+P..
1a00ac54:	c210501f c20d5013 c20a5007 c2074ffb     .P...P...P...O..
1a00ac64:	c2044fee c2014fe2 c1fd4fd6 c1fa4fca     .O...O...O...O..
1a00ac74:	c1f74fbe c1f44fb2 c1f14fa5 c1ee4f99     .O...O...O...O..
1a00ac84:	c1eb4f8d c1e84f81 c1e54f75 c1e24f68     .O...O..uO..hO..
1a00ac94:	c1df4f5c c1dc4f50 c1d94f44 c1d64f38     \O..PO..DO..8O..
1a00aca4:	c1d34f2b c1d04f1f c1cd4f13 c1ca4f07     +O...O...O...O..
1a00acb4:	c1c74efb c1c44eee c1c14ee2 c1be4ed6     .N...N...N...N..
1a00acc4:	c1bb4eca c1b84ebd c1b64eb1 c1b34ea5     .N...N...N...N..
1a00acd4:	c1b04e99 c1ad4e8c c1aa4e80 c1a74e74     .N...N...N..tN..
1a00ace4:	c1a44e68 c1a24e5c c19f4e4f c19c4e43     hN..\N..ON..CN..
1a00acf4:	c1994e37 c1964e2b c1944e1e c1914e12     7N..+N...N...N..
1a00ad04:	c18e4e06 c18b4df9 c1894ded c1864de1     .N...M...M...M..
1a00ad14:	c1834dd5 c1804dc8 c17e4dbc c17b4db0     .M...M...M~..M{.
1a00ad24:	c1784da4 c1764d97 c1734d8b c1704d7f     .Mx..Mv..Ms..Mp.
1a00ad34:	c16e4d72 c16b4d66 c1684d5a c1664d4e     rMn.fMk.ZMh.NMf.
1a00ad44:	c1634d41 c1614d35 c15e4d29 c15b4d1c     AMc.5Ma.)M^..M[.
1a00ad54:	c1594d10 c1564d04 c1544cf8 c1514ceb     .MY..MV..LT..LQ.
1a00ad64:	c14f4cdf c14c4cd3 c14a4cc6 c1474cba     .LO..LL..LJ..LG.
1a00ad74:	c1454cae c1424ca1 c1404c95 c13d4c89     .LE..LB..L@..L=.
1a00ad84:	c13b4c7c c1384c70 c1364c64 c1344c57     |L;.pL8.dL6.WL4.
1a00ad94:	c1314c4b c12f4c3f c12c4c32 c12a4c26     KL1.?L/.2L,.&L*.
1a00ada4:	c1284c1a c1254c0d c1234c01 c1204bf5     .L(..L%..L#..K .
1a00adb4:	c11e4be8 c11c4bdc c1194bd0 c1174bc3     .K...K...K...K..
1a00adc4:	c1154bb7 c1134bab c1104b9e c10e4b92     .K...K...K...K..
1a00add4:	c10c4b85 c1094b79 c1074b6d c1054b60     .K..yK..mK..`K..
1a00ade4:	c1034b54 c1004b48 c0fe4b3b c0fc4b2f     TK..HK..;K../K..
1a00adf4:	c0fa4b23 c0f84b16 c0f64b0a c0f34afd     #K...K...K...J..
1a00ae04:	c0f14af1 c0ef4ae5 c0ed4ad8 c0eb4acc     .J...J...J...J..
1a00ae14:	c0e94ac0 c0e74ab3 c0e44aa7 c0e24a9a     .J...J...J...J..
1a00ae24:	c0e04a8e c0de4a82 c0dc4a75 c0da4a69     .J...J..uJ..iJ..
1a00ae34:	c0d84a5c c0d64a50 c0d44a44 c0d24a37     \J..PJ..DJ..7J..
1a00ae44:	c0d04a2b c0ce4a1e c0cc4a12 c0ca4a06     +J...J...J...J..
1a00ae54:	c0c849f9 c0c649ed c0c449e0 c0c249d4     .I...I...I...I..
1a00ae64:	c0c049c7 c0be49bb c0bd49af c0bb49a2     .I...I...I...I..
1a00ae74:	c0b94996 c0b74989 c0b5497d c0b34970     .I...I..}I..pI..
1a00ae84:	c0b14964 c0af4958 c0ae494b c0ac493f     dI..XI..KI..?I..
1a00ae94:	c0aa4932 c0a84926 c0a64919 c0a5490d     2I..&I...I...I..
1a00aea4:	c0a34901 c0a148f4 c09f48e8 c09e48db     .I...H...H...H..
1a00aeb4:	c09c48cf c09a48c2 c09848b6 c09748a9     .H...H...H...H..
1a00aec4:	c095489d c0934891 c0924884 c0904878     .H...H...H..xH..
1a00aed4:	c08e486b c08d485f c08b4852 c0894846     kH.._H..RH..FH..
1a00aee4:	c0884839 c086482d c0854820 c0834814     9H..-H.. H...H..
1a00aef4:	c0814807 c08047fb c07e47ef c07d47e2     .H...G...G~..G}.
1a00af04:	c07b47d6 c07a47c9 c07847bd c07747b0     .G{..Gz..Gx..Gw.
1a00af14:	c07547a4 c0744797 c072478b c071477e     .Gu..Gt..Gr.~Gq.
1a00af24:	c06f4772 c06e4765 c06c4759 c06b474c     rGo.eGn.YGl.LGk.
1a00af34:	c0694740 c0684733 c0674727 c065471a     @Gi.3Gh.'Gg..Ge.
1a00af44:	c064470e c0624701 c06146f5 c06046e8     .Gd..Gb..Fa..F`.
1a00af54:	c05e46dc c05d46cf c05c46c3 c05a46b6     .F^..F]..F\..FZ.
1a00af64:	c05946aa c058469d c0564691 c0554684     .FY..FX..FV..FU.
1a00af74:	c0544678 c053466b c051465f c0504652     xFT.kFS._FQ.RFP.
1a00af84:	c04f4646 c04e4639 c04c462d c04b4620     FFO.9FN.-FL. FK.
1a00af94:	c04a4614 c0494607 c04845fb c04745ee     .FJ..FI..EH..EG.
1a00afa4:	c04545e2 c04445d5 c04345c9 c04245bc     .EE..ED..EC..EB.
1a00afb4:	c04145b0 c04045a3 c03f4597 c03d458a     .EA..E@..E?..E=.
1a00afc4:	c03c457e c03b4571 c03a4565 c0394558     ~E<.qE;.eE:.XE9.
1a00afd4:	c038454c c037453f c0364533 c0354526     LE8.?E7.3E6.&E5.
1a00afe4:	c034451a c033450d c0324500 c03144f4     .E4..E3..E2..D1.
1a00aff4:	c03044e7 c02f44db c02e44ce c02d44c2     .D0..D/..D...D-.
1a00b004:	c02c44b5 c02b44a9 c02b449c c02a4490     .D,..D+..D+..D*.
1a00b014:	c0294483 c0284477 c027446a c026445e     .D).wD(.jD'.^D&.
1a00b024:	c0254451 c0244444 c0244438 c023442b     QD%.DD$.8D$.+D#.
1a00b034:	c022441f c0214412 c0204406 c02043f9     .D"..D!..D ..C .
1a00b044:	c01f43ed c01e43e0 c01d43d4 c01d43c7     .C...C...C...C..
1a00b054:	c01c43bb c01b43ae c01a43a1 c01a4395     .C...C...C...C..
1a00b064:	c0194388 c018437c c018436f c0174363     .C..|C..oC..cC..
1a00b074:	c0164356 c016434a c015433d c0144330     VC..JC..=C..0C..
1a00b084:	c0144324 c0134317 c013430b c01242fe     $C...C...C...B..
1a00b094:	c01142f2 c01142e5 c01042d9 c01042cc     .B...B...B...B..
1a00b0a4:	c00f42c0 c00f42b3 c00e42a6 c00e429a     .B...B...B...B..
1a00b0b4:	c00d428d c00d4281 c00c4274 c00c4268     .B...B..tB..hB..
1a00b0c4:	c00b425b c00b424e c00a4242 c00a4235     [B..NB..BB..5B..
1a00b0d4:	c0094229 c009421c c0094210 c0084203     )B...B...B...B..
1a00b0e4:	c00841f7 c00741ea c00741dd c00741d1     .A...A...A...A..
1a00b0f4:	c00641c4 c00641b8 c00641ab c005419f     .A...A...A...A..
1a00b104:	c0054192 c0054186 c0044179 c004416c     .A...A..yA..lA..
1a00b114:	c0044160 c0044153 c0034147 c003413a     `A..SA..GA..:A..
1a00b124:	c003412e c0034121 c0024114 c0024108     .A..!A...A...A..
1a00b134:	c00240fb c00240ef c00240e2 c00140d6     .@...@...@...@..
1a00b144:	c00140c9 c00140bc c00140b0 c00140a3     .@...@...@...@..
1a00b154:	c0014097 c001408a c000407e c0004071     .@...@..~@..q@..
1a00b164:	c0004065 c0004058 c000404b c000403f     e@..X@..K@..?@..
1a00b174:	c0004032 c0004026 c0004019 c000400d     2@..&@...@...@..

1a00b184 <arm_cfft_sR_q15_len256>:
1a00b184:	00000100 1a013f04 1a014d8c 000000f0     .....?...M......

1a00b194 <arm_cfft_sR_q15_len128>:
1a00b194:	00000080 1a014bdc 1a00b214 00000070     .....K......p...

1a00b1a4 <arm_cfft_sR_q15_len512>:
1a00b1a4:	00000200 1a014204 1a014804 000001e0     .....B...H......

1a00b1b4 <arm_cfft_sR_q15_len1024>:
1a00b1b4:	00000400 1a00e9b4 1a00e1f4 000003e0     ................

1a00b1c4 <arm_cfft_sR_q15_len64>:
1a00b1c4:	00000040 1a012644 1a014f6c 00000038     @...D&..lO..8...

1a00b1d4 <arm_cfft_sR_q15_len2048>:
1a00b1d4:	00000800 1a012704 1a00b2f4 000007c0     .....'..........

1a00b1e4 <arm_cfft_sR_q15_len4096>:
1a00b1e4:	00001000 1a00f614 1a00c274 00000fc0     ........t.......

1a00b1f4 <arm_cfft_sR_q15_len16>:
1a00b1f4:	00000010 1a012614 1a014bc4 0000000c     .....&...K......

1a00b204 <arm_cfft_sR_q15_len32>:
1a00b204:	00000020 1a00f5b4 1a014d5c 00000018      .......\M......

1a00b214 <armBitRevIndexTable_fixed_128>:
1a00b214:	02000008 01000010 03000018 00800020     ............ ...
1a00b224:	02800028 01800030 03800038 02400048     (...0...8...H.@.
1a00b234:	01400050 03400058 00c00060 02c00068     P.@.X.@.`...h...
1a00b244:	01c00070 03c00078 02200088 01200090     p...x..... ... .
1a00b254:	03200098 02a000a8 01a000b0 03a000b8     .. .............
1a00b264:	026000c8 016000d0 036000d8 02e000e8     ..`...`...`.....
1a00b274:	01e000f0 03e000f8 02100108 03100118     ................
1a00b284:	02900128 01900130 03900138 02500148     (...0...8...H.P.
1a00b294:	03500158 02d00168 01d00170 03d00178     X.P.h...p...x...
1a00b2a4:	02300188 03300198 02b001a8 03b001b8     ..0...0.........
1a00b2b4:	027001c8 037001d8 02f001e8 03f001f8     ..p...p.........
1a00b2c4:	03080218 02880228 03880238 03480258     ....(...8...X.H.
1a00b2d4:	02c80268 03c80278 03280298 03a802b8     h...x.....(.....
1a00b2e4:	036802d8 03e802f8 03980338 03d80378     ..h.....8...x...

1a00b2f4 <armBitRevIndexTable_fixed_2048>:
1a00b2f4:	20000008 10000010 30000018 08000020     ... .......0 ...
1a00b304:	28000028 18000030 38000038 04000040     (..(0...8..8@...
1a00b314:	24000048 14000050 34000058 0c000060     H..$P...X..4`...
1a00b324:	2c000068 1c000070 3c000078 02000080     h..,p...x..<....
1a00b334:	22000088 12000090 32000098 0a0000a0     ...".......2....
1a00b344:	2a0000a8 1a0000b0 3a0000b8 060000c0     ...*.......:....
1a00b354:	260000c8 160000d0 360000d8 0e0000e0     ...&.......6....
1a00b364:	2e0000e8 1e0000f0 3e0000f8 21000108     ...........>...!
1a00b374:	11000110 31000118 09000120 29000128     .......1 ...(..)
1a00b384:	19000130 39000138 05000140 25000148     0...8..9@...H..%
1a00b394:	15000150 35000158 0d000160 2d000168     P...X..5`...h..-
1a00b3a4:	1d000170 3d000178 03000180 23000188     p...x..=.......#
1a00b3b4:	13000190 33000198 0b0001a0 2b0001a8     .......3.......+
1a00b3c4:	1b0001b0 3b0001b8 070001c0 270001c8     .......;.......'
1a00b3d4:	170001d0 370001d8 0f0001e0 2f0001e8     .......7......./
1a00b3e4:	1f0001f0 3f0001f8 20800208 10800210     .......?... ....
1a00b3f4:	30800218 08800220 28800228 18800230     ...0 ...(..(0...
1a00b404:	38800238 04800240 24800248 14800250     8..8@...H..$P...
1a00b414:	34800258 0c800260 2c800268 1c800270     X..4`...h..,p...
1a00b424:	3c800278 22800288 12800290 32800298     x..<...".......2
1a00b434:	0a8002a0 2a8002a8 1a8002b0 3a8002b8     .......*.......:
1a00b444:	068002c0 268002c8 168002d0 368002d8     .......&.......6
1a00b454:	0e8002e0 2e8002e8 1e8002f0 3e8002f8     ...............>
1a00b464:	21800308 11800310 31800318 09800320     ...!.......1 ...
1a00b474:	29800328 19800330 39800338 05800340     (..)0...8..9@...
1a00b484:	25800348 15800350 35800358 0d800360     H..%P...X..5`...
1a00b494:	2d800368 1d800370 3d800378 23800388     h..-p...x..=...#
1a00b4a4:	13800390 33800398 0b8003a0 2b8003a8     .......3.......+
1a00b4b4:	1b8003b0 3b8003b8 078003c0 278003c8     .......;.......'
1a00b4c4:	178003d0 378003d8 0f8003e0 2f8003e8     .......7......./
1a00b4d4:	1f8003f0 3f8003f8 20400408 10400410     .......?..@ ..@.
1a00b4e4:	30400418 08400420 28400428 18400430     ..@0 .@.(.@(0.@.
1a00b4f4:	38400438 24400448 14400450 34400458     8.@8H.@$P.@.X.@4
1a00b504:	0c400460 2c400468 1c400470 3c400478     `.@.h.@,p.@.x.@<
1a00b514:	22400488 12400490 32400498 0a4004a0     ..@"..@...@2..@.
1a00b524:	2a4004a8 1a4004b0 3a4004b8 064004c0     ..@*..@...@:..@.
1a00b534:	264004c8 164004d0 364004d8 0e4004e0     ..@&..@...@6..@.
1a00b544:	2e4004e8 1e4004f0 3e4004f8 21400508     ..@...@...@>..@!
1a00b554:	11400510 31400518 09400520 29400528     ..@...@1 .@.(.@)
1a00b564:	19400530 39400538 25400548 15400550     0.@.8.@9H.@%P.@.
1a00b574:	35400558 0d400560 2d400568 1d400570     X.@5`.@.h.@-p.@.
1a00b584:	3d400578 23400588 13400590 33400598     x.@=..@#..@...@3
1a00b594:	0b4005a0 2b4005a8 1b4005b0 3b4005b8     ..@...@+..@...@;
1a00b5a4:	074005c0 274005c8 174005d0 374005d8     ..@...@'..@...@7
1a00b5b4:	0f4005e0 2f4005e8 1f4005f0 3f4005f8     ..@...@/..@...@?
1a00b5c4:	20c00608 10c00610 30c00618 08c00620     ... .......0 ...
1a00b5d4:	28c00628 18c00630 38c00638 24c00648     (..(0...8..8H..$
1a00b5e4:	14c00650 34c00658 0cc00660 2cc00668     P...X..4`...h..,
1a00b5f4:	1cc00670 3cc00678 22c00688 12c00690     p...x..<..."....
1a00b604:	32c00698 0ac006a0 2ac006a8 1ac006b0     ...2.......*....
1a00b614:	3ac006b8 26c006c8 16c006d0 36c006d8     ...:...&.......6
1a00b624:	0ec006e0 2ec006e8 1ec006f0 3ec006f8     ...............>
1a00b634:	21c00708 11c00710 31c00718 09c00720     ...!.......1 ...
1a00b644:	29c00728 19c00730 39c00738 25c00748     (..)0...8..9H..%
1a00b654:	15c00750 35c00758 0dc00760 2dc00768     P...X..5`...h..-
1a00b664:	1dc00770 3dc00778 23c00788 13c00790     p...x..=...#....
1a00b674:	33c00798 0bc007a0 2bc007a8 1bc007b0     ...3.......+....
1a00b684:	3bc007b8 27c007c8 17c007d0 37c007d8     ...;...'.......7
1a00b694:	0fc007e0 2fc007e8 1fc007f0 3fc007f8     ......./.......?
1a00b6a4:	20200808 10200810 30200818 28200828     ..  .. ... 0(. (
1a00b6b4:	18200830 38200838 24200848 14200850     0. .8. 8H. $P. .
1a00b6c4:	34200858 0c200860 2c200868 1c200870     X. 4`. .h. ,p. .
1a00b6d4:	3c200878 22200888 12200890 32200898     x. <.. ".. ... 2
1a00b6e4:	0a2008a0 2a2008a8 1a2008b0 3a2008b8     .. ... *.. ... :
1a00b6f4:	262008c8 162008d0 362008d8 0e2008e0     .. &.. ... 6.. .
1a00b704:	2e2008e8 1e2008f0 3e2008f8 21200908     .. ... ... >.. !
1a00b714:	11200910 31200918 29200928 19200930     .. ... 1(. )0. .
1a00b724:	39200938 25200948 15200950 35200958     8. 9H. %P. .X. 5
1a00b734:	0d200960 2d200968 1d200970 3d200978     `. .h. -p. .x. =
1a00b744:	23200988 13200990 33200998 0b2009a0     .. #.. ... 3.. .
1a00b754:	2b2009a8 1b2009b0 3b2009b8 272009c8     .. +.. ... ;.. '
1a00b764:	172009d0 372009d8 0f2009e0 2f2009e8     .. ... 7.. ... /
1a00b774:	1f2009f0 3f2009f8 20a00a08 10a00a10     .. ... ?... ....
1a00b784:	30a00a18 28a00a28 18a00a30 38a00a38     ...0(..(0...8..8
1a00b794:	24a00a48 14a00a50 34a00a58 0ca00a60     H..$P...X..4`...
1a00b7a4:	2ca00a68 1ca00a70 3ca00a78 22a00a88     h..,p...x..<..."
1a00b7b4:	12a00a90 32a00a98 2aa00aa8 1aa00ab0     .......2...*....
1a00b7c4:	3aa00ab8 26a00ac8 16a00ad0 36a00ad8     ...:...&.......6
1a00b7d4:	0ea00ae0 2ea00ae8 1ea00af0 3ea00af8     ...............>
1a00b7e4:	21a00b08 11a00b10 31a00b18 29a00b28     ...!.......1(..)
1a00b7f4:	19a00b30 39a00b38 25a00b48 15a00b50     0...8..9H..%P...
1a00b804:	35a00b58 0da00b60 2da00b68 1da00b70     X..5`...h..-p...
1a00b814:	3da00b78 23a00b88 13a00b90 33a00b98     x..=...#.......3
1a00b824:	2ba00ba8 1ba00bb0 3ba00bb8 27a00bc8     ...+.......;...'
1a00b834:	17a00bd0 37a00bd8 0fa00be0 2fa00be8     .......7......./
1a00b844:	1fa00bf0 3fa00bf8 20600c08 10600c10     .......?..` ..`.
1a00b854:	30600c18 28600c28 18600c30 38600c38     ..`0(.`(0.`.8.`8
1a00b864:	24600c48 14600c50 34600c58 2c600c68     H.`$P.`.X.`4h.`,
1a00b874:	1c600c70 3c600c78 22600c88 12600c90     p.`.x.`<..`"..`.
1a00b884:	32600c98 2a600ca8 1a600cb0 3a600cb8     ..`2..`*..`...`:
1a00b894:	26600cc8 16600cd0 36600cd8 0e600ce0     ..`&..`...`6..`.
1a00b8a4:	2e600ce8 1e600cf0 3e600cf8 21600d08     ..`...`...`>..`!
1a00b8b4:	11600d10 31600d18 29600d28 19600d30     ..`...`1(.`)0.`.
1a00b8c4:	39600d38 25600d48 15600d50 35600d58     8.`9H.`%P.`.X.`5
1a00b8d4:	2d600d68 1d600d70 3d600d78 23600d88     h.`-p.`.x.`=..`#
1a00b8e4:	13600d90 33600d98 2b600da8 1b600db0     ..`...`3..`+..`.
1a00b8f4:	3b600db8 27600dc8 17600dd0 37600dd8     ..`;..`'..`...`7
1a00b904:	0f600de0 2f600de8 1f600df0 3f600df8     ..`...`/..`...`?
1a00b914:	20e00e08 10e00e10 30e00e18 28e00e28     ... .......0(..(
1a00b924:	18e00e30 38e00e38 24e00e48 14e00e50     0...8..8H..$P...
1a00b934:	34e00e58 2ce00e68 1ce00e70 3ce00e78     X..4h..,p...x..<
1a00b944:	22e00e88 12e00e90 32e00e98 2ae00ea8     ...".......2...*
1a00b954:	1ae00eb0 3ae00eb8 26e00ec8 16e00ed0     .......:...&....
1a00b964:	36e00ed8 2ee00ee8 1ee00ef0 3ee00ef8     ...6...........>
1a00b974:	21e00f08 11e00f10 31e00f18 29e00f28     ...!.......1(..)
1a00b984:	19e00f30 39e00f38 25e00f48 15e00f50     0...8..9H..%P...
1a00b994:	35e00f58 2de00f68 1de00f70 3de00f78     X..5h..-p...x..=
1a00b9a4:	23e00f88 13e00f90 33e00f98 2be00fa8     ...#.......3...+
1a00b9b4:	1be00fb0 3be00fb8 27e00fc8 17e00fd0     .......;...'....
1a00b9c4:	37e00fd8 2fe00fe8 1fe00ff0 3fe00ff8     ...7.../.......?
1a00b9d4:	20101008 30101018 28101028 18101030     ... ...0(..(0...
1a00b9e4:	38101038 24101048 14101050 34101058     8..8H..$P...X..4
1a00b9f4:	2c101068 1c101070 3c101078 22101088     h..,p...x..<..."
1a00ba04:	12101090 32101098 2a1010a8 1a1010b0     .......2...*....
1a00ba14:	3a1010b8 261010c8 161010d0 361010d8     ...:...&.......6
1a00ba24:	2e1010e8 1e1010f0 3e1010f8 21101108     ...........>...!
1a00ba34:	31101118 29101128 19101130 39101138     ...1(..)0...8..9
1a00ba44:	25101148 15101150 35101158 2d101168     H..%P...X..5h..-
1a00ba54:	1d101170 3d101178 23101188 13101190     p...x..=...#....
1a00ba64:	33101198 2b1011a8 1b1011b0 3b1011b8     ...3...+.......;
1a00ba74:	271011c8 171011d0 371011d8 2f1011e8     ...'.......7.../
1a00ba84:	1f1011f0 3f1011f8 20901208 30901218     .......?... ...0
1a00ba94:	28901228 18901230 38901238 24901248     (..(0...8..8H..$
1a00baa4:	14901250 34901258 2c901268 1c901270     P...X..4h..,p...
1a00bab4:	3c901278 22901288 32901298 2a9012a8     x..<..."...2...*
1a00bac4:	1a9012b0 3a9012b8 269012c8 169012d0     .......:...&....
1a00bad4:	369012d8 2e9012e8 1e9012f0 3e9012f8     ...6...........>
1a00bae4:	21901308 31901318 29901328 19901330     ...!...1(..)0...
1a00baf4:	39901338 25901348 15901350 35901358     8..9H..%P...X..5
1a00bb04:	2d901368 1d901370 3d901378 23901388     h..-p...x..=...#
1a00bb14:	33901398 2b9013a8 1b9013b0 3b9013b8     ...3...+.......;
1a00bb24:	279013c8 179013d0 379013d8 2f9013e8     ...'.......7.../
1a00bb34:	1f9013f0 3f9013f8 20501408 30501418     .......?..P ..P0
1a00bb44:	28501428 18501430 38501438 24501448     (.P(0.P.8.P8H.P$
1a00bb54:	34501458 2c501468 1c501470 3c501478     X.P4h.P,p.P.x.P<
1a00bb64:	22501488 32501498 2a5014a8 1a5014b0     ..P"..P2..P*..P.
1a00bb74:	3a5014b8 265014c8 165014d0 365014d8     ..P:..P&..P...P6
1a00bb84:	2e5014e8 1e5014f0 3e5014f8 21501508     ..P...P...P>..P!
1a00bb94:	31501518 29501528 19501530 39501538     ..P1(.P)0.P.8.P9
1a00bba4:	25501548 35501558 2d501568 1d501570     H.P%X.P5h.P-p.P.
1a00bbb4:	3d501578 23501588 33501598 2b5015a8     x.P=..P#..P3..P+
1a00bbc4:	1b5015b0 3b5015b8 275015c8 175015d0     ..P...P;..P'..P.
1a00bbd4:	375015d8 2f5015e8 1f5015f0 3f5015f8     ..P7..P/..P...P?
1a00bbe4:	20d01608 30d01618 28d01628 18d01630     ... ...0(..(0...
1a00bbf4:	38d01638 24d01648 34d01658 2cd01668     8..8H..$X..4h..,
1a00bc04:	1cd01670 3cd01678 22d01688 32d01698     p...x..<..."...2
1a00bc14:	2ad016a8 1ad016b0 3ad016b8 26d016c8     ...*.......:...&
1a00bc24:	36d016d8 2ed016e8 1ed016f0 3ed016f8     ...6...........>
1a00bc34:	21d01708 31d01718 29d01728 19d01730     ...!...1(..)0...
1a00bc44:	39d01738 25d01748 35d01758 2dd01768     8..9H..%X..5h..-
1a00bc54:	1dd01770 3dd01778 23d01788 33d01798     p...x..=...#...3
1a00bc64:	2bd017a8 1bd017b0 3bd017b8 27d017c8     ...+.......;...'
1a00bc74:	37d017d8 2fd017e8 1fd017f0 3fd017f8     ...7.../.......?
1a00bc84:	20301808 30301818 28301828 38301838     ..0 ..00(.0(8.08
1a00bc94:	24301848 34301858 2c301868 1c301870     H.0$X.04h.0,p.0.
1a00bca4:	3c301878 22301888 32301898 2a3018a8     x.0<..0"..02..0*
1a00bcb4:	1a3018b0 3a3018b8 263018c8 363018d8     ..0...0:..0&..06
1a00bcc4:	2e3018e8 1e3018f0 3e3018f8 21301908     ..0...0...0>..0!
1a00bcd4:	31301918 29301928 39301938 25301948     ..01(.0)8.09H.0%
1a00bce4:	35301958 2d301968 1d301970 3d301978     X.05h.0-p.0.x.0=
1a00bcf4:	23301988 33301998 2b3019a8 1b3019b0     ..0#..03..0+..0.
1a00bd04:	3b3019b8 273019c8 373019d8 2f3019e8     ..0;..0'..07..0/
1a00bd14:	1f3019f0 3f3019f8 20b01a08 30b01a18     ..0...0?... ...0
1a00bd24:	28b01a28 38b01a38 24b01a48 34b01a58     (..(8..8H..$X..4
1a00bd34:	2cb01a68 1cb01a70 3cb01a78 22b01a88     h..,p...x..<..."
1a00bd44:	32b01a98 2ab01aa8 3ab01ab8 26b01ac8     ...2...*...:...&
1a00bd54:	36b01ad8 2eb01ae8 1eb01af0 3eb01af8     ...6...........>
1a00bd64:	21b01b08 31b01b18 29b01b28 39b01b38     ...!...1(..)8..9
1a00bd74:	25b01b48 35b01b58 2db01b68 1db01b70     H..%X..5h..-p...
1a00bd84:	3db01b78 23b01b88 33b01b98 2bb01ba8     x..=...#...3...+
1a00bd94:	3bb01bb8 27b01bc8 37b01bd8 2fb01be8     ...;...'...7.../
1a00bda4:	1fb01bf0 3fb01bf8 20701c08 30701c18     .......?..p ..p0
1a00bdb4:	28701c28 38701c38 24701c48 34701c58     (.p(8.p8H.p$X.p4
1a00bdc4:	2c701c68 3c701c78 22701c88 32701c98     h.p,x.p<..p"..p2
1a00bdd4:	2a701ca8 3a701cb8 26701cc8 36701cd8     ..p*..p:..p&..p6
1a00bde4:	2e701ce8 1e701cf0 3e701cf8 21701d08     ..p...p...p>..p!
1a00bdf4:	31701d18 29701d28 39701d38 25701d48     ..p1(.p)8.p9H.p%
1a00be04:	35701d58 2d701d68 3d701d78 23701d88     X.p5h.p-x.p=..p#
1a00be14:	33701d98 2b701da8 3b701db8 27701dc8     ..p3..p+..p;..p'
1a00be24:	37701dd8 2f701de8 1f701df0 3f701df8     ..p7..p/..p...p?
1a00be34:	20f01e08 30f01e18 28f01e28 38f01e38     ... ...0(..(8..8
1a00be44:	24f01e48 34f01e58 2cf01e68 3cf01e78     H..$X..4h..,x..<
1a00be54:	22f01e88 32f01e98 2af01ea8 3af01eb8     ..."...2...*...:
1a00be64:	26f01ec8 36f01ed8 2ef01ee8 3ef01ef8     ...&...6.......>
1a00be74:	21f01f08 31f01f18 29f01f28 39f01f38     ...!...1(..)8..9
1a00be84:	25f01f48 35f01f58 2df01f68 3df01f78     H..%X..5h..-x..=
1a00be94:	23f01f88 33f01f98 2bf01fa8 3bf01fb8     ...#...3...+...;
1a00bea4:	27f01fc8 37f01fd8 2ff01fe8 3ff01ff8     ...'...7.../...?
1a00beb4:	30082018 28082028 38082038 24082048     . .0( .(8 .8H .$
1a00bec4:	34082058 2c082068 3c082078 22082088     X .4h .,x .<. ."
1a00bed4:	32082098 2a0820a8 3a0820b8 260820c8     . .2. .*. .:. .&
1a00bee4:	360820d8 2e0820e8 3e0820f8 31082118     . .6. ... .>.!.1
1a00bef4:	29082128 39082138 25082148 35082158     (!.)8!.9H!.%X!.5
1a00bf04:	2d082168 3d082178 23082188 33082198     h!.-x!.=.!.#.!.3
1a00bf14:	2b0821a8 3b0821b8 270821c8 370821d8     .!.+.!.;.!.'.!.7
1a00bf24:	2f0821e8 3f0821f8 30882218 28882228     .!./.!.?.".0(".(
1a00bf34:	38882238 24882248 34882258 2c882268     8".8H".$X".4h".,
1a00bf44:	3c882278 32882298 2a8822a8 3a8822b8     x".<.".2.".*.".:
1a00bf54:	268822c8 368822d8 2e8822e8 3e8822f8     .".&.".6."...".>
1a00bf64:	31882318 29882328 39882338 25882348     .#.1(#.)8#.9H#.%
1a00bf74:	35882358 2d882368 3d882378 33882398     X#.5h#.-x#.=.#.3
1a00bf84:	2b8823a8 3b8823b8 278823c8 378823d8     .#.+.#.;.#.'.#.7
1a00bf94:	2f8823e8 3f8823f8 30482418 28482428     .#./.#.?.$H0($H(
1a00bfa4:	38482438 34482458 2c482468 3c482478     8$H8X$H4h$H,x$H<
1a00bfb4:	32482498 2a4824a8 3a4824b8 264824c8     .$H2.$H*.$H:.$H&
1a00bfc4:	364824d8 2e4824e8 3e4824f8 31482518     .$H6.$H..$H>.%H1
1a00bfd4:	29482528 39482538 35482558 2d482568     (%H)8%H9X%H5h%H-
1a00bfe4:	3d482578 33482598 2b4825a8 3b4825b8     x%H=.%H3.%H+.%H;
1a00bff4:	274825c8 374825d8 2f4825e8 3f4825f8     .%H'.%H7.%H/.%H?
1a00c004:	30c82618 28c82628 38c82638 34c82658     .&.0(&.(8&.8X&.4
1a00c014:	2cc82668 3cc82678 32c82698 2ac826a8     h&.,x&.<.&.2.&.*
1a00c024:	3ac826b8 36c826d8 2ec826e8 3ec826f8     .&.:.&.6.&...&.>
1a00c034:	31c82718 29c82728 39c82738 35c82758     .'.1('.)8'.9X'.5
1a00c044:	2dc82768 3dc82778 33c82798 2bc827a8     h'.-x'.=.'.3.'.+
1a00c054:	3bc827b8 37c827d8 2fc827e8 3fc827f8     .'.;.'.7.'./.'.?
1a00c064:	30282818 38282838 34282858 2c282868     .((08((8X((4h((,
1a00c074:	3c282878 32282898 2a2828a8 3a2828b8     x((<.((2.((*.((:
1a00c084:	362828d8 2e2828e8 3e2828f8 31282918     .((6.((..((>.)(1
1a00c094:	39282938 35282958 2d282968 3d282978     8)(9X)(5h)(-x)(=
1a00c0a4:	33282998 2b2829a8 3b2829b8 372829d8     .)(3.)(+.)(;.)(7
1a00c0b4:	2f2829e8 3f2829f8 30a82a18 38a82a38     .)(/.)(?.*.08*.8
1a00c0c4:	34a82a58 2ca82a68 3ca82a78 32a82a98     X*.4h*.,x*.<.*.2
1a00c0d4:	3aa82ab8 36a82ad8 2ea82ae8 3ea82af8     .*.:.*.6.*...*.>
1a00c0e4:	31a82b18 39a82b38 35a82b58 2da82b68     .+.18+.9X+.5h+.-
1a00c0f4:	3da82b78 33a82b98 3ba82bb8 37a82bd8     x+.=.+.3.+.;.+.7
1a00c104:	2fa82be8 3fa82bf8 30682c18 38682c38     .+./.+.?.,h08,h8
1a00c114:	34682c58 3c682c78 32682c98 3a682cb8     X,h4x,h<.,h2.,h:
1a00c124:	36682cd8 2e682ce8 3e682cf8 31682d18     .,h6.,h..,h>.-h1
1a00c134:	39682d38 35682d58 3d682d78 33682d98     8-h9X-h5x-h=.-h3
1a00c144:	3b682db8 37682dd8 2f682de8 3f682df8     .-h;.-h7.-h/.-h?
1a00c154:	30e82e18 38e82e38 34e82e58 3ce82e78     ...08..8X..4x..<
1a00c164:	32e82e98 3ae82eb8 36e82ed8 3ee82ef8     ...2...:...6...>
1a00c174:	31e82f18 39e82f38 35e82f58 3de82f78     ./.18/.9X/.5x/.=
1a00c184:	33e82f98 3be82fb8 37e82fd8 3fe82ff8     ./.3./.;./.7./.?
1a00c194:	38183038 34183058 3c183078 32183098     80.8X0.4x0.<.0.2
1a00c1a4:	3a1830b8 361830d8 3e1830f8 39183138     .0.:.0.6.0.>81.9
1a00c1b4:	35183158 3d183178 33183198 3b1831b8     X1.5x1.=.1.3.1.;
1a00c1c4:	371831d8 3f1831f8 38983238 34983258     .1.7.1.?82.8X2.4
1a00c1d4:	3c983278 3a9832b8 369832d8 3e9832f8     x2.<.2.:.2.6.2.>
1a00c1e4:	39983338 35983358 3d983378 3b9833b8     83.9X3.5x3.=.3.;
1a00c1f4:	379833d8 3f9833f8 38583438 3c583478     .3.7.3.?84X8x4X<
1a00c204:	3a5834b8 365834d8 3e5834f8 39583538     .4X:.4X6.4X>85X9
1a00c214:	3d583578 3b5835b8 375835d8 3f5835f8     x5X=.5X;.5X7.5X?
1a00c224:	38d83638 3cd83678 3ad836b8 3ed836f8     86.8x6.<.6.:.6.>
1a00c234:	39d83738 3dd83778 3bd837b8 3fd837f8     87.9x7.=.7.;.7.?
1a00c244:	3c383878 3a3838b8 3e3838f8 3d383978     x88<.88:.88>x98=
1a00c254:	3b3839b8 3f3839f8 3cb83a78 3eb83af8     .98;.98?x:.<.:.>
1a00c264:	3db83b78 3fb83bf8 3e783cf8 3f783df8     x;.=.;.?.<x>.=x?

1a00c274 <armBitRevIndexTable_fixed_4096>:
1a00c274:	40000008 20000010 60000018 10000020     ...@... ...` ...
1a00c284:	50000028 30000030 70000038 08000040     (..P0..08..p@...
1a00c294:	48000048 28000050 68000058 18000060     H..HP..(X..h`...
1a00c2a4:	58000068 38000070 78000078 04000080     h..Xp..8x..x....
1a00c2b4:	44000088 24000090 64000098 140000a0     ...D...$...d....
1a00c2c4:	540000a8 340000b0 740000b8 0c0000c0     ...T...4...t....
1a00c2d4:	4c0000c8 2c0000d0 6c0000d8 1c0000e0     ...L...,...l....
1a00c2e4:	5c0000e8 3c0000f0 7c0000f8 02000100     ...\...<...|....
1a00c2f4:	42000108 22000110 62000118 12000120     ...B..."...b ...
1a00c304:	52000128 32000130 72000138 0a000140     (..R0..28..r@...
1a00c314:	4a000148 2a000150 6a000158 1a000160     H..JP..*X..j`...
1a00c324:	5a000168 3a000170 7a000178 06000180     h..Zp..:x..z....
1a00c334:	46000188 26000190 66000198 160001a0     ...F...&...f....
1a00c344:	560001a8 360001b0 760001b8 0e0001c0     ...V...6...v....
1a00c354:	4e0001c8 2e0001d0 6e0001d8 1e0001e0     ...N.......n....
1a00c364:	5e0001e8 3e0001f0 7e0001f8 41000208     ...^...>...~...A
1a00c374:	21000210 61000218 11000220 51000228     ...!...a ...(..Q
1a00c384:	31000230 71000238 09000240 49000248     0..18..q@...H..I
1a00c394:	29000250 69000258 19000260 59000268     P..)X..i`...h..Y
1a00c3a4:	39000270 79000278 05000280 45000288     p..9x..y.......E
1a00c3b4:	25000290 65000298 150002a0 550002a8     ...%...e.......U
1a00c3c4:	350002b0 750002b8 0d0002c0 4d0002c8     ...5...u.......M
1a00c3d4:	2d0002d0 6d0002d8 1d0002e0 5d0002e8     ...-...m.......]
1a00c3e4:	3d0002f0 7d0002f8 43000308 23000310     ...=...}...C...#
1a00c3f4:	63000318 13000320 53000328 33000330     ...c ...(..S0..3
1a00c404:	73000338 0b000340 4b000348 2b000350     8..s@...H..KP..+
1a00c414:	6b000358 1b000360 5b000368 3b000370     X..k`...h..[p..;
1a00c424:	7b000378 07000380 47000388 27000390     x..{.......G...'
1a00c434:	67000398 170003a0 570003a8 370003b0     ...g.......W...7
1a00c444:	770003b8 0f0003c0 4f0003c8 2f0003d0     ...w.......O.../
1a00c454:	6f0003d8 1f0003e0 5f0003e8 3f0003f0     ...o......._...?
1a00c464:	7f0003f8 40800408 20800410 60800418     .......@... ...`
1a00c474:	10800420 50800428 30800430 70800438      ...(..P0..08..p
1a00c484:	08800440 48800448 28800450 68800458     @...H..HP..(X..h
1a00c494:	18800460 58800468 38800470 78800478     `...h..Xp..8x..x
1a00c4a4:	44800488 24800490 64800498 148004a0     ...D...$...d....
1a00c4b4:	548004a8 348004b0 748004b8 0c8004c0     ...T...4...t....
1a00c4c4:	4c8004c8 2c8004d0 6c8004d8 1c8004e0     ...L...,...l....
1a00c4d4:	5c8004e8 3c8004f0 7c8004f8 42800508     ...\...<...|...B
1a00c4e4:	22800510 62800518 12800520 52800528     ..."...b ...(..R
1a00c4f4:	32800530 72800538 0a800540 4a800548     0..28..r@...H..J
1a00c504:	2a800550 6a800558 1a800560 5a800568     P..*X..j`...h..Z
1a00c514:	3a800570 7a800578 06800580 46800588     p..:x..z.......F
1a00c524:	26800590 66800598 168005a0 568005a8     ...&...f.......V
1a00c534:	368005b0 768005b8 0e8005c0 4e8005c8     ...6...v.......N
1a00c544:	2e8005d0 6e8005d8 1e8005e0 5e8005e8     .......n.......^
1a00c554:	3e8005f0 7e8005f8 41800608 21800610     ...>...~...A...!
1a00c564:	61800618 11800620 51800628 31800630     ...a ...(..Q0..1
1a00c574:	71800638 09800640 49800648 29800650     8..q@...H..IP..)
1a00c584:	69800658 19800660 59800668 39800670     X..i`...h..Yp..9
1a00c594:	79800678 45800688 25800690 65800698     x..y...E...%...e
1a00c5a4:	158006a0 558006a8 358006b0 758006b8     .......U...5...u
1a00c5b4:	0d8006c0 4d8006c8 2d8006d0 6d8006d8     .......M...-...m
1a00c5c4:	1d8006e0 5d8006e8 3d8006f0 7d8006f8     .......]...=...}
1a00c5d4:	43800708 23800710 63800718 13800720     ...C...#...c ...
1a00c5e4:	53800728 33800730 73800738 0b800740     (..S0..38..s@...
1a00c5f4:	4b800748 2b800750 6b800758 1b800760     H..KP..+X..k`...
1a00c604:	5b800768 3b800770 7b800778 47800788     h..[p..;x..{...G
1a00c614:	27800790 67800798 178007a0 578007a8     ...'...g.......W
1a00c624:	378007b0 778007b8 0f8007c0 4f8007c8     ...7...w.......O
1a00c634:	2f8007d0 6f8007d8 1f8007e0 5f8007e8     .../...o......._
1a00c644:	3f8007f0 7f8007f8 40400808 20400810     ...?......@@..@ 
1a00c654:	60400818 10400820 50400828 30400830     ..@` .@.(.@P0.@0
1a00c664:	70400838 48400848 28400850 68400858     8.@pH.@HP.@(X.@h
1a00c674:	18400860 58400868 38400870 78400878     `.@.h.@Xp.@8x.@x
1a00c684:	44400888 24400890 64400898 144008a0     ..@D..@$..@d..@.
1a00c694:	544008a8 344008b0 744008b8 0c4008c0     ..@T..@4..@t..@.
1a00c6a4:	4c4008c8 2c4008d0 6c4008d8 1c4008e0     ..@L..@,..@l..@.
1a00c6b4:	5c4008e8 3c4008f0 7c4008f8 42400908     ..@\..@<..@|..@B
1a00c6c4:	22400910 62400918 12400920 52400928     ..@"..@b .@.(.@R
1a00c6d4:	32400930 72400938 0a400940 4a400948     0.@28.@r@.@.H.@J
1a00c6e4:	2a400950 6a400958 1a400960 5a400968     P.@*X.@j`.@.h.@Z
1a00c6f4:	3a400970 7a400978 46400988 26400990     p.@:x.@z..@F..@&
1a00c704:	66400998 164009a0 564009a8 364009b0     ..@f..@...@V..@6
1a00c714:	764009b8 0e4009c0 4e4009c8 2e4009d0     ..@v..@...@N..@.
1a00c724:	6e4009d8 1e4009e0 5e4009e8 3e4009f0     ..@n..@...@^..@>
1a00c734:	7e4009f8 41400a08 21400a10 61400a18     ..@~..@A..@!..@a
1a00c744:	11400a20 51400a28 31400a30 71400a38      .@.(.@Q0.@18.@q
1a00c754:	49400a48 29400a50 69400a58 19400a60     H.@IP.@)X.@i`.@.
1a00c764:	59400a68 39400a70 79400a78 45400a88     h.@Yp.@9x.@y..@E
1a00c774:	25400a90 65400a98 15400aa0 55400aa8     ..@%..@e..@...@U
1a00c784:	35400ab0 75400ab8 0d400ac0 4d400ac8     ..@5..@u..@...@M
1a00c794:	2d400ad0 6d400ad8 1d400ae0 5d400ae8     ..@-..@m..@...@]
1a00c7a4:	3d400af0 7d400af8 43400b08 23400b10     ..@=..@}..@C..@#
1a00c7b4:	63400b18 13400b20 53400b28 33400b30     ..@c .@.(.@S0.@3
1a00c7c4:	73400b38 4b400b48 2b400b50 6b400b58     8.@sH.@KP.@+X.@k
1a00c7d4:	1b400b60 5b400b68 3b400b70 7b400b78     `.@.h.@[p.@;x.@{
1a00c7e4:	47400b88 27400b90 67400b98 17400ba0     ..@G..@'..@g..@.
1a00c7f4:	57400ba8 37400bb0 77400bb8 0f400bc0     ..@W..@7..@w..@.
1a00c804:	4f400bc8 2f400bd0 6f400bd8 1f400be0     ..@O..@/..@o..@.
1a00c814:	5f400be8 3f400bf0 7f400bf8 40c00c08     ..@_..@?..@....@
1a00c824:	20c00c10 60c00c18 10c00c20 50c00c28     ... ...` ...(..P
1a00c834:	30c00c30 70c00c38 48c00c48 28c00c50     0..08..pH..HP..(
1a00c844:	68c00c58 18c00c60 58c00c68 38c00c70     X..h`...h..Xp..8
1a00c854:	78c00c78 44c00c88 24c00c90 64c00c98     x..x...D...$...d
1a00c864:	14c00ca0 54c00ca8 34c00cb0 74c00cb8     .......T...4...t
1a00c874:	4cc00cc8 2cc00cd0 6cc00cd8 1cc00ce0     ...L...,...l....
1a00c884:	5cc00ce8 3cc00cf0 7cc00cf8 42c00d08     ...\...<...|...B
1a00c894:	22c00d10 62c00d18 12c00d20 52c00d28     ..."...b ...(..R
1a00c8a4:	32c00d30 72c00d38 4ac00d48 2ac00d50     0..28..rH..JP..*
1a00c8b4:	6ac00d58 1ac00d60 5ac00d68 3ac00d70     X..j`...h..Zp..:
1a00c8c4:	7ac00d78 46c00d88 26c00d90 66c00d98     x..z...F...&...f
1a00c8d4:	16c00da0 56c00da8 36c00db0 76c00db8     .......V...6...v
1a00c8e4:	0ec00dc0 4ec00dc8 2ec00dd0 6ec00dd8     .......N.......n
1a00c8f4:	1ec00de0 5ec00de8 3ec00df0 7ec00df8     .......^...>...~
1a00c904:	41c00e08 21c00e10 61c00e18 11c00e20     ...A...!...a ...
1a00c914:	51c00e28 31c00e30 71c00e38 49c00e48     (..Q0..18..qH..I
1a00c924:	29c00e50 69c00e58 19c00e60 59c00e68     P..)X..i`...h..Y
1a00c934:	39c00e70 79c00e78 45c00e88 25c00e90     p..9x..y...E...%
1a00c944:	65c00e98 15c00ea0 55c00ea8 35c00eb0     ...e.......U...5
1a00c954:	75c00eb8 4dc00ec8 2dc00ed0 6dc00ed8     ...u...M...-...m
1a00c964:	1dc00ee0 5dc00ee8 3dc00ef0 7dc00ef8     .......]...=...}
1a00c974:	43c00f08 23c00f10 63c00f18 13c00f20     ...C...#...c ...
1a00c984:	53c00f28 33c00f30 73c00f38 4bc00f48     (..S0..38..sH..K
1a00c994:	2bc00f50 6bc00f58 1bc00f60 5bc00f68     P..+X..k`...h..[
1a00c9a4:	3bc00f70 7bc00f78 47c00f88 27c00f90     p..;x..{...G...'
1a00c9b4:	67c00f98 17c00fa0 57c00fa8 37c00fb0     ...g.......W...7
1a00c9c4:	77c00fb8 4fc00fc8 2fc00fd0 6fc00fd8     ...w...O.../...o
1a00c9d4:	1fc00fe0 5fc00fe8 3fc00ff0 7fc00ff8     ......._...?....
1a00c9e4:	40201008 20201010 60201018 50201028     .. @..  .. `(. P
1a00c9f4:	30201030 70201038 48201048 28201050     0. 08. pH. HP. (
1a00ca04:	68201058 18201060 58201068 38201070     X. h`. .h. Xp. 8
1a00ca14:	78201078 44201088 24201090 64201098     x. x.. D.. $.. d
1a00ca24:	142010a0 542010a8 342010b0 742010b8     .. ... T.. 4.. t
1a00ca34:	4c2010c8 2c2010d0 6c2010d8 1c2010e0     .. L.. ,.. l.. .
1a00ca44:	5c2010e8 3c2010f0 7c2010f8 42201108     .. \.. <.. |.. B
1a00ca54:	22201110 62201118 12201120 52201128     .. ".. b . .(. R
1a00ca64:	32201130 72201138 4a201148 2a201150     0. 28. rH. JP. *
1a00ca74:	6a201158 1a201160 5a201168 3a201170     X. j`. .h. Zp. :
1a00ca84:	7a201178 46201188 26201190 66201198     x. z.. F.. &.. f
1a00ca94:	162011a0 562011a8 362011b0 762011b8     .. ... V.. 6.. v
1a00caa4:	4e2011c8 2e2011d0 6e2011d8 1e2011e0     .. N.. ... n.. .
1a00cab4:	5e2011e8 3e2011f0 7e2011f8 41201208     .. ^.. >.. ~.. A
1a00cac4:	21201210 61201218 51201228 31201230     .. !.. a(. Q0. 1
1a00cad4:	71201238 49201248 29201250 69201258     8. qH. IP. )X. i
1a00cae4:	19201260 59201268 39201270 79201278     `. .h. Yp. 9x. y
1a00caf4:	45201288 25201290 65201298 152012a0     .. E.. %.. e.. .
1a00cb04:	552012a8 352012b0 752012b8 4d2012c8     .. U.. 5.. u.. M
1a00cb14:	2d2012d0 6d2012d8 1d2012e0 5d2012e8     .. -.. m.. ... ]
1a00cb24:	3d2012f0 7d2012f8 43201308 23201310     .. =.. }.. C.. #
1a00cb34:	63201318 53201328 33201330 73201338     .. c(. S0. 38. s
1a00cb44:	4b201348 2b201350 6b201358 1b201360     H. KP. +X. k`. .
1a00cb54:	5b201368 3b201370 7b201378 47201388     h. [p. ;x. {.. G
1a00cb64:	27201390 67201398 172013a0 572013a8     .. '.. g.. ... W
1a00cb74:	372013b0 772013b8 4f2013c8 2f2013d0     .. 7.. w.. O.. /
1a00cb84:	6f2013d8 1f2013e0 5f2013e8 3f2013f0     .. o.. ... _.. ?
1a00cb94:	7f2013f8 40a01408 20a01410 60a01418     .. ....@... ...`
1a00cba4:	50a01428 30a01430 70a01438 48a01448     (..P0..08..pH..H
1a00cbb4:	28a01450 68a01458 18a01460 58a01468     P..(X..h`...h..X
1a00cbc4:	38a01470 78a01478 44a01488 24a01490     p..8x..x...D...$
1a00cbd4:	64a01498 54a014a8 34a014b0 74a014b8     ...d...T...4...t
1a00cbe4:	4ca014c8 2ca014d0 6ca014d8 1ca014e0     ...L...,...l....
1a00cbf4:	5ca014e8 3ca014f0 7ca014f8 42a01508     ...\...<...|...B
1a00cc04:	22a01510 62a01518 52a01528 32a01530     ..."...b(..R0..2
1a00cc14:	72a01538 4aa01548 2aa01550 6aa01558     8..rH..JP..*X..j
1a00cc24:	1aa01560 5aa01568 3aa01570 7aa01578     `...h..Zp..:x..z
1a00cc34:	46a01588 26a01590 66a01598 16a015a0     ...F...&...f....
1a00cc44:	56a015a8 36a015b0 76a015b8 4ea015c8     ...V...6...v...N
1a00cc54:	2ea015d0 6ea015d8 1ea015e0 5ea015e8     .......n.......^
1a00cc64:	3ea015f0 7ea015f8 41a01608 21a01610     ...>...~...A...!
1a00cc74:	61a01618 51a01628 31a01630 71a01638     ...a(..Q0..18..q
1a00cc84:	49a01648 29a01650 69a01658 19a01660     H..IP..)X..i`...
1a00cc94:	59a01668 39a01670 79a01678 45a01688     h..Yp..9x..y...E
1a00cca4:	25a01690 65a01698 55a016a8 35a016b0     ...%...e...U...5
1a00ccb4:	75a016b8 4da016c8 2da016d0 6da016d8     ...u...M...-...m
1a00ccc4:	1da016e0 5da016e8 3da016f0 7da016f8     .......]...=...}
1a00ccd4:	43a01708 23a01710 63a01718 53a01728     ...C...#...c(..S
1a00cce4:	33a01730 73a01738 4ba01748 2ba01750     0..38..sH..KP..+
1a00ccf4:	6ba01758 1ba01760 5ba01768 3ba01770     X..k`...h..[p..;
1a00cd04:	7ba01778 47a01788 27a01790 67a01798     x..{...G...'...g
1a00cd14:	57a017a8 37a017b0 77a017b8 4fa017c8     ...W...7...w...O
1a00cd24:	2fa017d0 6fa017d8 1fa017e0 5fa017e8     .../...o......._
1a00cd34:	3fa017f0 7fa017f8 40601808 20601810     ...?......`@..` 
1a00cd44:	60601818 50601828 30601830 70601838     ..``(.`P0.`08.`p
1a00cd54:	48601848 28601850 68601858 58601868     H.`HP.`(X.`hh.`X
1a00cd64:	38601870 78601878 44601888 24601890     p.`8x.`x..`D..`$
1a00cd74:	64601898 546018a8 346018b0 746018b8     ..`d..`T..`4..`t
1a00cd84:	4c6018c8 2c6018d0 6c6018d8 1c6018e0     ..`L..`,..`l..`.
1a00cd94:	5c6018e8 3c6018f0 7c6018f8 42601908     ..`\..`<..`|..`B
1a00cda4:	22601910 62601918 52601928 32601930     ..`"..`b(.`R0.`2
1a00cdb4:	72601938 4a601948 2a601950 6a601958     8.`rH.`JP.`*X.`j
1a00cdc4:	1a601960 5a601968 3a601970 7a601978     `.`.h.`Zp.`:x.`z
1a00cdd4:	46601988 26601990 66601998 566019a8     ..`F..`&..`f..`V
1a00cde4:	366019b0 766019b8 4e6019c8 2e6019d0     ..`6..`v..`N..`.
1a00cdf4:	6e6019d8 1e6019e0 5e6019e8 3e6019f0     ..`n..`...`^..`>
1a00ce04:	7e6019f8 41601a08 21601a10 61601a18     ..`~..`A..`!..`a
1a00ce14:	51601a28 31601a30 71601a38 49601a48     (.`Q0.`18.`qH.`I
1a00ce24:	29601a50 69601a58 59601a68 39601a70     P.`)X.`ih.`Yp.`9
1a00ce34:	79601a78 45601a88 25601a90 65601a98     x.`y..`E..`%..`e
1a00ce44:	55601aa8 35601ab0 75601ab8 4d601ac8     ..`U..`5..`u..`M
1a00ce54:	2d601ad0 6d601ad8 1d601ae0 5d601ae8     ..`-..`m..`...`]
1a00ce64:	3d601af0 7d601af8 43601b08 23601b10     ..`=..`}..`C..`#
1a00ce74:	63601b18 53601b28 33601b30 73601b38     ..`c(.`S0.`38.`s
1a00ce84:	4b601b48 2b601b50 6b601b58 5b601b68     H.`KP.`+X.`kh.`[
1a00ce94:	3b601b70 7b601b78 47601b88 27601b90     p.`;x.`{..`G..`'
1a00cea4:	67601b98 57601ba8 37601bb0 77601bb8     ..`g..`W..`7..`w
1a00ceb4:	4f601bc8 2f601bd0 6f601bd8 1f601be0     ..`O..`/..`o..`.
1a00cec4:	5f601be8 3f601bf0 7f601bf8 40e01c08     ..`_..`?..`....@
1a00ced4:	20e01c10 60e01c18 50e01c28 30e01c30     ... ...`(..P0..0
1a00cee4:	70e01c38 48e01c48 28e01c50 68e01c58     8..pH..HP..(X..h
1a00cef4:	58e01c68 38e01c70 78e01c78 44e01c88     h..Xp..8x..x...D
1a00cf04:	24e01c90 64e01c98 54e01ca8 34e01cb0     ...$...d...T...4
1a00cf14:	74e01cb8 4ce01cc8 2ce01cd0 6ce01cd8     ...t...L...,...l
1a00cf24:	5ce01ce8 3ce01cf0 7ce01cf8 42e01d08     ...\...<...|...B
1a00cf34:	22e01d10 62e01d18 52e01d28 32e01d30     ..."...b(..R0..2
1a00cf44:	72e01d38 4ae01d48 2ae01d50 6ae01d58     8..rH..JP..*X..j
1a00cf54:	5ae01d68 3ae01d70 7ae01d78 46e01d88     h..Zp..:x..z...F
1a00cf64:	26e01d90 66e01d98 56e01da8 36e01db0     ...&...f...V...6
1a00cf74:	76e01db8 4ee01dc8 2ee01dd0 6ee01dd8     ...v...N.......n
1a00cf84:	1ee01de0 5ee01de8 3ee01df0 7ee01df8     .......^...>...~
1a00cf94:	41e01e08 21e01e10 61e01e18 51e01e28     ...A...!...a(..Q
1a00cfa4:	31e01e30 71e01e38 49e01e48 29e01e50     0..18..qH..IP..)
1a00cfb4:	69e01e58 59e01e68 39e01e70 79e01e78     X..ih..Yp..9x..y
1a00cfc4:	45e01e88 25e01e90 65e01e98 55e01ea8     ...E...%...e...U
1a00cfd4:	35e01eb0 75e01eb8 4de01ec8 2de01ed0     ...5...u...M...-
1a00cfe4:	6de01ed8 5de01ee8 3de01ef0 7de01ef8     ...m...]...=...}
1a00cff4:	43e01f08 23e01f10 63e01f18 53e01f28     ...C...#...c(..S
1a00d004:	33e01f30 73e01f38 4be01f48 2be01f50     0..38..sH..KP..+
1a00d014:	6be01f58 5be01f68 3be01f70 7be01f78     X..kh..[p..;x..{
1a00d024:	47e01f88 27e01f90 67e01f98 57e01fa8     ...G...'...g...W
1a00d034:	37e01fb0 77e01fb8 4fe01fc8 2fe01fd0     ...7...w...O.../
1a00d044:	6fe01fd8 5fe01fe8 3fe01ff0 7fe01ff8     ...o..._...?....
1a00d054:	40102008 60102018 50102028 30102030     . .@. .`( .P0 .0
1a00d064:	70102038 48102048 28102050 68102058     8 .pH .HP .(X .h
1a00d074:	58102068 38102070 78102078 44102088     h .Xp .8x .x. .D
1a00d084:	24102090 64102098 541020a8 341020b0     . .$. .d. .T. .4
1a00d094:	741020b8 4c1020c8 2c1020d0 6c1020d8     . .t. .L. .,. .l
1a00d0a4:	5c1020e8 3c1020f0 7c1020f8 42102108     . .\. .<. .|.!.B
1a00d0b4:	22102110 62102118 52102128 32102130     .!.".!.b(!.R0!.2
1a00d0c4:	72102138 4a102148 2a102150 6a102158     8!.rH!.JP!.*X!.j
1a00d0d4:	5a102168 3a102170 7a102178 46102188     h!.Zp!.:x!.z.!.F
1a00d0e4:	26102190 66102198 561021a8 361021b0     .!.&.!.f.!.V.!.6
1a00d0f4:	761021b8 4e1021c8 2e1021d0 6e1021d8     .!.v.!.N.!...!.n
1a00d104:	5e1021e8 3e1021f0 7e1021f8 41102208     .!.^.!.>.!.~.".A
1a00d114:	61102218 51102228 31102230 71102238     .".a(".Q0".18".q
1a00d124:	49102248 29102250 69102258 59102268     H".IP".)X".ih".Y
1a00d134:	39102270 79102278 45102288 25102290     p".9x".y.".E.".%
1a00d144:	65102298 551022a8 351022b0 751022b8     .".e.".U.".5.".u
1a00d154:	4d1022c8 2d1022d0 6d1022d8 5d1022e8     .".M.".-.".m.".]
1a00d164:	3d1022f0 7d1022f8 43102308 63102318     .".=.".}.#.C.#.c
1a00d174:	53102328 33102330 73102338 4b102348     (#.S0#.38#.sH#.K
1a00d184:	2b102350 6b102358 5b102368 3b102370     P#.+X#.kh#.[p#.;
1a00d194:	7b102378 47102388 27102390 67102398     x#.{.#.G.#.'.#.g
1a00d1a4:	571023a8 371023b0 771023b8 4f1023c8     .#.W.#.7.#.w.#.O
1a00d1b4:	2f1023d0 6f1023d8 5f1023e8 3f1023f0     .#./.#.o.#._.#.?
1a00d1c4:	7f1023f8 40902408 60902418 50902428     .#...$.@.$.`($.P
1a00d1d4:	30902430 70902438 48902448 28902450     0$.08$.pH$.HP$.(
1a00d1e4:	68902458 58902468 38902470 78902478     X$.hh$.Xp$.8x$.x
1a00d1f4:	44902488 64902498 549024a8 349024b0     .$.D.$.d.$.T.$.4
1a00d204:	749024b8 4c9024c8 2c9024d0 6c9024d8     .$.t.$.L.$.,.$.l
1a00d214:	5c9024e8 3c9024f0 7c9024f8 42902508     .$.\.$.<.$.|.%.B
1a00d224:	62902518 52902528 32902530 72902538     .%.b(%.R0%.28%.r
1a00d234:	4a902548 2a902550 6a902558 5a902568     H%.JP%.*X%.jh%.Z
1a00d244:	3a902570 7a902578 46902588 26902590     p%.:x%.z.%.F.%.&
1a00d254:	66902598 569025a8 369025b0 769025b8     .%.f.%.V.%.6.%.v
1a00d264:	4e9025c8 2e9025d0 6e9025d8 5e9025e8     .%.N.%...%.n.%.^
1a00d274:	3e9025f0 7e9025f8 41902608 61902618     .%.>.%.~.&.A.&.a
1a00d284:	51902628 31902630 71902638 49902648     (&.Q0&.18&.qH&.I
1a00d294:	29902650 69902658 59902668 39902670     P&.)X&.ih&.Yp&.9
1a00d2a4:	79902678 45902688 65902698 559026a8     x&.y.&.E.&.e.&.U
1a00d2b4:	359026b0 759026b8 4d9026c8 2d9026d0     .&.5.&.u.&.M.&.-
1a00d2c4:	6d9026d8 5d9026e8 3d9026f0 7d9026f8     .&.m.&.].&.=.&.}
1a00d2d4:	43902708 63902718 53902728 33902730     .'.C.'.c('.S0'.3
1a00d2e4:	73902738 4b902748 2b902750 6b902758     8'.sH'.KP'.+X'.k
1a00d2f4:	5b902768 3b902770 7b902778 47902788     h'.[p'.;x'.{.'.G
1a00d304:	67902798 579027a8 379027b0 779027b8     .'.g.'.W.'.7.'.w
1a00d314:	4f9027c8 2f9027d0 6f9027d8 5f9027e8     .'.O.'./.'.o.'._
1a00d324:	3f9027f0 7f9027f8 40502808 60502818     .'.?.'...(P@.(P`
1a00d334:	50502828 30502830 70502838 48502848     ((PP0(P08(PpH(PH
1a00d344:	68502858 58502868 38502870 78502878     X(Phh(PXp(P8x(Px
1a00d354:	44502888 64502898 545028a8 345028b0     .(PD.(Pd.(PT.(P4
1a00d364:	745028b8 4c5028c8 2c5028d0 6c5028d8     .(Pt.(PL.(P,.(Pl
1a00d374:	5c5028e8 3c5028f0 7c5028f8 42502908     .(P\.(P<.(P|.)PB
1a00d384:	62502918 52502928 32502930 72502938     .)Pb()PR0)P28)Pr
1a00d394:	4a502948 2a502950 6a502958 5a502968     H)PJP)P*X)Pjh)PZ
1a00d3a4:	3a502970 7a502978 46502988 66502998     p)P:x)Pz.)PF.)Pf
1a00d3b4:	565029a8 365029b0 765029b8 4e5029c8     .)PV.)P6.)Pv.)PN
1a00d3c4:	2e5029d0 6e5029d8 5e5029e8 3e5029f0     .)P..)Pn.)P^.)P>
1a00d3d4:	7e5029f8 41502a08 61502a18 51502a28     .)P~.*PA.*Pa(*PQ
1a00d3e4:	31502a30 71502a38 49502a48 69502a58     0*P18*PqH*PIX*Pi
1a00d3f4:	59502a68 39502a70 79502a78 45502a88     h*PYp*P9x*Py.*PE
1a00d404:	65502a98 55502aa8 35502ab0 75502ab8     .*Pe.*PU.*P5.*Pu
1a00d414:	4d502ac8 2d502ad0 6d502ad8 5d502ae8     .*PM.*P-.*Pm.*P]
1a00d424:	3d502af0 7d502af8 43502b08 63502b18     .*P=.*P}.+PC.+Pc
1a00d434:	53502b28 33502b30 73502b38 4b502b48     (+PS0+P38+PsH+PK
1a00d444:	6b502b58 5b502b68 3b502b70 7b502b78     X+Pkh+P[p+P;x+P{
1a00d454:	47502b88 67502b98 57502ba8 37502bb0     .+PG.+Pg.+PW.+P7
1a00d464:	77502bb8 4f502bc8 2f502bd0 6f502bd8     .+Pw.+PO.+P/.+Po
1a00d474:	5f502be8 3f502bf0 7f502bf8 40d02c08     .+P_.+P?.+P..,.@
1a00d484:	60d02c18 50d02c28 30d02c30 70d02c38     .,.`(,.P0,.08,.p
1a00d494:	48d02c48 68d02c58 58d02c68 38d02c70     H,.HX,.hh,.Xp,.8
1a00d4a4:	78d02c78 44d02c88 64d02c98 54d02ca8     x,.x.,.D.,.d.,.T
1a00d4b4:	34d02cb0 74d02cb8 4cd02cc8 6cd02cd8     .,.4.,.t.,.L.,.l
1a00d4c4:	5cd02ce8 3cd02cf0 7cd02cf8 42d02d08     .,.\.,.<.,.|.-.B
1a00d4d4:	62d02d18 52d02d28 32d02d30 72d02d38     .-.b(-.R0-.28-.r
1a00d4e4:	4ad02d48 6ad02d58 5ad02d68 3ad02d70     H-.JX-.jh-.Zp-.:
1a00d4f4:	7ad02d78 46d02d88 66d02d98 56d02da8     x-.z.-.F.-.f.-.V
1a00d504:	36d02db0 76d02db8 4ed02dc8 2ed02dd0     .-.6.-.v.-.N.-..
1a00d514:	6ed02dd8 5ed02de8 3ed02df0 7ed02df8     .-.n.-.^.-.>.-.~
1a00d524:	41d02e08 61d02e18 51d02e28 31d02e30     ...A...a(..Q0..1
1a00d534:	71d02e38 49d02e48 69d02e58 59d02e68     8..qH..IX..ih..Y
1a00d544:	39d02e70 79d02e78 45d02e88 65d02e98     p..9x..y...E...e
1a00d554:	55d02ea8 35d02eb0 75d02eb8 4dd02ec8     ...U...5...u...M
1a00d564:	6dd02ed8 5dd02ee8 3dd02ef0 7dd02ef8     ...m...]...=...}
1a00d574:	43d02f08 63d02f18 53d02f28 33d02f30     ./.C./.c(/.S0/.3
1a00d584:	73d02f38 4bd02f48 6bd02f58 5bd02f68     8/.sH/.KX/.kh/.[
1a00d594:	3bd02f70 7bd02f78 47d02f88 67d02f98     p/.;x/.{./.G./.g
1a00d5a4:	57d02fa8 37d02fb0 77d02fb8 4fd02fc8     ./.W./.7./.w./.O
1a00d5b4:	6fd02fd8 5fd02fe8 3fd02ff0 7fd02ff8     ./.o./._./.?./..
1a00d5c4:	40303008 60303018 50303028 70303038     .00@.00`(00P800p
1a00d5d4:	48303048 68303058 58303068 38303070     H00HX00hh00Xp008
1a00d5e4:	78303078 44303088 64303098 543030a8     x00x.00D.00d.00T
1a00d5f4:	343030b0 743030b8 4c3030c8 6c3030d8     .004.00t.00L.00l
1a00d604:	5c3030e8 3c3030f0 7c3030f8 42303108     .00\.00<.00|.10B
1a00d614:	62303118 52303128 32303130 72303138     .10b(10R0102810r
1a00d624:	4a303148 6a303158 5a303168 3a303170     H10JX10jh10Zp10:
1a00d634:	7a303178 46303188 66303198 563031a8     x10z.10F.10f.10V
1a00d644:	363031b0 763031b8 4e3031c8 6e3031d8     .106.10v.10N.10n
1a00d654:	5e3031e8 3e3031f0 7e3031f8 41303208     .10^.10>.10~.20A
1a00d664:	61303218 51303228 71303238 49303248     .20a(20Q820qH20I
1a00d674:	69303258 59303268 39303270 79303278     X20ih20Yp209x20y
1a00d684:	45303288 65303298 553032a8 353032b0     .20E.20e.20U.205
1a00d694:	753032b8 4d3032c8 6d3032d8 5d3032e8     .20u.20M.20m.20]
1a00d6a4:	3d3032f0 7d3032f8 43303308 63303318     .20=.20}.30C.30c
1a00d6b4:	53303328 73303338 4b303348 6b303358     (30S830sH30KX30k
1a00d6c4:	5b303368 3b303370 7b303378 47303388     h30[p30;x30{.30G
1a00d6d4:	67303398 573033a8 373033b0 773033b8     .30g.30W.307.30w
1a00d6e4:	4f3033c8 6f3033d8 5f3033e8 3f3033f0     .30O.30o.30_.30?
1a00d6f4:	7f3033f8 40b03408 60b03418 50b03428     .30..4.@.4.`(4.P
1a00d704:	70b03438 48b03448 68b03458 58b03468     84.pH4.HX4.hh4.X
1a00d714:	38b03470 78b03478 44b03488 64b03498     p4.8x4.x.4.D.4.d
1a00d724:	54b034a8 74b034b8 4cb034c8 6cb034d8     .4.T.4.t.4.L.4.l
1a00d734:	5cb034e8 3cb034f0 7cb034f8 42b03508     .4.\.4.<.4.|.5.B
1a00d744:	62b03518 52b03528 72b03538 4ab03548     .5.b(5.R85.rH5.J
1a00d754:	6ab03558 5ab03568 3ab03570 7ab03578     X5.jh5.Zp5.:x5.z
1a00d764:	46b03588 66b03598 56b035a8 36b035b0     .5.F.5.f.5.V.5.6
1a00d774:	76b035b8 4eb035c8 6eb035d8 5eb035e8     .5.v.5.N.5.n.5.^
1a00d784:	3eb035f0 7eb035f8 41b03608 61b03618     .5.>.5.~.6.A.6.a
1a00d794:	51b03628 71b03638 49b03648 69b03658     (6.Q86.qH6.IX6.i
1a00d7a4:	59b03668 39b03670 79b03678 45b03688     h6.Yp6.9x6.y.6.E
1a00d7b4:	65b03698 55b036a8 75b036b8 4db036c8     .6.e.6.U.6.u.6.M
1a00d7c4:	6db036d8 5db036e8 3db036f0 7db036f8     .6.m.6.].6.=.6.}
1a00d7d4:	43b03708 63b03718 53b03728 73b03738     .7.C.7.c(7.S87.s
1a00d7e4:	4bb03748 6bb03758 5bb03768 3bb03770     H7.KX7.kh7.[p7.;
1a00d7f4:	7bb03778 47b03788 67b03798 57b037a8     x7.{.7.G.7.g.7.W
1a00d804:	77b037b8 4fb037c8 6fb037d8 5fb037e8     .7.w.7.O.7.o.7._
1a00d814:	3fb037f0 7fb037f8 40703808 60703818     .7.?.7...8p@.8p`
1a00d824:	50703828 70703838 48703848 68703858     (8pP88ppH8pHX8ph
1a00d834:	58703868 78703878 44703888 64703898     h8pXx8px.8pD.8pd
1a00d844:	547038a8 747038b8 4c7038c8 6c7038d8     .8pT.8pt.8pL.8pl
1a00d854:	5c7038e8 3c7038f0 7c7038f8 42703908     .8p\.8p<.8p|.9pB
1a00d864:	62703918 52703928 72703938 4a703948     .9pb(9pR89prH9pJ
1a00d874:	6a703958 5a703968 3a703970 7a703978     X9pjh9pZp9p:x9pz
1a00d884:	46703988 66703998 567039a8 767039b8     .9pF.9pf.9pV.9pv
1a00d894:	4e7039c8 6e7039d8 5e7039e8 3e7039f0     .9pN.9pn.9p^.9p>
1a00d8a4:	7e7039f8 41703a08 61703a18 51703a28     .9p~.:pA.:pa(:pQ
1a00d8b4:	71703a38 49703a48 69703a58 59703a68     8:pqH:pIX:pih:pY
1a00d8c4:	79703a78 45703a88 65703a98 55703aa8     x:py.:pE.:pe.:pU
1a00d8d4:	75703ab8 4d703ac8 6d703ad8 5d703ae8     .:pu.:pM.:pm.:p]
1a00d8e4:	3d703af0 7d703af8 43703b08 63703b18     .:p=.:p}.;pC.;pc
1a00d8f4:	53703b28 73703b38 4b703b48 6b703b58     (;pS8;psH;pKX;pk
1a00d904:	5b703b68 7b703b78 47703b88 67703b98     h;p[x;p{.;pG.;pg
1a00d914:	57703ba8 77703bb8 4f703bc8 6f703bd8     .;pW.;pw.;pO.;po
1a00d924:	5f703be8 3f703bf0 7f703bf8 40f03c08     .;p_.;p?.;p..<.@
1a00d934:	60f03c18 50f03c28 70f03c38 48f03c48     .<.`(<.P8<.pH<.H
1a00d944:	68f03c58 58f03c68 78f03c78 44f03c88     X<.hh<.Xx<.x.<.D
1a00d954:	64f03c98 54f03ca8 74f03cb8 4cf03cc8     .<.d.<.T.<.t.<.L
1a00d964:	6cf03cd8 5cf03ce8 7cf03cf8 42f03d08     .<.l.<.\.<.|.=.B
1a00d974:	62f03d18 52f03d28 72f03d38 4af03d48     .=.b(=.R8=.rH=.J
1a00d984:	6af03d58 5af03d68 7af03d78 46f03d88     X=.jh=.Zx=.z.=.F
1a00d994:	66f03d98 56f03da8 76f03db8 4ef03dc8     .=.f.=.V.=.v.=.N
1a00d9a4:	6ef03dd8 5ef03de8 3ef03df0 7ef03df8     .=.n.=.^.=.>.=.~
1a00d9b4:	41f03e08 61f03e18 51f03e28 71f03e38     .>.A.>.a(>.Q8>.q
1a00d9c4:	49f03e48 69f03e58 59f03e68 79f03e78     H>.IX>.ih>.Yx>.y
1a00d9d4:	45f03e88 65f03e98 55f03ea8 75f03eb8     .>.E.>.e.>.U.>.u
1a00d9e4:	4df03ec8 6df03ed8 5df03ee8 7df03ef8     .>.M.>.m.>.].>.}
1a00d9f4:	43f03f08 63f03f18 53f03f28 73f03f38     .?.C.?.c(?.S8?.s
1a00da04:	4bf03f48 6bf03f58 5bf03f68 7bf03f78     H?.KX?.kh?.[x?.{
1a00da14:	47f03f88 67f03f98 57f03fa8 77f03fb8     .?.G.?.g.?.W.?.w
1a00da24:	4ff03fc8 6ff03fd8 5ff03fe8 7ff03ff8     .?.O.?.o.?._.?..
1a00da34:	60084018 50084028 70084038 48084048     .@.`(@.P8@.pH@.H
1a00da44:	68084058 58084068 78084078 44084088     X@.hh@.Xx@.x.@.D
1a00da54:	64084098 540840a8 740840b8 4c0840c8     .@.d.@.T.@.t.@.L
1a00da64:	6c0840d8 5c0840e8 7c0840f8 42084108     .@.l.@.\.@.|.A.B
1a00da74:	62084118 52084128 72084138 4a084148     .A.b(A.R8A.rHA.J
1a00da84:	6a084158 5a084168 7a084178 46084188     XA.jhA.ZxA.z.A.F
1a00da94:	66084198 560841a8 760841b8 4e0841c8     .A.f.A.V.A.v.A.N
1a00daa4:	6e0841d8 5e0841e8 7e0841f8 61084218     .A.n.A.^.A.~.B.a
1a00dab4:	51084228 71084238 49084248 69084258     (B.Q8B.qHB.IXB.i
1a00dac4:	59084268 79084278 45084288 65084298     hB.YxB.y.B.E.B.e
1a00dad4:	550842a8 750842b8 4d0842c8 6d0842d8     .B.U.B.u.B.M.B.m
1a00dae4:	5d0842e8 7d0842f8 63084318 53084328     .B.].B.}.C.c(C.S
1a00daf4:	73084338 4b084348 6b084358 5b084368     8C.sHC.KXC.khC.[
1a00db04:	7b084378 47084388 67084398 570843a8     xC.{.C.G.C.g.C.W
1a00db14:	770843b8 4f0843c8 6f0843d8 5f0843e8     .C.w.C.O.C.o.C._
1a00db24:	7f0843f8 60884418 50884428 70884438     .C...D.`(D.P8D.p
1a00db34:	48884448 68884458 58884468 78884478     HD.HXD.hhD.XxD.x
1a00db44:	64884498 548844a8 748844b8 4c8844c8     .D.d.D.T.D.t.D.L
1a00db54:	6c8844d8 5c8844e8 7c8844f8 62884518     .D.l.D.\.D.|.E.b
1a00db64:	52884528 72884538 4a884548 6a884558     (E.R8E.rHE.JXE.j
1a00db74:	5a884568 7a884578 46884588 66884598     hE.ZxE.z.E.F.E.f
1a00db84:	568845a8 768845b8 4e8845c8 6e8845d8     .E.V.E.v.E.N.E.n
1a00db94:	5e8845e8 7e8845f8 61884618 51884628     .E.^.E.~.F.a(F.Q
1a00dba4:	71884638 49884648 69884658 59884668     8F.qHF.IXF.ihF.Y
1a00dbb4:	79884678 65884698 558846a8 758846b8     xF.y.F.e.F.U.F.u
1a00dbc4:	4d8846c8 6d8846d8 5d8846e8 7d8846f8     .F.M.F.m.F.].F.}
1a00dbd4:	63884718 53884728 73884738 4b884748     .G.c(G.S8G.sHG.K
1a00dbe4:	6b884758 5b884768 7b884778 67884798     XG.khG.[xG.{.G.g
1a00dbf4:	578847a8 778847b8 4f8847c8 6f8847d8     .G.W.G.w.G.O.G.o
1a00dc04:	5f8847e8 7f8847f8 60484818 50484828     .G._.G...HH`(HHP
1a00dc14:	70484838 68484858 58484868 78484878     8HHpXHHhhHHXxHHx
1a00dc24:	64484898 544848a8 744848b8 4c4848c8     .HHd.HHT.HHt.HHL
1a00dc34:	6c4848d8 5c4848e8 7c4848f8 62484918     .HHl.HH\.HH|.IHb
1a00dc44:	52484928 72484938 4a484948 6a484958     (IHR8IHrHIHJXIHj
1a00dc54:	5a484968 7a484978 66484998 564849a8     hIHZxIHz.IHf.IHV
1a00dc64:	764849b8 4e4849c8 6e4849d8 5e4849e8     .IHv.IHN.IHn.IH^
1a00dc74:	7e4849f8 61484a18 51484a28 71484a38     .IH~.JHa(JHQ8JHq
1a00dc84:	69484a58 59484a68 79484a78 65484a98     XJHihJHYxJHy.JHe
1a00dc94:	55484aa8 75484ab8 4d484ac8 6d484ad8     .JHU.JHu.JHM.JHm
1a00dca4:	5d484ae8 7d484af8 63484b18 53484b28     .JH].JH}.KHc(KHS
1a00dcb4:	73484b38 6b484b58 5b484b68 7b484b78     8KHsXKHkhKH[xKH{
1a00dcc4:	67484b98 57484ba8 77484bb8 4f484bc8     .KHg.KHW.KHw.KHO
1a00dcd4:	6f484bd8 5f484be8 7f484bf8 60c84c18     .KHo.KH_.KH..L.`
1a00dce4:	50c84c28 70c84c38 68c84c58 58c84c68     (L.P8L.pXL.hhL.X
1a00dcf4:	78c84c78 64c84c98 54c84ca8 74c84cb8     xL.x.L.d.L.T.L.t
1a00dd04:	6cc84cd8 5cc84ce8 7cc84cf8 62c84d18     .L.l.L.\.L.|.M.b
1a00dd14:	52c84d28 72c84d38 6ac84d58 5ac84d68     (M.R8M.rXM.jhM.Z
1a00dd24:	7ac84d78 66c84d98 56c84da8 76c84db8     xM.z.M.f.M.V.M.v
1a00dd34:	4ec84dc8 6ec84dd8 5ec84de8 7ec84df8     .M.N.M.n.M.^.M.~
1a00dd44:	61c84e18 51c84e28 71c84e38 69c84e58     .N.a(N.Q8N.qXN.i
1a00dd54:	59c84e68 79c84e78 65c84e98 55c84ea8     hN.YxN.y.N.e.N.U
1a00dd64:	75c84eb8 6dc84ed8 5dc84ee8 7dc84ef8     .N.u.N.m.N.].N.}
1a00dd74:	63c84f18 53c84f28 73c84f38 6bc84f58     .O.c(O.S8O.sXO.k
1a00dd84:	5bc84f68 7bc84f78 67c84f98 57c84fa8     hO.[xO.{.O.g.O.W
1a00dd94:	77c84fb8 6fc84fd8 5fc84fe8 7fc84ff8     .O.w.O.o.O._.O..
1a00dda4:	60285018 70285038 68285058 58285068     .P(`8P(pXP(hhP(X
1a00ddb4:	78285078 64285098 542850a8 742850b8     xP(x.P(d.P(T.P(t
1a00ddc4:	6c2850d8 5c2850e8 7c2850f8 62285118     .P(l.P(\.P(|.Q(b
1a00ddd4:	52285128 72285138 6a285158 5a285168     (Q(R8Q(rXQ(jhQ(Z
1a00dde4:	7a285178 66285198 562851a8 762851b8     xQ(z.Q(f.Q(V.Q(v
1a00ddf4:	6e2851d8 5e2851e8 7e2851f8 61285218     .Q(n.Q(^.Q(~.R(a
1a00de04:	71285238 69285258 59285268 79285278     8R(qXR(ihR(YxR(y
1a00de14:	65285298 552852a8 752852b8 6d2852d8     .R(e.R(U.R(u.R(m
1a00de24:	5d2852e8 7d2852f8 63285318 73285338     .R(].R(}.S(c8S(s
1a00de34:	6b285358 5b285368 7b285378 67285398     XS(khS([xS({.S(g
1a00de44:	572853a8 772853b8 6f2853d8 5f2853e8     .S(W.S(w.S(o.S(_
1a00de54:	7f2853f8 60a85418 70a85438 68a85458     .S(..T.`8T.pXT.h
1a00de64:	58a85468 78a85478 64a85498 74a854b8     hT.XxT.x.T.d.T.t
1a00de74:	6ca854d8 5ca854e8 7ca854f8 62a85518     .T.l.T.\.T.|.U.b
1a00de84:	72a85538 6aa85558 5aa85568 7aa85578     8U.rXU.jhU.ZxU.z
1a00de94:	66a85598 56a855a8 76a855b8 6ea855d8     .U.f.U.V.U.v.U.n
1a00dea4:	5ea855e8 7ea855f8 61a85618 71a85638     .U.^.U.~.V.a8V.q
1a00deb4:	69a85658 59a85668 79a85678 65a85698     XV.ihV.YxV.y.V.e
1a00dec4:	75a856b8 6da856d8 5da856e8 7da856f8     .V.u.V.m.V.].V.}
1a00ded4:	63a85718 73a85738 6ba85758 5ba85768     .W.c8W.sXW.khW.[
1a00dee4:	7ba85778 67a85798 77a857b8 6fa857d8     xW.{.W.g.W.w.W.o
1a00def4:	5fa857e8 7fa857f8 60685818 70685838     .W._.W...Xh`8Xhp
1a00df04:	68685858 78685878 64685898 746858b8     XXhhxXhx.Xhd.Xht
1a00df14:	6c6858d8 5c6858e8 7c6858f8 62685918     .Xhl.Xh\.Xh|.Yhb
1a00df24:	72685938 6a685958 5a685968 7a685978     8YhrXYhjhYhZxYhz
1a00df34:	66685998 766859b8 6e6859d8 5e6859e8     .Yhf.Yhv.Yhn.Yh^
1a00df44:	7e6859f8 61685a18 71685a38 69685a58     .Yh~.Zha8ZhqXZhi
1a00df54:	79685a78 65685a98 75685ab8 6d685ad8     xZhy.Zhe.Zhu.Zhm
1a00df64:	5d685ae8 7d685af8 63685b18 73685b38     .Zh].Zh}.[hc8[hs
1a00df74:	6b685b58 7b685b78 67685b98 77685bb8     X[hkx[h{.[hg.[hw
1a00df84:	6f685bd8 5f685be8 7f685bf8 60e85c18     .[ho.[h_.[h..\.`
1a00df94:	70e85c38 68e85c58 78e85c78 64e85c98     8\.pX\.hx\.x.\.d
1a00dfa4:	74e85cb8 6ce85cd8 7ce85cf8 62e85d18     .\.t.\.l.\.|.].b
1a00dfb4:	72e85d38 6ae85d58 7ae85d78 66e85d98     8].rX].jx].z.].f
1a00dfc4:	76e85db8 6ee85dd8 5ee85de8 7ee85df8     .].v.].n.].^.].~
1a00dfd4:	61e85e18 71e85e38 69e85e58 79e85e78     .^.a8^.qX^.ix^.y
1a00dfe4:	65e85e98 75e85eb8 6de85ed8 7de85ef8     .^.e.^.u.^.m.^.}
1a00dff4:	63e85f18 73e85f38 6be85f58 7be85f78     ._.c8_.sX_.kx_.{
1a00e004:	67e85f98 77e85fb8 6fe85fd8 7fe85ff8     ._.g._.w._.o._..
1a00e014:	70186038 68186058 78186078 64186098     8`.pX`.hx`.x.`.d
1a00e024:	741860b8 6c1860d8 7c1860f8 62186118     .`.t.`.l.`.|.a.b
1a00e034:	72186138 6a186158 7a186178 66186198     8a.rXa.jxa.z.a.f
1a00e044:	761861b8 6e1861d8 7e1861f8 71186238     .a.v.a.n.a.~8b.q
1a00e054:	69186258 79186278 65186298 751862b8     Xb.ixb.y.b.e.b.u
1a00e064:	6d1862d8 7d1862f8 73186338 6b186358     .b.m.b.}8c.sXc.k
1a00e074:	7b186378 67186398 771863b8 6f1863d8     xc.{.c.g.c.w.c.o
1a00e084:	7f1863f8 70986438 68986458 78986478     .c..8d.pXd.hxd.x
1a00e094:	749864b8 6c9864d8 7c9864f8 72986538     .d.t.d.l.d.|8e.r
1a00e0a4:	6a986558 7a986578 66986598 769865b8     Xe.jxe.z.e.f.e.v
1a00e0b4:	6e9865d8 7e9865f8 71986638 69986658     .e.n.e.~8f.qXf.i
1a00e0c4:	79986678 759866b8 6d9866d8 7d9866f8     xf.y.f.u.f.m.f.}
1a00e0d4:	73986738 6b986758 7b986778 779867b8     8g.sXg.kxg.{.g.w
1a00e0e4:	6f9867d8 7f9867f8 70586838 78586878     .g.o.g..8hXpxhXx
1a00e0f4:	745868b8 6c5868d8 7c5868f8 72586938     .hXt.hXl.hX|8iXr
1a00e104:	6a586958 7a586978 765869b8 6e5869d8     XiXjxiXz.iXv.iXn
1a00e114:	7e5869f8 71586a38 79586a78 75586ab8     .iX~8jXqxjXy.jXu
1a00e124:	6d586ad8 7d586af8 73586b38 7b586b78     .jXm.jX}8kXsxkX{
1a00e134:	77586bb8 6f586bd8 7f586bf8 70d86c38     .kXw.kXo.kX.8l.p
1a00e144:	78d86c78 74d86cb8 7cd86cf8 72d86d38     xl.x.l.t.l.|8m.r
1a00e154:	7ad86d78 76d86db8 6ed86dd8 7ed86df8     xm.z.m.v.m.n.m.~
1a00e164:	71d86e38 79d86e78 75d86eb8 7dd86ef8     8n.qxn.y.n.u.n.}
1a00e174:	73d86f38 7bd86f78 77d86fb8 7fd86ff8     8o.sxo.{.o.w.o..
1a00e184:	78387078 743870b8 7c3870f8 72387138     xp8x.p8t.p8|8q8r
1a00e194:	7a387178 763871b8 7e3871f8 79387278     xq8z.q8v.q8~xr8y
1a00e1a4:	753872b8 7d3872f8 7b387378 773873b8     .r8u.r8}xs8{.s8w
1a00e1b4:	7f3873f8 78b87478 7cb874f8 7ab87578     .s8.xt.x.t.|xu.z
1a00e1c4:	76b875b8 7eb875f8 79b87678 7db876f8     .u.v.u.~xv.y.v.}
1a00e1d4:	7bb87778 7fb877f8 7c7878f8 7a787978     xw.{.w...xx|xyxz
1a00e1e4:	7e7879f8 7d787af8 7f787bf8 7ef87df8     .yx~.zx}.{x..}.~

1a00e1f4 <armBitRevIndexTable_fixed_1024>:
1a00e1f4:	10000008 08000010 18000018 04000020     ............ ...
1a00e204:	14000028 0c000030 1c000038 02000040     (...0...8...@...
1a00e214:	12000048 0a000050 1a000058 06000060     H...P...X...`...
1a00e224:	16000068 0e000070 1e000078 01000080     h...p...x.......
1a00e234:	11000088 09000090 19000098 050000a0     ................
1a00e244:	150000a8 0d0000b0 1d0000b8 030000c0     ................
1a00e254:	130000c8 0b0000d0 1b0000d8 070000e0     ................
1a00e264:	170000e8 0f0000f0 1f0000f8 10800108     ................
1a00e274:	08800110 18800118 04800120 14800128     ........ ...(...
1a00e284:	0c800130 1c800138 02800140 12800148     0...8...@...H...
1a00e294:	0a800150 1a800158 06800160 16800168     P...X...`...h...
1a00e2a4:	0e800170 1e800178 11800188 09800190     p...x...........
1a00e2b4:	19800198 058001a0 158001a8 0d8001b0     ................
1a00e2c4:	1d8001b8 038001c0 138001c8 0b8001d0     ................
1a00e2d4:	1b8001d8 078001e0 178001e8 0f8001f0     ................
1a00e2e4:	1f8001f8 10400208 08400210 18400218     ......@...@...@.
1a00e2f4:	04400220 14400228 0c400230 1c400238      .@.(.@.0.@.8.@.
1a00e304:	12400248 0a400250 1a400258 06400260     H.@.P.@.X.@.`.@.
1a00e314:	16400268 0e400270 1e400278 11400288     h.@.p.@.x.@...@.
1a00e324:	09400290 19400298 054002a0 154002a8     ..@...@...@...@.
1a00e334:	0d4002b0 1d4002b8 034002c0 134002c8     ..@...@...@...@.
1a00e344:	0b4002d0 1b4002d8 074002e0 174002e8     ..@...@...@...@.
1a00e354:	0f4002f0 1f4002f8 10c00308 08c00310     ..@...@.........
1a00e364:	18c00318 04c00320 14c00328 0cc00330     .... ...(...0...
1a00e374:	1cc00338 12c00348 0ac00350 1ac00358     8...H...P...X...
1a00e384:	06c00360 16c00368 0ec00370 1ec00378     `...h...p...x...
1a00e394:	11c00388 09c00390 19c00398 05c003a0     ................
1a00e3a4:	15c003a8 0dc003b0 1dc003b8 13c003c8     ................
1a00e3b4:	0bc003d0 1bc003d8 07c003e0 17c003e8     ................
1a00e3c4:	0fc003f0 1fc003f8 10200408 08200410     .......... ... .
1a00e3d4:	18200418 14200428 0c200430 1c200438     .. .(. .0. .8. .
1a00e3e4:	12200448 0a200450 1a200458 06200460     H. .P. .X. .`. .
1a00e3f4:	16200468 0e200470 1e200478 11200488     h. .p. .x. ... .
1a00e404:	09200490 19200498 052004a0 152004a8     .. ... ... ... .
1a00e414:	0d2004b0 1d2004b8 132004c8 0b2004d0     .. ... ... ... .
1a00e424:	1b2004d8 072004e0 172004e8 0f2004f0     .. ... ... ... .
1a00e434:	1f2004f8 10a00508 08a00510 18a00518     .. .............
1a00e444:	14a00528 0ca00530 1ca00538 12a00548     (...0...8...H...
1a00e454:	0aa00550 1aa00558 06a00560 16a00568     P...X...`...h...
1a00e464:	0ea00570 1ea00578 11a00588 09a00590     p...x...........
1a00e474:	19a00598 15a005a8 0da005b0 1da005b8     ................
1a00e484:	13a005c8 0ba005d0 1ba005d8 07a005e0     ................
1a00e494:	17a005e8 0fa005f0 1fa005f8 10600608     ..............`.
1a00e4a4:	08600610 18600618 14600628 0c600630     ..`...`.(.`.0.`.
1a00e4b4:	1c600638 12600648 0a600650 1a600658     8.`.H.`.P.`.X.`.
1a00e4c4:	16600668 0e600670 1e600678 11600688     h.`.p.`.x.`...`.
1a00e4d4:	09600690 19600698 156006a8 0d6006b0     ..`...`...`...`.
1a00e4e4:	1d6006b8 136006c8 0b6006d0 1b6006d8     ..`...`...`...`.
1a00e4f4:	076006e0 176006e8 0f6006f0 1f6006f8     ..`...`...`...`.
1a00e504:	10e00708 08e00710 18e00718 14e00728     ............(...
1a00e514:	0ce00730 1ce00738 12e00748 0ae00750     0...8...H...P...
1a00e524:	1ae00758 16e00768 0ee00770 1ee00778     X...h...p...x...
1a00e534:	11e00788 09e00790 19e00798 15e007a8     ................
1a00e544:	0de007b0 1de007b8 13e007c8 0be007d0     ................
1a00e554:	1be007d8 17e007e8 0fe007f0 1fe007f8     ................
1a00e564:	10100808 18100818 14100828 0c100830     ........(...0...
1a00e574:	1c100838 12100848 0a100850 1a100858     8...H...P...X...
1a00e584:	16100868 0e100870 1e100878 11100888     h...p...x.......
1a00e594:	09100890 19100898 151008a8 0d1008b0     ................
1a00e5a4:	1d1008b8 131008c8 0b1008d0 1b1008d8     ................
1a00e5b4:	171008e8 0f1008f0 1f1008f8 10900908     ................
1a00e5c4:	18900918 14900928 0c900930 1c900938     ....(...0...8...
1a00e5d4:	12900948 0a900950 1a900958 16900968     H...P...X...h...
1a00e5e4:	0e900970 1e900978 11900988 19900998     p...x...........
1a00e5f4:	159009a8 0d9009b0 1d9009b8 139009c8     ................
1a00e604:	0b9009d0 1b9009d8 179009e8 0f9009f0     ................
1a00e614:	1f9009f8 10500a08 18500a18 14500a28     ......P...P.(.P.
1a00e624:	0c500a30 1c500a38 12500a48 1a500a58     0.P.8.P.H.P.X.P.
1a00e634:	16500a68 0e500a70 1e500a78 11500a88     h.P.p.P.x.P...P.
1a00e644:	19500a98 15500aa8 0d500ab0 1d500ab8     ..P...P...P...P.
1a00e654:	13500ac8 0b500ad0 1b500ad8 17500ae8     ..P...P...P...P.
1a00e664:	0f500af0 1f500af8 10d00b08 18d00b18     ..P...P.........
1a00e674:	14d00b28 0cd00b30 1cd00b38 12d00b48     (...0...8...H...
1a00e684:	1ad00b58 16d00b68 0ed00b70 1ed00b78     X...h...p...x...
1a00e694:	11d00b88 19d00b98 15d00ba8 0dd00bb0     ................
1a00e6a4:	1dd00bb8 13d00bc8 1bd00bd8 17d00be8     ................
1a00e6b4:	0fd00bf0 1fd00bf8 10300c08 18300c18     ..........0...0.
1a00e6c4:	14300c28 1c300c38 12300c48 1a300c58     (.0.8.0.H.0.X.0.
1a00e6d4:	16300c68 0e300c70 1e300c78 11300c88     h.0.p.0.x.0...0.
1a00e6e4:	19300c98 15300ca8 0d300cb0 1d300cb8     ..0...0...0...0.
1a00e6f4:	13300cc8 1b300cd8 17300ce8 0f300cf0     ..0...0...0...0.
1a00e704:	1f300cf8 10b00d08 18b00d18 14b00d28     ..0.........(...
1a00e714:	1cb00d38 12b00d48 1ab00d58 16b00d68     8...H...X...h...
1a00e724:	0eb00d70 1eb00d78 11b00d88 19b00d98     p...x...........
1a00e734:	15b00da8 1db00db8 13b00dc8 1bb00dd8     ................
1a00e744:	17b00de8 0fb00df0 1fb00df8 10700e08     ..............p.
1a00e754:	18700e18 14700e28 1c700e38 12700e48     ..p.(.p.8.p.H.p.
1a00e764:	1a700e58 16700e68 1e700e78 11700e88     X.p.h.p.x.p...p.
1a00e774:	19700e98 15700ea8 1d700eb8 13700ec8     ..p...p...p...p.
1a00e784:	1b700ed8 17700ee8 0f700ef0 1f700ef8     ..p...p...p...p.
1a00e794:	10f00f08 18f00f18 14f00f28 1cf00f38     ........(...8...
1a00e7a4:	12f00f48 1af00f58 16f00f68 1ef00f78     H...X...h...x...
1a00e7b4:	11f00f88 19f00f98 15f00fa8 1df00fb8     ................
1a00e7c4:	13f00fc8 1bf00fd8 17f00fe8 1ff00ff8     ................
1a00e7d4:	18081018 14081028 1c081038 12081048     ....(...8...H...
1a00e7e4:	1a081058 16081068 1e081078 11081088     X...h...x.......
1a00e7f4:	19081098 150810a8 1d0810b8 130810c8     ................
1a00e804:	1b0810d8 170810e8 1f0810f8 18881118     ................
1a00e814:	14881128 1c881138 12881148 1a881158     (...8...H...X...
1a00e824:	16881168 1e881178 19881198 158811a8     h...x...........
1a00e834:	1d8811b8 138811c8 1b8811d8 178811e8     ................
1a00e844:	1f8811f8 18481218 14481228 1c481238     ......H.(.H.8.H.
1a00e854:	1a481258 16481268 1e481278 19481298     X.H.h.H.x.H...H.
1a00e864:	154812a8 1d4812b8 134812c8 1b4812d8     ..H...H...H...H.
1a00e874:	174812e8 1f4812f8 18c81318 14c81328     ..H...H.....(...
1a00e884:	1cc81338 1ac81358 16c81368 1ec81378     8...X...h...x...
1a00e894:	19c81398 15c813a8 1dc813b8 1bc813d8     ................
1a00e8a4:	17c813e8 1fc813f8 18281418 1c281438     ..........(.8.(.
1a00e8b4:	1a281458 16281468 1e281478 19281498     X.(.h.(.x.(...(.
1a00e8c4:	152814a8 1d2814b8 1b2814d8 172814e8     ..(...(...(...(.
1a00e8d4:	1f2814f8 18a81518 1ca81538 1aa81558     ..(.....8...X...
1a00e8e4:	16a81568 1ea81578 19a81598 1da815b8     h...x...........
1a00e8f4:	1ba815d8 17a815e8 1fa815f8 18681618     ..............h.
1a00e904:	1c681638 1a681658 1e681678 19681698     8.h.X.h.x.h...h.
1a00e914:	1d6816b8 1b6816d8 176816e8 1f6816f8     ..h...h...h...h.
1a00e924:	18e81718 1ce81738 1ae81758 1ee81778     ....8...X...x...
1a00e934:	19e81798 1de817b8 1be817d8 1fe817f8     ................
1a00e944:	1c181838 1a181858 1e181878 19181898     8...X...x.......
1a00e954:	1d1818b8 1b1818d8 1f1818f8 1c981938     ............8...
1a00e964:	1a981958 1e981978 1d9819b8 1b9819d8     X...x...........
1a00e974:	1f9819f8 1c581a38 1e581a78 1d581ab8     ....8.X.x.X...X.
1a00e984:	1b581ad8 1f581af8 1cd81b38 1ed81b78     ..X...X.8...x...
1a00e994:	1dd81bb8 1fd81bf8 1e381c78 1d381cb8     ........x.8...8.
1a00e9a4:	1f381cf8 1eb81d78 1fb81df8 1f781ef8     ..8.x.........x.

1a00e9b4 <twiddleCoef_1024_q15>:
1a00e9b4:	00007fff 00c97fff 01927ffd 025b7ffa     ..............[.
1a00e9c4:	03247ff6 03ed7ff0 04b67fe9 057f7fe1     ..$.............
1a00e9d4:	06477fd8 07107fce 07d97fc2 08a27fb5     ..G.............
1a00e9e4:	096a7fa7 0a337f97 0afb7f87 0bc37f75     ..j...3.....u...
1a00e9f4:	0c8b7f62 0d537f4d 0e1b7f38 0ee37f21     b...M.S.8...!...
1a00ea04:	0fab7f09 10727ef0 11397ed5 12017eba     .....~r..~9..~..
1a00ea14:	12c87e9d 138e7e7f 14557e5f 151b7e3f     .~...~.._~U.?~..
1a00ea24:	15e27e1d 16a87dfa 176d7dd6 18337db0     .~...}...}m..}3.
1a00ea34:	18f87d8a 19bd7d62 1a827d39 1b477d0f     .}..b}..9}...}G.
1a00ea44:	1c0b7ce3 1ccf7cb7 1d937c89 1e567c5a     .|...|...|..Z|V.
1a00ea54:	1f197c29 1fdc7bf8 209f7bc5 21617b92     )|...{...{. .{a!
1a00ea64:	22237b5d 22e57b26 23a67aef 24677ab6     ]{#"&{.".z.#.zg$
1a00ea74:	25287a7d 25e87a42 26a87a05 276779c8     }z(%Bz.%.z.&.yg'
1a00ea84:	2826798a 28e5794a 29a37909 2a6178c7     .y&(Jy.(.y.).xa*
1a00ea94:	2b1f7884 2bdc7840 2c9877fa 2d5577b4     .x.+@x.+.w.,.wU-
1a00eaa4:	2e11776c 2ecc7723 2f8776d9 3041768e     lw..#w...v./.vA0
1a00eab4:	30fb7641 31b575f4 326e75a5 33267555     Av.0.u.1.un2Uu&3
1a00eac4:	33de7504 349674b2 354d745f 3604740b     .u.3.t.4_tM5.t.6
1a00ead4:	36ba73b5 376f735f 38247307 38d872af     .s.6_so7.s$8.r.8
1a00eae4:	398c7255 3a4071fa 3af2719e 3ba57141     Ur.9.q@:.q.:Aq.;
1a00eaf4:	3c5670e2 3d077083 3db87023 3e686fc1     .pV<.p.=#p.=.oh>
1a00eb04:	3f176f5f 3fc56efb 40736e96 41216e30     _o.?.n.?.ns@0n!A
1a00eb14:	41ce6dca 427a6d62 43256cf9 43d06c8f     .m.AbmzB.l%C.l.C
1a00eb24:	447a6c24 45246bb8 45cd6b4a 46756adc     $lzD.k$EJk.E.juF
1a00eb34:	471c6a6d 47c369fd 4869698c 490f6919     mj.G.i.G.iiH.i.I
1a00eb44:	49b468a6 4a586832 4afb67bd 4b9e6746     .h.I2hXJ.g.JFg.K
1a00eb54:	4c3f66cf 4ce16657 4d8165dd 4e216563     .f?LWf.L.e.Mce!N
1a00eb64:	4ebf64e8 4f5e646c 4ffb63ef 50976371     .d.Nld^O.c.Oqc.P
1a00eb74:	513362f2 51ce6271 526961f1 5302616f     .b3Qqb.Q.aiRoa.S
1a00eb84:	539b60ec 54336068 54ca5fe3 55605f5e     .`.Sh`3T._.T^_`U
1a00eb94:	55f55ed7 568a5e50 571d5dc7 57b05d3e     .^.UP^.V.].W>].W
1a00eba4:	58425cb4 58d45c29 59645b9d 59f35b10     .\BX)\.X.[dY.[.Y
1a00ebb4:	5a825a82 5b1059f3 5b9d5964 5c2958d4     .Z.Z.Y.[dY.[.X)\
1a00ebc4:	5cb45842 5d3e57b0 5dc7571d 5e50568a     BX.\.W>].W.].VP^
1a00ebd4:	5ed755f5 5f5e5560 5fe354ca 60685433     .U.^`U^_.T._3Th`
1a00ebe4:	60ec539b 616f5302 61f15269 627151ce     .S.`.SoaiR.a.Qqb
1a00ebf4:	62f25133 63715097 63ef4ffb 646c4f5e     3Q.b.Pqc.O.c^Old
1a00ec04:	64e84ebf 65634e21 65dd4d81 66574ce1     .N.d!Nce.M.e.LWf
1a00ec14:	66cf4c3f 67464b9e 67bd4afb 68324a58     ?L.f.KFg.J.gXJ2h
1a00ec24:	68a649b4 6919490f 698c4869 69fd47c3     .I.h.I.iiH.i.G.i
1a00ec34:	6a6d471c 6adc4675 6b4a45cd 6bb84524     .GmjuF.j.EJk$E.k
1a00ec44:	6c24447a 6c8f43d0 6cf94325 6d62427a     zD$l.C.l%C.lzBbm
1a00ec54:	6dca41ce 6e304121 6e964073 6efb3fc5     .A.m!A0ns@.n.?.n
1a00ec64:	6f5f3f17 6fc13e68 70233db8 70833d07     .?_oh>.o.=#p.=.p
1a00ec74:	70e23c56 71413ba5 719e3af2 71fa3a40     V<.p.;Aq.:.q@:.q
1a00ec84:	7255398c 72af38d8 73073824 735f376f     .9Ur.8.r$8.so7_s
1a00ec94:	73b536ba 740b3604 745f354d 74b23496     .6.s.6.tM5_t.4.t
1a00eca4:	750433de 75553326 75a5326e 75f431b5     .3.u&3Uun2.u.1.u
1a00ecb4:	764130fb 768e3041 76d92f87 77232ecc     .0AvA0.v./.v..#w
1a00ecc4:	776c2e11 77b42d55 77fa2c98 78402bdc     ..lwU-.w.,.w.+@x
1a00ecd4:	78842b1f 78c72a61 790929a3 794a28e5     .+.xa*.x.).y.(Jy
1a00ece4:	798a2826 79c82767 7a0526a8 7a4225e8     &(.yg'.y.&.z.%Bz
1a00ecf4:	7a7d2528 7ab62467 7aef23a6 7b2622e5     (%}zg$.z.#.z."&{
1a00ed04:	7b5d2223 7b922161 7bc5209f 7bf81fdc     #"]{a!.{. .{...{
1a00ed14:	7c291f19 7c5a1e56 7c891d93 7cb71ccf     ..)|V.Z|...|...|
1a00ed24:	7ce31c0b 7d0f1b47 7d391a82 7d6219bd     ...|G..}..9}..b}
1a00ed34:	7d8a18f8 7db01833 7dd6176d 7dfa16a8     ...}3..}m..}...}
1a00ed44:	7e1d15e2 7e3f151b 7e5f1455 7e7f138e     ...~..?~U._~...~
1a00ed54:	7e9d12c8 7eba1201 7ed51139 7ef01072     ...~...~9..~r..~
1a00ed64:	7f090fab 7f210ee3 7f380e1b 7f4d0d53     ......!...8.S.M.
1a00ed74:	7f620c8b 7f750bc3 7f870afb 7f970a33     ..b...u.....3...
1a00ed84:	7fa7096a 7fb508a2 7fc207d9 7fce0710     j...............
1a00ed94:	7fd80647 7fe1057f 7fe904b6 7ff003ed     G...............
1a00eda4:	7ff60324 7ffa025b 7ffd0192 7fff00c9     $...[...........
1a00edb4:	7fff0000 7fffff36 7ffdfe6d 7ffafda4     ....6...m.......
1a00edc4:	7ff6fcdb 7ff0fc12 7fe9fb49 7fe1fa80     ........I.......
1a00edd4:	7fd8f9b8 7fcef8ef 7fc2f826 7fb5f75d     ........&...]...
1a00ede4:	7fa7f695 7f97f5cc 7f87f504 7f75f43c     ............<.u.
1a00edf4:	7f62f374 7f4df2ac 7f38f1e4 7f21f11c     t.b...M...8...!.
1a00ee04:	7f09f054 7ef0ef8d 7ed5eec6 7ebaedfe     T......~...~...~
1a00ee14:	7e9ded37 7e7fec71 7e5febaa 7e3feae4     7..~q..~.._~..?~
1a00ee24:	7e1dea1d 7dfae957 7dd6e892 7db0e7cc     ...~W..}...}...}
1a00ee34:	7d8ae707 7d62e642 7d39e57d 7d0fe4b8     ...}B.b}}.9}...}
1a00ee44:	7ce3e3f4 7cb7e330 7c89e26c 7c5ae1a9     ...|0..|l..|..Z|
1a00ee54:	7c29e0e6 7bf8e023 7bc5df60 7b92de9e     ..)|#..{`..{...{
1a00ee64:	7b5ddddc 7b26dd1a 7aefdc59 7ab6db98     ..]{..&{Y..z...z
1a00ee74:	7a7ddad7 7a42da17 7a05d957 79c8d898     ..}z..BzW..z...y
1a00ee84:	798ad7d9 794ad71a 7909d65c 78c7d59e     ...y..Jy\..y...x
1a00ee94:	7884d4e0 7840d423 77fad367 77b4d2aa     ...x#.@xg..w...w
1a00eea4:	776cd1ee 7723d133 76d9d078 768ecfbe     ..lw3.#wx..v...v
1a00eeb4:	7641cf04 75f4ce4a 75a5cd91 7555ccd9     ..AvJ..u...u..Uu
1a00eec4:	7504cc21 74b2cb69 745fcab2 740bc9fb     !..ui..t.._t...t
1a00eed4:	73b5c945 735fc890 7307c7db 72afc727     E..s.._s...s'..r
1a00eee4:	7255c673 71fac5bf 719ec50d 7141c45a     s.Ur...q...qZ.Aq
1a00eef4:	70e2c3a9 7083c2f8 7023c247 6fc1c197     ...p...pG.#p...o
1a00ef04:	6f5fc0e8 6efbc03a 6e96bf8c 6e30bede     .._o:..n...n..0n
1a00ef14:	6dcabe31 6d62bd85 6cf9bcda 6c8fbc2f     1..m..bm...l/..l
1a00ef24:	6c24bb85 6bb8badb 6b4aba32 6adcb98a     ..$l...k2.Jk...j
1a00ef34:	6a6db8e3 69fdb83c 698cb796 6919b6f0     ..mj<..i...i...i
1a00ef44:	68a6b64b 6832b5a7 67bdb504 6746b461     K..h..2h...ga.Fg
1a00ef54:	66cfb3c0 6657b31e 65ddb27e 6563b1de     ...f..Wf~..e..ce
1a00ef64:	64e8b140 646cb0a1 63efb004 6371af68     @..d..ld...ch.qc
1a00ef74:	62f2aecc 6271ae31 61f1ad96 616facfd     ...b1.qb...a..oa
1a00ef84:	60ecac64 6068abcc 5fe3ab35 5f5eaa9f     d..`..h`5.._..^_
1a00ef94:	5ed7aa0a 5e50a975 5dc7a8e2 5d3ea84f     ...^u.P^...]O.>]
1a00efa4:	5cb4a7bd 5c29a72b 5b9da69b 5b10a60c     ...\+.)\...[...[
1a00efb4:	5a82a57d 59f3a4ef 5964a462 58d4a3d6     }..Z...Yb.dY...X
1a00efc4:	5842a34b 57b0a2c1 571da238 568aa1af     K.BX...W8..W...V
1a00efd4:	55f5a128 5560a0a1 54caa01c 54339f97     (..U..`U...T..3T
1a00efe4:	539b9f13 53029e90 52699e0e 51ce9d8e     ...S...S..iR...Q
1a00eff4:	51339d0d 50979c8e 4ffb9c10 4f5e9b93     ..3Q...P...O..^O
1a00f004:	4ebf9b17 4e219a9c 4d819a22 4ce199a8     ...N..!N"..M...L
1a00f014:	4c3f9930 4b9e98b9 4afb9842 4a5897cd     0.?L...KB..J..XJ
1a00f024:	49b49759 490f96e6 48699673 47c39602     Y..I...Is.iH...G
1a00f034:	471c9592 46759523 45cd94b5 45249447     ...G#.uF...EG.$E
1a00f044:	447a93db 43d09370 43259306 427a929d     ..zDp..C..%C..zB
1a00f054:	41ce9235 412191cf 40739169 3fc59104     5..A..!Ai.s@...?
1a00f064:	3f1790a0 3e68903e 3db88fdc 3d078f7c     ...?>.h>...=|..=
1a00f074:	3c568f1d 3ba58ebe 3af28e61 3a408e05     ..V<...;a..:..@:
1a00f084:	398c8daa 38d88d50 38248cf8 376f8ca0     ...9P..8..$8..o7
1a00f094:	36ba8c4a 36048bf4 354d8ba0 34968b4d     J..6...6..M5M..4
1a00f0a4:	33de8afb 33268aaa 326e8a5a 31b58a0b     ...3..&3Z.n2...1
1a00f0b4:	30fb89be 30418971 2f878926 2ecc88dc     ...0q.A0&../....
1a00f0c4:	2e118893 2d55884b 2c988805 2bdc87bf     ....K.U-...,...+
1a00f0d4:	2b1f877b 2a618738 29a386f6 28e586b5     {..+8.a*...)...(
1a00f0e4:	28268675 27678637 26a885fa 25e885bd     u.&(7.g'...&...%
1a00f0f4:	25288582 24678549 23a68510 22e584d9     ..(%I.g$...#..."
1a00f104:	222384a2 2161846d 209f843a 1fdc8407     ..#"m.a!:.. ....
1a00f114:	1f1983d6 1e5683a5 1d938376 1ccf8348     ......V.v...H...
1a00f124:	1c0b831c 1b4782f0 1a8282c6 19bd829d     ......G.........
1a00f134:	18f88275 1833824f 176d8229 16a88205     u...O.3.).m.....
1a00f144:	15e281e2 151b81c0 145581a0 138e8180     ..........U.....
1a00f154:	12c88162 12018145 1139812a 1072810f     b...E...*.9...r.
1a00f164:	0fab80f6 0ee380de 0e1b80c7 0d5380b2     ..............S.
1a00f174:	0c8b809d 0bc3808a 0afb8078 0a338068     ........x...h.3.
1a00f184:	096a8058 08a2804a 07d9803d 07108031     X.j.J...=...1...
1a00f194:	06478027 057f801e 04b68016 03ed800f     '.G.............
1a00f1a4:	03248009 025b8005 01928002 00c98000     ..$...[.........
1a00f1b4:	00008000 ff368000 fe6d8002 fda48005     ......6...m.....
1a00f1c4:	fcdb8009 fc12800f fb498016 fa80801e     ..........I.....
1a00f1d4:	f9b88027 f8ef8031 f826803d f75d804a     '...1...=.&.J.].
1a00f1e4:	f6958058 f5cc8068 f5048078 f43c808a     X...h...x.....<.
1a00f1f4:	f374809d f2ac80b2 f1e480c7 f11c80de     ..t.............
1a00f204:	f05480f6 ef8d810f eec6812a edfe8145     ..T.....*...E...
1a00f214:	ed378162 ec718180 ebaa81a0 eae481c0     b.7...q.........
1a00f224:	ea1d81e2 e9578205 e8928229 e7cc824f     ......W.)...O...
1a00f234:	e7078275 e642829d e57d82c6 e4b882f0     u.....B...}.....
1a00f244:	e3f4831c e3308348 e26c8376 e1a983a5     ....H.0.v.l.....
1a00f254:	e0e683d6 e0238407 df60843a de9e846d     ......#.:.`.m...
1a00f264:	dddc84a2 dd1a84d9 dc598510 db988549     ..........Y.I...
1a00f274:	dad78582 da1785bd d95785fa d8988637     ..........W.7...
1a00f284:	d7d98675 d71a86b5 d65c86f6 d59e8738     u.........\.8...
1a00f294:	d4e0877b d42387bf d3678805 d2aa884b     {.....#...g.K...
1a00f2a4:	d1ee8893 d13388dc d0788926 cfbe8971     ......3.&.x.q...
1a00f2b4:	cf0489be ce4a8a0b cd918a5a ccd98aaa     ......J.Z.......
1a00f2c4:	cc218afb cb698b4d cab28ba0 c9fb8bf4     ..!.M.i.........
1a00f2d4:	c9458c4a c8908ca0 c7db8cf8 c7278d50     J.E.........P.'.
1a00f2e4:	c6738daa c5bf8e05 c50d8e61 c45a8ebe     ..s.....a.....Z.
1a00f2f4:	c3a98f1d c2f88f7c c2478fdc c197903e     ....|.....G.>...
1a00f304:	c0e890a0 c03a9104 bf8c9169 bede91cf     ......:.i.......
1a00f314:	be319235 bd85929d bcda9306 bc2f9370     5.1.........p./.
1a00f324:	bb8593db badb9447 ba3294b5 b98a9523     ....G.....2.#...
1a00f334:	b8e39592 b83c9602 b7969673 b6f096e6     ......<.s.......
1a00f344:	b64b9759 b5a797cd b5049842 b46198b9     Y.K.....B.....a.
1a00f354:	b3c09930 b31e99a8 b27e9a22 b1de9a9c     0.......".~.....
1a00f364:	b1409b17 b0a19b93 b0049c10 af689c8e     ..@...........h.
1a00f374:	aecc9d0d ae319d8e ad969e0e acfd9e90     ......1.........
1a00f384:	ac649f13 abcc9f97 ab35a01c aa9fa0a1     ..d.......5.....
1a00f394:	aa0aa128 a975a1af a8e2a238 a84fa2c1     (.....u.8.....O.
1a00f3a4:	a7bda34b a72ba3d6 a69ba462 a60ca4ef     K.....+.b.......
1a00f3b4:	a57da57d a4efa60c a462a69b a3d6a72b     }.}.......b.+...
1a00f3c4:	a34ba7bd a2c1a84f a238a8e2 a1afa975     ..K.O.....8.u...
1a00f3d4:	a128aa0a a0a1aa9f a01cab35 9f97abcc     ..(.....5.......
1a00f3e4:	9f13ac64 9e90acfd 9e0ead96 9d8eae31     d...........1...
1a00f3f4:	9d0daecc 9c8eaf68 9c10b004 9b93b0a1     ....h...........
1a00f404:	9b17b140 9a9cb1de 9a22b27e 99a8b31e     @.......~.".....
1a00f414:	9930b3c0 98b9b461 9842b504 97cdb5a7     ..0.a.....B.....
1a00f424:	9759b64b 96e6b6f0 9673b796 9602b83c     K.Y.......s.<...
1a00f434:	9592b8e3 9523b98a 94b5ba32 9447badb     ......#.2.....G.
1a00f444:	93dbbb85 9370bc2f 9306bcda 929dbd85     ..../.p.........
1a00f454:	9235be31 91cfbede 9169bf8c 9104c03a     1.5.......i.:...
1a00f464:	90a0c0e8 903ec197 8fdcc247 8f7cc2f8     ......>.G.....|.
1a00f474:	8f1dc3a9 8ebec45a 8e61c50d 8e05c5bf     ....Z.....a.....
1a00f484:	8daac673 8d50c727 8cf8c7db 8ca0c890     s...'.P.........
1a00f494:	8c4ac945 8bf4c9fb 8ba0cab2 8b4dcb69     E.J.........i.M.
1a00f4a4:	8afbcc21 8aaaccd9 8a5acd91 8a0bce4a     !.........Z.J...
1a00f4b4:	89becf04 8971cfbe 8926d078 88dcd133     ......q.x.&.3...
1a00f4c4:	8893d1ee 884bd2aa 8805d367 87bfd423     ......K.g...#...
1a00f4d4:	877bd4e0 8738d59e 86f6d65c 86b5d71a     ..{...8.\.......
1a00f4e4:	8675d7d9 8637d898 85fad957 85bdda17     ..u...7.W.......
1a00f4f4:	8582dad7 8549db98 8510dc59 84d9dd1a     ......I.Y.......
1a00f504:	84a2dddc 846dde9e 843adf60 8407e023     ......m.`.:.#...
1a00f514:	83d6e0e6 83a5e1a9 8376e26c 8348e330     ........l.v.0.H.
1a00f524:	831ce3f4 82f0e4b8 82c6e57d 829de642     ........}...B...
1a00f534:	8275e707 824fe7cc 8229e892 8205e957     ..u...O...).W...
1a00f544:	81e2ea1d 81c0eae4 81a0ebaa 8180ec71     ............q...
1a00f554:	8162ed37 8145edfe 812aeec6 810fef8d     7.b...E...*.....
1a00f564:	80f6f054 80def11c 80c7f1e4 80b2f2ac     T...............
1a00f574:	809df374 808af43c 8078f504 8068f5cc     t...<.....x...h.
1a00f584:	8058f695 804af75d 803df826 8031f8ef     ..X.].J.&.=...1.
1a00f594:	8027f9b8 801efa80 8016fb49 800ffc12     ..'.....I.......
1a00f5a4:	8009fcdb 8005fda4 8002fe6d 8000ff36     ........m...6...

1a00f5b4 <twiddleCoef_32_q15>:
1a00f5b4:	00007fff 18f87d8a 30fb7641 471c6a6d     .....}..Av.0mj.G
1a00f5c4:	5a825a82 6a6d471c 764130fb 7d8a18f8     .Z.Z.Gmj.0Av...}
1a00f5d4:	7fff0000 7d8ae707 7641cf04 6a6db8e3     .......}..Av..mj
1a00f5e4:	5a82a57d 471c9592 30fb89be 18f88275     }..Z...G...0u...
1a00f5f4:	00008000 e7078275 cf0489be b8e39592     ....u...........
1a00f604:	a57da57d 9592b8e3 89becf04 8275e707     }.}...........u.

1a00f614 <twiddleCoef_4096_q15>:
1a00f614:	00007fff 00327fff 00647fff 00967fff     ......2...d.....
1a00f624:	00c97fff 00fb7fff 012d7ffe 015f7ffe     ..........-..._.
1a00f634:	01927ffd 01c47ffc 01f67ffc 02287ffb     ..............(.
1a00f644:	025b7ffa 028d7ff9 02bf7ff8 02f17ff7     ..[.............
1a00f654:	03247ff6 03567ff4 03887ff3 03ba7ff2     ..$...V.........
1a00f664:	03ed7ff0 041f7fee 04517fed 04837feb     ..........Q.....
1a00f674:	04b67fe9 04e87fe7 051a7fe5 054c7fe3     ..............L.
1a00f684:	057f7fe1 05b17fdf 05e37fdd 06157fda     ................
1a00f694:	06477fd8 067a7fd6 06ac7fd3 06de7fd0     ..G...z.........
1a00f6a4:	07107fce 07427fcb 07757fc8 07a77fc5     ......B...u.....
1a00f6b4:	07d97fc2 080b7fbf 083d7fbc 086f7fb8     ..........=...o.
1a00f6c4:	08a27fb5 08d47fb1 09067fae 09387faa     ..............8.
1a00f6d4:	096a7fa7 099c7fa3 09ce7f9f 0a007f9b     ..j.............
1a00f6e4:	0a337f97 0a657f93 0a977f8f 0ac97f8b     ..3...e.........
1a00f6f4:	0afb7f87 0b2d7f82 0b5f7f7e 0b917f79     ......-.~._.y...
1a00f704:	0bc37f75 0bf57f70 0c277f6b 0c597f67     u...p...k.'.g.Y.
1a00f714:	0c8b7f62 0cbd7f5d 0cef7f58 0d217f53     b...]...X...S.!.
1a00f724:	0d537f4d 0d857f48 0db77f43 0de97f3d     M.S.H...C...=...
1a00f734:	0e1b7f38 0e4d7f32 0e7f7f2d 0eb17f27     8...2.M.-...'...
1a00f744:	0ee37f21 0f157f1b 0f477f15 0f797f0f     !.........G...y.
1a00f754:	0fab7f09 0fdd7f03 100e7efd 10407ef6     .........~...~@.
1a00f764:	10727ef0 10a47ee9 10d67ee3 11087edc     .~r..~...~...~..
1a00f774:	11397ed5 116b7ecf 119d7ec8 11cf7ec1     .~9..~k..~...~..
1a00f784:	12017eba 12327eb3 12647eab 12967ea4     .~...~2..~d..~..
1a00f794:	12c87e9d 12f97e95 132b7e8e 135d7e86     .~...~...~+..~].
1a00f7a4:	138e7e7f 13c07e77 13f27e6f 14237e67     .~..w~..o~..g~#.
1a00f7b4:	14557e5f 14877e57 14b87e4f 14ea7e47     _~U.W~..O~..G~..
1a00f7c4:	151b7e3f 154d7e37 157f7e2e 15b07e26     ?~..7~M..~..&~..
1a00f7d4:	15e27e1d 16137e14 16457e0c 16767e03     .~...~...~E..~v.
1a00f7e4:	16a87dfa 16d97df1 170a7de8 173c7ddf     .}...}...}...}<.
1a00f7f4:	176d7dd6 179f7dcd 17d07dc3 18027dba     .}m..}...}...}..
1a00f804:	18337db0 18647da7 18967d9d 18c77d94     .}3..}d..}...}..
1a00f814:	18f87d8a 192a7d80 195b7d76 198c7d6c     .}...}*.v}[.l}..
1a00f824:	19bd7d62 19ef7d58 1a207d4e 1a517d43     b}..X}..N} .C}Q.
1a00f834:	1a827d39 1ab37d2f 1ae47d24 1b167d19     9}../}..$}...}..
1a00f844:	1b477d0f 1b787d04 1ba97cf9 1bda7cee     .}G..}x..|...|..
1a00f854:	1c0b7ce3 1c3c7cd8 1c6d7ccd 1c9e7cc2     .|...|<..|m..|..
1a00f864:	1ccf7cb7 1d007cab 1d317ca0 1d627c94     .|...|...|1..|b.
1a00f874:	1d937c89 1dc47c7d 1df57c71 1e257c66     .|..}|..q|..f|%.
1a00f884:	1e567c5a 1e877c4e 1eb87c42 1ee97c36     Z|V.N|..B|..6|..
1a00f894:	1f197c29 1f4a7c1d 1f7b7c11 1fac7c05     )|...|J..|{..|..
1a00f8a4:	1fdc7bf8 200d7beb 203e7bdf 206e7bd2     .{...{. .{> .{n 
1a00f8b4:	209f7bc5 20d07bb9 21007bac 21317b9f     .{. .{. .{.!.{1!
1a00f8c4:	21617b92 21927b84 21c27b77 21f37b6a     .{a!.{.!w{.!j{.!
1a00f8d4:	22237b5d 22547b4f 22847b42 22b47b34     ]{#"O{T"B{."4{."
1a00f8e4:	22e57b26 23157b19 23457b0b 23767afd     &{.".{.#.{E#.zv#
1a00f8f4:	23a67aef 23d67ae1 24077ad3 24377ac5     .z.#.z.#.z.$.z7$
1a00f904:	24677ab6 24977aa8 24c77a9a 24f77a8b     .zg$.z.$.z.$.z.$
1a00f914:	25287a7d 25587a6e 25887a5f 25b87a50     }z(%nzX%_z.%Pz.%
1a00f924:	25e87a42 26187a33 26487a24 26787a15     Bz.%3z.&$zH&.zx&
1a00f934:	26a87a05 26d879f6 270779e7 273779d8     .z.&.y.&.y.'.y7'
1a00f944:	276779c8 279779b9 27c779a9 27f67999     .yg'.y.'.y.'.y.'
1a00f954:	2826798a 2856797a 2886796a 28b5795a     .y&(zyV(jy.(Zy.(
1a00f964:	28e5794a 2915793a 2944792a 29747919     Jy.(:y.)*yD).yt)
1a00f974:	29a37909 29d378f9 2a0278e8 2a3278d8     .y.).x.).x.*.x2*
1a00f984:	2a6178c7 2a9178b6 2ac078a6 2aef7895     .xa*.x.*.x.*.x.*
1a00f994:	2b1f7884 2b4e7873 2b7d7862 2bad7851     .x.+sxN+bx}+Qx.+
1a00f9a4:	2bdc7840 2c0b782e 2c3a781d 2c69780c     @x.+.x.,.x:,.xi,
1a00f9b4:	2c9877fa 2cc877e9 2cf777d7 2d2677c5     .w.,.w.,.w.,.w&-
1a00f9c4:	2d5577b4 2d8477a2 2db37790 2de2777e     .wU-.w.-.w.-~w.-
1a00f9d4:	2e11776c 2e3f775a 2e6e7747 2e9d7735     lw..Zw?.Gwn.5w..
1a00f9e4:	2ecc7723 2efb7710 2f2976fe 2f5876eb     #w...w...v)/.vX/
1a00f9f4:	2f8776d9 2fb576c6 2fe476b3 301376a0     .v./.v./.v./.v.0
1a00fa04:	3041768e 3070767b 309e7668 30cd7654     .vA0{vp0hv.0Tv.0
1a00fa14:	30fb7641 312a762e 3158761b 31867607     Av.0.v*1.vX1.v.1
1a00fa24:	31b575f4 31e375e0 321175cc 324075b9     .u.1.u.1.u.2.u@2
1a00fa34:	326e75a5 329c7591 32ca757d 32f87569     .un2.u.2}u.2iu.2
1a00fa44:	33267555 33547541 3382752d 33b07519     Uu&3AuT3-u.3.u.3
1a00fa54:	33de7504 340c74f0 343a74db 346874c7     .u.3.t.4.t:4.th4
1a00fa64:	349674b2 34c4749e 34f27489 351f7474     .t.4.t.4.t.4tt.5
1a00fa74:	354d745f 357b744a 35a87435 35d67420     _tM5Jt{55t.5 t.5
1a00fa84:	3604740b 363173f6 365f73e0 368c73cb     .t.6.s16.s_6.s.6
1a00fa94:	36ba73b5 36e773a0 3714738a 37427375     .s.6.s.6.s.7usB7
1a00faa4:	376f735f 379c7349 37ca7333 37f7731d     _so7Is.73s.7.s.7
1a00fab4:	38247307 385172f1 387e72db 38ab72c5     .s$8.rQ8.r~8.r.8
1a00fac4:	38d872af 39067298 39327282 395f726b     .r.8.r.9.r29kr_9
1a00fad4:	398c7255 39b9723e 39e67227 3a137211     Ur.9>r.9'r.9.r.:
1a00fae4:	3a4071fa 3a6c71e3 3a9971cc 3ac671b5     .q@:.ql:.q.:.q.:
1a00faf4:	3af2719e 3b1f7186 3b4c716f 3b787158     .q.:.q.;oqL;Xqx;
1a00fb04:	3ba57141 3bd17129 3bfd7112 3c2a70fa     Aq.;)q.;.q.;.p*<
1a00fb14:	3c5670e2 3c8370cb 3caf70b3 3cdb709b     .pV<.p.<.p.<.p.<
1a00fb24:	3d077083 3d33706b 3d607053 3d8c703b     .p.=kp3=Sp`=;p.=
1a00fb34:	3db87023 3de4700a 3e106ff2 3e3c6fda     #p.=.p.=.o.>.o<>
1a00fb44:	3e686fc1 3e936fa9 3ebf6f90 3eeb6f77     .oh>.o.>.o.>wo.>
1a00fb54:	3f176f5f 3f436f46 3f6e6f2d 3f9a6f14     _o.?FoC?-on?.o.?
1a00fb64:	3fc56efb 3ff16ee2 401d6ec9 40486eaf     .n.?.n.?.n.@.nH@
1a00fb74:	40736e96 409f6e7d 40ca6e63 40f66e4a     .ns@}n.@cn.@Jn.@
1a00fb84:	41216e30 414c6e17 41776dfd 41a26de3     0n!A.nLA.mwA.m.A
1a00fb94:	41ce6dca 41f96db0 42246d96 424f6d7c     .m.A.m.A.m$B|mOB
1a00fba4:	427a6d62 42a56d48 42d06d2d 42fa6d13     bmzBHm.B-m.B.m.B
1a00fbb4:	43256cf9 43506cde 437b6cc4 43a56ca9     .l%C.lPC.l{C.l.C
1a00fbc4:	43d06c8f 43fb6c74 44256c59 44506c3f     .l.Ctl.CYl%D?lPD
1a00fbd4:	447a6c24 44a56c09 44cf6bee 44fa6bd3     $lzD.l.D.k.D.k.D
1a00fbe4:	45246bb8 454e6b9c 45786b81 45a36b66     .k$E.kNE.kxEfk.E
1a00fbf4:	45cd6b4a 45f76b2f 46216b13 464b6af8     Jk.E/k.E.k!F.jKF
1a00fc04:	46756adc 469f6ac1 46c96aa5 46f36a89     .juF.j.F.j.F.j.F
1a00fc14:	471c6a6d 47466a51 47706a35 479a6a19     mj.GQjFG5jpG.j.G
1a00fc24:	47c369fd 47ed69e1 481669c4 484069a8     .i.G.i.G.i.H.i@H
1a00fc34:	4869698c 4893696f 48bc6953 48e66936     .iiHoi.HSi.H6i.H
1a00fc44:	490f6919 493868fd 496168e0 498a68c3     .i.I.h8I.haI.h.I
1a00fc54:	49b468a6 49dd6889 4a06686c 4a2f684f     .h.I.h.Ilh.JOh/J
1a00fc64:	4a586832 4a816815 4aa967f7 4ad267da     2hXJ.h.J.g.J.g.J
1a00fc74:	4afb67bd 4b24679f 4b4c6782 4b756764     .g.J.g$K.gLKdguK
1a00fc84:	4b9e6746 4bc66729 4bef670b 4c1766ed     Fg.K)g.K.g.K.f.L
1a00fc94:	4c3f66cf 4c6866b1 4c906693 4cb86675     .f?L.fhL.f.Luf.L
1a00fca4:	4ce16657 4d096639 4d31661a 4d5965fc     Wf.L9f.M.f1M.eYM
1a00fcb4:	4d8165dd 4da965bf 4dd165a0 4df96582     .e.M.e.M.e.M.e.M
1a00fcc4:	4e216563 4e486545 4e706526 4e986507     ce!NEeHN&epN.e.N
1a00fcd4:	4ebf64e8 4ee764c9 4f0f64aa 4f36648b     .d.N.d.N.d.O.d6O
1a00fce4:	4f5e646c 4f85644d 4fac642d 4fd4640e     ld^OMd.O-d.O.d.O
1a00fcf4:	4ffb63ef 502263cf 504963b0 50706390     .c.O.c"P.cIP.cpP
1a00fd04:	50976371 50bf6351 50e56331 510c6311     qc.PQc.P1c.P.c.Q
1a00fd14:	513362f2 515a62d2 518162b2 51a86292     .b3Q.bZQ.b.Q.b.Q
1a00fd24:	51ce6271 51f56251 521c6231 52426211     qb.QQb.Q1b.R.bBR
1a00fd34:	526961f1 528f61d0 52b561b0 52dc618f     .aiR.a.R.a.R.a.R
1a00fd44:	5302616f 5328614e 534e612d 5375610d     oa.SNa(S-aNS.auS
1a00fd54:	539b60ec 53c160cb 53e760aa 540d6089     .`.S.`.S.`.S.`.T
1a00fd64:	54336068 54586047 547e6026 54a46004     h`3TG`XT&`~T.`.T
1a00fd74:	54ca5fe3 54ef5fc2 55155fa0 553a5f7f     ._.T._.T._.U._:U
1a00fd84:	55605f5e 55855f3c 55ab5f1a 55d05ef9     ^_`U<_.U._.U.^.U
1a00fd94:	55f55ed7 561a5eb5 56405e93 56655e71     .^.U.^.V.^@Vq^eV
1a00fda4:	568a5e50 56af5e2d 56d45e0b 56f95de9     P^.V-^.V.^.V.].V
1a00fdb4:	571d5dc7 57425da5 57675d83 578c5d60     .].W.]BW.]gW`].W
1a00fdc4:	57b05d3e 57d55d1b 57f95cf9 581e5cd6     >].W.].W.\.W.\.X
1a00fdd4:	58425cb4 58675c91 588b5c6e 58af5c4b     .\BX.\gXn\.XK\.X
1a00fde4:	58d45c29 58f85c06 591c5be3 59405bc0     )\.X.\.X.[.Y.[@Y
1a00fdf4:	59645b9d 59885b79 59ac5b56 59d05b33     .[dYy[.YV[.Y3[.Y
1a00fe04:	59f35b10 5a175aec 5a3b5ac9 5a5e5aa5     .[.Y.Z.Z.Z;Z.Z^Z
1a00fe14:	5a825a82 5aa55a5e 5ac95a3b 5aec5a17     .Z.Z^Z.Z;Z.Z.Z.Z
1a00fe24:	5b1059f3 5b3359d0 5b5659ac 5b795988     .Y.[.Y3[.YV[.Yy[
1a00fe34:	5b9d5964 5bc05940 5be3591c 5c0658f8     dY.[@Y.[.Y.[.X.\
1a00fe44:	5c2958d4 5c4b58af 5c6e588b 5c915867     .X)\.XK\.Xn\gX.\
1a00fe54:	5cb45842 5cd6581e 5cf957f9 5d1b57d5     BX.\.X.\.W.\.W.]
1a00fe64:	5d3e57b0 5d60578c 5d835767 5da55742     .W>].W`]gW.]BW.]
1a00fe74:	5dc7571d 5de956f9 5e0b56d4 5e2d56af     .W.].V.].V.^.V-^
1a00fe84:	5e50568a 5e715665 5e935640 5eb5561a     .VP^eVq^@V.^.V.^
1a00fe94:	5ed755f5 5ef955d0 5f1a55ab 5f3c5585     .U.^.U.^.U._.U<_
1a00fea4:	5f5e5560 5f7f553a 5fa05515 5fc254ef     `U^_:U._.U._.T._
1a00feb4:	5fe354ca 600454a4 6026547e 60475458     .T._.T.`~T&`XTG`
1a00fec4:	60685433 6089540d 60aa53e7 60cb53c1     3Th`.T.`.S.`.S.`
1a00fed4:	60ec539b 610d5375 612d534e 614e5328     .S.`uS.aNS-a(SNa
1a00fee4:	616f5302 618f52dc 61b052b5 61d0528f     .Soa.R.a.R.a.R.a
1a00fef4:	61f15269 62115242 6231521c 625151f5     iR.aBR.b.R1b.QQb
1a00ff04:	627151ce 629251a8 62b25181 62d2515a     .Qqb.Q.b.Q.bZQ.b
1a00ff14:	62f25133 6311510c 633150e5 635150bf     3Q.b.Q.c.P1c.PQc
1a00ff24:	63715097 63905070 63b05049 63cf5022     .PqcpP.cIP.c"P.c
1a00ff34:	63ef4ffb 640e4fd4 642d4fac 644d4f85     .O.c.O.d.O-d.OMd
1a00ff44:	646c4f5e 648b4f36 64aa4f0f 64c94ee7     ^Old6O.d.O.d.N.d
1a00ff54:	64e84ebf 65074e98 65264e70 65454e48     .N.d.N.epN&eHNEe
1a00ff64:	65634e21 65824df9 65a04dd1 65bf4da9     !Nce.M.e.M.e.M.e
1a00ff74:	65dd4d81 65fc4d59 661a4d31 66394d09     .M.eYM.e1M.f.M9f
1a00ff84:	66574ce1 66754cb8 66934c90 66b14c68     .LWf.Luf.L.fhL.f
1a00ff94:	66cf4c3f 66ed4c17 670b4bef 67294bc6     ?L.f.L.f.K.g.K)g
1a00ffa4:	67464b9e 67644b75 67824b4c 679f4b24     .KFguKdgLK.g$K.g
1a00ffb4:	67bd4afb 67da4ad2 67f74aa9 68154a81     .J.g.J.g.J.g.J.h
1a00ffc4:	68324a58 684f4a2f 686c4a06 688949dd     XJ2h/JOh.Jlh.I.h
1a00ffd4:	68a649b4 68c3498a 68e04961 68fd4938     .I.h.I.haI.h8I.h
1a00ffe4:	6919490f 693648e6 695348bc 696f4893     .I.i.H6i.HSi.Hoi
1a00fff4:	698c4869 69a84840 69c44816 69e147ed     iH.i@H.i.H.i.G.i
1a010004:	69fd47c3 6a19479a 6a354770 6a514746     .G.i.G.jpG5jFGQj
1a010014:	6a6d471c 6a8946f3 6aa546c9 6ac1469f     .Gmj.F.j.F.j.F.j
1a010024:	6adc4675 6af8464b 6b134621 6b2f45f7     uF.jKF.j!F.k.E/k
1a010034:	6b4a45cd 6b6645a3 6b814578 6b9c454e     .EJk.EfkxE.kNE.k
1a010044:	6bb84524 6bd344fa 6bee44cf 6c0944a5     $E.k.D.k.D.k.D.l
1a010054:	6c24447a 6c3f4450 6c594425 6c7443fb     zD$lPD?l%DYl.Ctl
1a010064:	6c8f43d0 6ca943a5 6cc4437b 6cde4350     .C.l.C.l{C.lPC.l
1a010074:	6cf94325 6d1342fa 6d2d42d0 6d4842a5     %C.l.B.m.B-m.BHm
1a010084:	6d62427a 6d7c424f 6d964224 6db041f9     zBbmOB|m$B.m.A.m
1a010094:	6dca41ce 6de341a2 6dfd4177 6e17414c     .A.m.A.mwA.mLA.n
1a0100a4:	6e304121 6e4a40f6 6e6340ca 6e7d409f     !A0n.@Jn.@cn.@}n
1a0100b4:	6e964073 6eaf4048 6ec9401d 6ee23ff1     s@.nH@.n.@.n.?.n
1a0100c4:	6efb3fc5 6f143f9a 6f2d3f6e 6f463f43     .?.n.?.on?-oC?Fo
1a0100d4:	6f5f3f17 6f773eeb 6f903ebf 6fa93e93     .?_o.>wo.>.o.>.o
1a0100e4:	6fc13e68 6fda3e3c 6ff23e10 700a3de4     h>.o<>.o.>.o.=.p
1a0100f4:	70233db8 703b3d8c 70533d60 706b3d33     .=#p.=;p`=Sp3=kp
1a010104:	70833d07 709b3cdb 70b33caf 70cb3c83     .=.p.<.p.<.p.<.p
1a010114:	70e23c56 70fa3c2a 71123bfd 71293bd1     V<.p*<.p.;.q.;)q
1a010124:	71413ba5 71583b78 716f3b4c 71863b1f     .;Aqx;XqL;oq.;.q
1a010134:	719e3af2 71b53ac6 71cc3a99 71e33a6c     .:.q.:.q.:.ql:.q
1a010144:	71fa3a40 72113a13 722739e6 723e39b9     @:.q.:.r.9'r.9>r
1a010154:	7255398c 726b395f 72823932 72983906     .9Ur_9kr29.r.9.r
1a010164:	72af38d8 72c538ab 72db387e 72f13851     .8.r.8.r~8.rQ8.r
1a010174:	73073824 731d37f7 733337ca 7349379c     $8.s.7.s.73s.7Is
1a010184:	735f376f 73753742 738a3714 73a036e7     o7_sB7us.7.s.6.s
1a010194:	73b536ba 73cb368c 73e0365f 73f63631     .6.s.6.s_6.s16.s
1a0101a4:	740b3604 742035d6 743535a8 744a357b     .6.t.5 t.55t{5Jt
1a0101b4:	745f354d 7474351f 748934f2 749e34c4     M5_t.5tt.4.t.4.t
1a0101c4:	74b23496 74c73468 74db343a 74f0340c     .4.th4.t:4.t.4.t
1a0101d4:	750433de 751933b0 752d3382 75413354     .3.u.3.u.3-uT3Au
1a0101e4:	75553326 756932f8 757d32ca 7591329c     &3Uu.2iu.2}u.2.u
1a0101f4:	75a5326e 75b93240 75cc3211 75e031e3     n2.u@2.u.2.u.1.u
1a010204:	75f431b5 76073186 761b3158 762e312a     .1.u.1.vX1.v*1.v
1a010214:	764130fb 765430cd 7668309e 767b3070     .0Av.0Tv.0hvp0{v
1a010224:	768e3041 76a03013 76b32fe4 76c62fb5     A0.v.0.v./.v./.v
1a010234:	76d92f87 76eb2f58 76fe2f29 77102efb     ./.vX/.v)/.v...w
1a010244:	77232ecc 77352e9d 77472e6e 775a2e3f     ..#w..5wn.Gw?.Zw
1a010254:	776c2e11 777e2de2 77902db3 77a22d84     ..lw.-~w.-.w.-.w
1a010264:	77b42d55 77c52d26 77d72cf7 77e92cc8     U-.w&-.w.,.w.,.w
1a010274:	77fa2c98 780c2c69 781d2c3a 782e2c0b     .,.wi,.x:,.x.,.x
1a010284:	78402bdc 78512bad 78622b7d 78732b4e     .+@x.+Qx}+bxN+sx
1a010294:	78842b1f 78952aef 78a62ac0 78b62a91     .+.x.*.x.*.x.*.x
1a0102a4:	78c72a61 78d82a32 78e82a02 78f929d3     a*.x2*.x.*.x.).x
1a0102b4:	790929a3 79192974 792a2944 793a2915     .).yt).yD)*y.):y
1a0102c4:	794a28e5 795a28b5 796a2886 797a2856     .(Jy.(Zy.(jyV(zy
1a0102d4:	798a2826 799927f6 79a927c7 79b92797     &(.y.'.y.'.y.'.y
1a0102e4:	79c82767 79d82737 79e72707 79f626d8     g'.y7'.y.'.y.&.y
1a0102f4:	7a0526a8 7a152678 7a242648 7a332618     .&.zx&.zH&$z.&3z
1a010304:	7a4225e8 7a5025b8 7a5f2588 7a6e2558     .%Bz.%Pz.%_zX%nz
1a010314:	7a7d2528 7a8b24f7 7a9a24c7 7aa82497     (%}z.$.z.$.z.$.z
1a010324:	7ab62467 7ac52437 7ad32407 7ae123d6     g$.z7$.z.$.z.#.z
1a010334:	7aef23a6 7afd2376 7b0b2345 7b192315     .#.zv#.zE#.{.#.{
1a010344:	7b2622e5 7b3422b4 7b422284 7b4f2254     ."&{."4{."B{T"O{
1a010354:	7b5d2223 7b6a21f3 7b7721c2 7b842192     #"]{.!j{.!w{.!.{
1a010364:	7b922161 7b9f2131 7bac2100 7bb920d0     a!.{1!.{.!.{. .{
1a010374:	7bc5209f 7bd2206e 7bdf203e 7beb200d     . .{n .{> .{. .{
1a010384:	7bf81fdc 7c051fac 7c111f7b 7c1d1f4a     ...{...|{..|J..|
1a010394:	7c291f19 7c361ee9 7c421eb8 7c4e1e87     ..)|..6|..B|..N|
1a0103a4:	7c5a1e56 7c661e25 7c711df5 7c7d1dc4     V.Z|%.f|..q|..}|
1a0103b4:	7c891d93 7c941d62 7ca01d31 7cab1d00     ...|b..|1..|...|
1a0103c4:	7cb71ccf 7cc21c9e 7ccd1c6d 7cd81c3c     ...|...|m..|<..|
1a0103d4:	7ce31c0b 7cee1bda 7cf91ba9 7d041b78     ...|...|...|x..}
1a0103e4:	7d0f1b47 7d191b16 7d241ae4 7d2f1ab3     G..}...}..$}../}
1a0103f4:	7d391a82 7d431a51 7d4e1a20 7d5819ef     ..9}Q.C} .N}..X}
1a010404:	7d6219bd 7d6c198c 7d76195b 7d80192a     ..b}..l}[.v}*..}
1a010414:	7d8a18f8 7d9418c7 7d9d1896 7da71864     ...}...}...}d..}
1a010424:	7db01833 7dba1802 7dc317d0 7dcd179f     3..}...}...}...}
1a010434:	7dd6176d 7ddf173c 7de8170a 7df116d9     m..}<..}...}...}
1a010444:	7dfa16a8 7e031676 7e0c1645 7e141613     ...}v..~E..~...~
1a010454:	7e1d15e2 7e2615b0 7e2e157f 7e37154d     ...~..&~...~M.7~
1a010464:	7e3f151b 7e4714ea 7e4f14b8 7e571487     ..?~..G~..O~..W~
1a010474:	7e5f1455 7e671423 7e6f13f2 7e7713c0     U._~#.g~..o~..w~
1a010484:	7e7f138e 7e86135d 7e8e132b 7e9512f9     ...~]..~+..~...~
1a010494:	7e9d12c8 7ea41296 7eab1264 7eb31232     ...~...~d..~2..~
1a0104a4:	7eba1201 7ec111cf 7ec8119d 7ecf116b     ...~...~...~k..~
1a0104b4:	7ed51139 7edc1108 7ee310d6 7ee910a4     9..~...~...~...~
1a0104c4:	7ef01072 7ef61040 7efd100e 7f030fdd     r..~@..~...~....
1a0104d4:	7f090fab 7f0f0f79 7f150f47 7f1b0f15     ....y...G.......
1a0104e4:	7f210ee3 7f270eb1 7f2d0e7f 7f320e4d     ..!...'...-.M.2.
1a0104f4:	7f380e1b 7f3d0de9 7f430db7 7f480d85     ..8...=...C...H.
1a010504:	7f4d0d53 7f530d21 7f580cef 7f5d0cbd     S.M.!.S...X...].
1a010514:	7f620c8b 7f670c59 7f6b0c27 7f700bf5     ..b.Y.g.'.k...p.
1a010524:	7f750bc3 7f790b91 7f7e0b5f 7f820b2d     ..u...y._.~.-...
1a010534:	7f870afb 7f8b0ac9 7f8f0a97 7f930a65     ............e...
1a010544:	7f970a33 7f9b0a00 7f9f09ce 7fa3099c     3...............
1a010554:	7fa7096a 7faa0938 7fae0906 7fb108d4     j...8...........
1a010564:	7fb508a2 7fb8086f 7fbc083d 7fbf080b     ....o...=.......
1a010574:	7fc207d9 7fc507a7 7fc80775 7fcb0742     ........u...B...
1a010584:	7fce0710 7fd006de 7fd306ac 7fd6067a     ............z...
1a010594:	7fd80647 7fda0615 7fdd05e3 7fdf05b1     G...............
1a0105a4:	7fe1057f 7fe3054c 7fe5051a 7fe704e8     ....L...........
1a0105b4:	7fe904b6 7feb0483 7fed0451 7fee041f     ........Q.......
1a0105c4:	7ff003ed 7ff203ba 7ff30388 7ff40356     ............V...
1a0105d4:	7ff60324 7ff702f1 7ff802bf 7ff9028d     $...............
1a0105e4:	7ffa025b 7ffb0228 7ffc01f6 7ffc01c4     [...(...........
1a0105f4:	7ffd0192 7ffe015f 7ffe012d 7fff00fb     ...._...-.......
1a010604:	7fff00c9 7fff0096 7fff0064 7fff0032     ........d...2...
1a010614:	7fff0000 7fffffcd 7fffff9b 7fffff69     ............i...
1a010624:	7fffff36 7fffff04 7ffefed2 7ffefea0     6...............
1a010634:	7ffdfe6d 7ffcfe3b 7ffcfe09 7ffbfdd7     m...;...........
1a010644:	7ffafda4 7ff9fd72 7ff8fd40 7ff7fd0e     ....r...@.......
1a010654:	7ff6fcdb 7ff4fca9 7ff3fc77 7ff2fc45     ........w...E...
1a010664:	7ff0fc12 7feefbe0 7fedfbae 7febfb7c     ............|...
1a010674:	7fe9fb49 7fe7fb17 7fe5fae5 7fe3fab3     I...............
1a010684:	7fe1fa80 7fdffa4e 7fddfa1c 7fdaf9ea     ....N...........
1a010694:	7fd8f9b8 7fd6f985 7fd3f953 7fd0f921     ........S...!...
1a0106a4:	7fcef8ef 7fcbf8bd 7fc8f88a 7fc5f858     ............X...
1a0106b4:	7fc2f826 7fbff7f4 7fbcf7c2 7fb8f790     &...............
1a0106c4:	7fb5f75d 7fb1f72b 7faef6f9 7faaf6c7     ]...+...........
1a0106d4:	7fa7f695 7fa3f663 7f9ff631 7f9bf5ff     ....c...1.......
1a0106e4:	7f97f5cc 7f93f59a 7f8ff568 7f8bf536     ........h...6...
1a0106f4:	7f87f504 7f82f4d2 7f7ef4a0 7f79f46e     ..........~.n.y.
1a010704:	7f75f43c 7f70f40a 7f6bf3d8 7f67f3a6     <.u...p...k...g.
1a010714:	7f62f374 7f5df342 7f58f310 7f53f2de     t.b.B.]...X...S.
1a010724:	7f4df2ac 7f48f27a 7f43f248 7f3df216     ..M.z.H.H.C...=.
1a010734:	7f38f1e4 7f32f1b2 7f2df180 7f27f14e     ..8...2...-.N.'.
1a010744:	7f21f11c 7f1bf0ea 7f15f0b8 7f0ff086     ..!.............
1a010754:	7f09f054 7f03f022 7efdeff1 7ef6efbf     T..."......~...~
1a010764:	7ef0ef8d 7ee9ef5b 7ee3ef29 7edceef7     ...~[..~)..~...~
1a010774:	7ed5eec6 7ecfee94 7ec8ee62 7ec1ee30     ...~...~b..~0..~
1a010784:	7ebaedfe 7eb3edcd 7eabed9b 7ea4ed69     ...~...~...~i..~
1a010794:	7e9ded37 7e95ed06 7e8eecd4 7e86eca2     7..~...~...~...~
1a0107a4:	7e7fec71 7e77ec3f 7e6fec0d 7e67ebdc     q..~?.w~..o~..g~
1a0107b4:	7e5febaa 7e57eb78 7e4feb47 7e47eb15     .._~x.W~G.O~..G~
1a0107c4:	7e3feae4 7e37eab2 7e2eea80 7e26ea4f     ..?~..7~...~O.&~
1a0107d4:	7e1dea1d 7e14e9ec 7e0ce9ba 7e03e989     ...~...~...~...~
1a0107e4:	7dfae957 7df1e926 7de8e8f5 7ddfe8c3     W..}&..}...}...}
1a0107f4:	7dd6e892 7dcde860 7dc3e82f 7dbae7fd     ...}`..}/..}...}
1a010804:	7db0e7cc 7da7e79b 7d9de769 7d94e738     ...}...}i..}8..}
1a010814:	7d8ae707 7d80e6d5 7d76e6a4 7d6ce673     ...}...}..v}s.l}
1a010824:	7d62e642 7d58e610 7d4ee5df 7d43e5ae     B.b}..X}..N}..C}
1a010834:	7d39e57d 7d2fe54c 7d24e51b 7d19e4e9     }.9}L./}..$}...}
1a010844:	7d0fe4b8 7d04e487 7cf9e456 7ceee425     ...}...}V..|%..|
1a010854:	7ce3e3f4 7cd8e3c3 7ccde392 7cc2e361     ...|...|...|a..|
1a010864:	7cb7e330 7cabe2ff 7ca0e2ce 7c94e29d     0..|...|...|...|
1a010874:	7c89e26c 7c7de23b 7c71e20a 7c66e1da     l..|;.}|..q|..f|
1a010884:	7c5ae1a9 7c4ee178 7c42e147 7c36e116     ..Z|x.N|G.B|..6|
1a010894:	7c29e0e6 7c1de0b5 7c11e084 7c05e053     ..)|...|...|S..|
1a0108a4:	7bf8e023 7bebdff2 7bdfdfc1 7bd2df91     #..{...{...{...{
1a0108b4:	7bc5df60 7bb9df2f 7bacdeff 7b9fdece     `..{/..{...{...{
1a0108c4:	7b92de9e 7b84de6d 7b77de3d 7b6ade0c     ...{m..{=.w{..j{
1a0108d4:	7b5ddddc 7b4fddab 7b42dd7b 7b34dd4b     ..]{..O{{.B{K.4{
1a0108e4:	7b26dd1a 7b19dcea 7b0bdcba 7afddc89     ..&{...{...{...z
1a0108f4:	7aefdc59 7ae1dc29 7ad3dbf8 7ac5dbc8     Y..z)..z...z...z
1a010904:	7ab6db98 7aa8db68 7a9adb38 7a8bdb08     ...zh..z8..z...z
1a010914:	7a7ddad7 7a6edaa7 7a5fda77 7a50da47     ..}z..nzw._zG.Pz
1a010924:	7a42da17 7a33d9e7 7a24d9b7 7a15d987     ..Bz..3z..$z...z
1a010934:	7a05d957 79f6d927 79e7d8f8 79d8d8c8     W..z'..y...y...y
1a010944:	79c8d898 79b9d868 79a9d838 7999d809     ...yh..y8..y...y
1a010954:	798ad7d9 797ad7a9 796ad779 795ad74a     ...y..zyy.jyJ.Zy
1a010964:	794ad71a 793ad6ea 792ad6bb 7919d68b     ..Jy..:y..*y...y
1a010974:	7909d65c 78f9d62c 78e8d5fd 78d8d5cd     \..y,..x...x...x
1a010984:	78c7d59e 78b6d56e 78a6d53f 7895d510     ...xn..x?..x...x
1a010994:	7884d4e0 7873d4b1 7862d482 7851d452     ...x..sx..bxR.Qx
1a0109a4:	7840d423 782ed3f4 781dd3c5 780cd396     #.@x...x...x...x
1a0109b4:	77fad367 77e9d337 77d7d308 77c5d2d9     g..w7..w...w...w
1a0109c4:	77b4d2aa 77a2d27b 7790d24c 777ed21d     ...w{..wL..w..~w
1a0109d4:	776cd1ee 775ad1c0 7747d191 7735d162     ..lw..Zw..Gwb.5w
1a0109e4:	7723d133 7710d104 76fed0d6 76ebd0a7     3.#w...w...v...v
1a0109f4:	76d9d078 76c6d04a 76b3d01b 76a0cfec     x..vJ..v...v...v
1a010a04:	768ecfbe 767bcf8f 7668cf61 7654cf32     ...v..{va.hv2.Tv
1a010a14:	7641cf04 762eced5 761bcea7 7607ce79     ..Av...v...vy..v
1a010a24:	75f4ce4a 75e0ce1c 75cccdee 75b9cdbf     J..u...u...u...u
1a010a34:	75a5cd91 7591cd63 757dcd35 7569cd07     ...uc..u5.}u..iu
1a010a44:	7555ccd9 7541ccab 752dcc7d 7519cc4f     ..Uu..Au}.-uO..u
1a010a54:	7504cc21 74f0cbf3 74dbcbc5 74c7cb97     !..u...t...t...t
1a010a64:	74b2cb69 749ecb3b 7489cb0d 7474cae0     i..t;..t...t..tt
1a010a74:	745fcab2 744aca84 7435ca57 7420ca29     .._t..JtW.5t). t
1a010a84:	740bc9fb 73f6c9ce 73e0c9a0 73cbc973     ...t...s...ss..s
1a010a94:	73b5c945 73a0c918 738ac8eb 7375c8bd     E..s...s...s..us
1a010aa4:	735fc890 7349c863 7333c835 731dc808     .._sc.Is5.3s...s
1a010ab4:	7307c7db 72f1c7ae 72dbc781 72c5c754     ...s...r...rT..r
1a010ac4:	72afc727 7298c6f9 7282c6cd 726bc6a0     '..r...r...r..kr
1a010ad4:	7255c673 723ec646 7227c619 7211c5ec     s.UrF.>r..'r...r
1a010ae4:	71fac5bf 71e3c593 71ccc566 71b5c539     ...q...qf..q9..q
1a010af4:	719ec50d 7186c4e0 716fc4b3 7158c487     ...q...q..oq..Xq
1a010b04:	7141c45a 7129c42e 7112c402 70fac3d5     Z.Aq..)q...q...p
1a010b14:	70e2c3a9 70cbc37c 70b3c350 709bc324     ...p|..pP..p$..p
1a010b24:	7083c2f8 706bc2cc 7053c29f 703bc273     ...p..kp..Sps.;p
1a010b34:	7023c247 700ac21b 6ff2c1ef 6fdac1c3     G.#p...p...o...o
1a010b44:	6fc1c197 6fa9c16c 6f90c140 6f77c114     ...ol..o@..o..wo
1a010b54:	6f5fc0e8 6f46c0bc 6f2dc091 6f14c065     .._o..Fo..-oe..o
1a010b64:	6efbc03a 6ee2c00e 6ec9bfe2 6eafbfb7     :..n...n...n...n
1a010b74:	6e96bf8c 6e7dbf60 6e63bf35 6e4abf09     ...n`.}n5.cn..Jn
1a010b84:	6e30bede 6e17beb3 6dfdbe88 6de3be5d     ..0n...n...m]..m
1a010b94:	6dcabe31 6db0be06 6d96bddb 6d7cbdb0     1..m...m...m..|m
1a010ba4:	6d62bd85 6d48bd5a 6d2dbd2f 6d13bd05     ..bmZ.Hm/.-m...m
1a010bb4:	6cf9bcda 6cdebcaf 6cc4bc84 6ca9bc5a     ...l...l...lZ..l
1a010bc4:	6c8fbc2f 6c74bc04 6c59bbda 6c3fbbaf     /..l..tl..Yl..?l
1a010bd4:	6c24bb85 6c09bb5a 6beebb30 6bd3bb05     ..$lZ..l0..k...k
1a010be4:	6bb8badb 6b9cbab1 6b81ba87 6b66ba5c     ...k...k...k\.fk
1a010bf4:	6b4aba32 6b2fba08 6b13b9de 6af8b9b4     2.Jk../k...k...j
1a010c04:	6adcb98a 6ac1b960 6aa5b936 6a89b90c     ...j`..j6..j...j
1a010c14:	6a6db8e3 6a51b8b9 6a35b88f 6a19b865     ..mj..Qj..5je..j
1a010c24:	69fdb83c 69e1b812 69c4b7e9 69a8b7bf     <..i...i...i...i
1a010c34:	698cb796 696fb76c 6953b743 6936b719     ...il.oiC.Si..6i
1a010c44:	6919b6f0 68fdb6c7 68e0b69e 68c3b675     ...i...h...hu..h
1a010c54:	68a6b64b 6889b622 686cb5f9 684fb5d0     K..h"..h..lh..Oh
1a010c64:	6832b5a7 6815b57e 67f7b556 67dab52d     ..2h~..hV..g-..g
1a010c74:	67bdb504 679fb4db 6782b4b3 6764b48a     ...g...g...g..dg
1a010c84:	6746b461 6729b439 670bb410 66edb3e8     a.Fg9.)g...g...f
1a010c94:	66cfb3c0 66b1b397 6693b36f 6675b347     ...f...fo..fG.uf
1a010ca4:	6657b31e 6639b2f6 661ab2ce 65fcb2a6     ..Wf..9f...f...e
1a010cb4:	65ddb27e 65bfb256 65a0b22e 6582b206     ~..eV..e...e...e
1a010cc4:	6563b1de 6545b1b7 6526b18f 6507b167     ..ce..Ee..&eg..e
1a010cd4:	64e8b140 64c9b118 64aab0f0 648bb0c9     @..d...d...d...d
1a010ce4:	646cb0a1 644db07a 642db053 640eb02b     ..ldz.MdS.-d+..d
1a010cf4:	63efb004 63cfafdd 63b0afb6 6390af8f     ...c...c...c...c
1a010d04:	6371af68 6351af40 6331af1a 6311aef3     h.qc@.Qc..1c...c
1a010d14:	62f2aecc 62d2aea5 62b2ae7e 6292ae57     ...b...b~..bW..b
1a010d24:	6271ae31 6251ae0a 6231ade3 6211adbd     1.qb..Qb..1b...b
1a010d34:	61f1ad96 61d0ad70 61b0ad4a 618fad23     ...ap..aJ..a#..a
1a010d44:	616facfd 614eacd7 612dacb1 610dac8a     ..oa..Na..-a...a
1a010d54:	60ecac64 60cbac3e 60aaac18 6089abf2     d..`>..`...`...`
1a010d64:	6068abcc 6047aba7 6026ab81 6004ab5b     ..h`..G`..&`[..`
1a010d74:	5fe3ab35 5fc2ab10 5fa0aaea 5f7faac5     5.._..._..._..._
1a010d84:	5f5eaa9f 5f3caa7a 5f1aaa54 5ef9aa2f     ..^_z.<_T.._/..^
1a010d94:	5ed7aa0a 5eb5a9e5 5e93a9bf 5e71a99a     ...^...^...^..q^
1a010da4:	5e50a975 5e2da950 5e0ba92b 5de9a906     u.P^P.-^+..^...]
1a010db4:	5dc7a8e2 5da5a8bd 5d83a898 5d60a873     ...]...]...]s.`]
1a010dc4:	5d3ea84f 5d1ba82a 5cf9a806 5cd6a7e1     O.>]*..]...\...\
1a010dd4:	5cb4a7bd 5c91a798 5c6ea774 5c4ba750     ...\...\t.n\P.K\
1a010de4:	5c29a72b 5c06a707 5be3a6e3 5bc0a6bf     +.)\...\...[...[
1a010df4:	5b9da69b 5b79a677 5b56a653 5b33a62f     ...[w.y[S.V[/.3[
1a010e04:	5b10a60c 5aeca5e8 5ac9a5c4 5aa5a5a1     ...[...Z...Z...Z
1a010e14:	5a82a57d 5a5ea55a 5a3ba536 5a17a513     }..ZZ.^Z6.;Z...Z
1a010e24:	59f3a4ef 59d0a4cc 59aca4a9 5988a486     ...Y...Y...Y...Y
1a010e34:	5964a462 5940a43f 591ca41c 58f8a3f9     b.dY?.@Y...Y...X
1a010e44:	58d4a3d6 58afa3b4 588ba391 5867a36e     ...X...X...Xn.gX
1a010e54:	5842a34b 581ea329 57f9a306 57d5a2e4     K.BX)..X...W...W
1a010e64:	57b0a2c1 578ca29f 5767a27c 5742a25a     ...W...W|.gWZ.BW
1a010e74:	571da238 56f9a216 56d4a1f4 56afa1d2     8..W...V...V...V
1a010e84:	568aa1af 5665a18e 5640a16c 561aa14a     ...V..eVl.@VJ..V
1a010e94:	55f5a128 55d0a106 55aba0e5 5585a0c3     (..U...U...U...U
1a010ea4:	5560a0a1 553aa080 5515a05f 54efa03d     ..`U..:U_..U=..T
1a010eb4:	54caa01c 54a49ffb 547e9fd9 54589fb8     ...T...T..~T..XT
1a010ec4:	54339f97 540d9f76 53e79f55 53c19f34     ..3Tv..TU..S4..S
1a010ed4:	539b9f13 53759ef2 534e9ed2 53289eb1     ...S..uS..NS..(S
1a010ee4:	53029e90 52dc9e70 52b59e4f 528f9e2f     ...Sp..RO..R/..R
1a010ef4:	52699e0e 52429dee 521c9dce 51f59dae     ..iR..BR...R...Q
1a010f04:	51ce9d8e 51a89d6d 51819d4d 515a9d2d     ...Qm..QM..Q-.ZQ
1a010f14:	51339d0d 510c9cee 50e59cce 50bf9cae     ..3Q...Q...P...P
1a010f24:	50979c8e 50709c6f 50499c4f 50229c30     ...Po.pPO.IP0."P
1a010f34:	4ffb9c10 4fd49bf1 4fac9bd2 4f859bb2     ...O...O...O...O
1a010f44:	4f5e9b93 4f369b74 4f0f9b55 4ee79b36     ..^Ot.6OU..O6..N
1a010f54:	4ebf9b17 4e989af8 4e709ad9 4e489aba     ...N...N..pN..HN
1a010f64:	4e219a9c 4df99a7d 4dd19a5f 4da99a40     ..!N}..M_..M@..M
1a010f74:	4d819a22 4d599a03 4d3199e5 4d0999c6     "..M..YM..1M...M
1a010f84:	4ce199a8 4cb8998a 4c90996c 4c68994e     ...L...Ll..LN.hL
1a010f94:	4c3f9930 4c179912 4bef98f4 4bc698d6     0.?L...L...K...K
1a010fa4:	4b9e98b9 4b75989b 4b4c987d 4b249860     ...K..uK}.LK`.$K
1a010fb4:	4afb9842 4ad29825 4aa99808 4a8197ea     B..J%..J...J...J
1a010fc4:	4a5897cd 4a2f97b0 4a069793 49dd9776     ..XJ../J...Jv..I
1a010fd4:	49b49759 498a973c 4961971f 49389702     Y..I<..I..aI..8I
1a010fe4:	490f96e6 48e696c9 48bc96ac 48939690     ...I...H...H...H
1a010ff4:	48699673 48409657 4816963b 47ed961e     s.iHW.@H;..H...G
1a011004:	47c39602 479a95e6 477095ca 474695ae     ...G...G..pG..FG
1a011014:	471c9592 46f39576 46c9955a 469f953e     ...Gv..FZ..F>..F
1a011024:	46759523 464b9507 462194ec 45f794d0     #.uF..KF..!F...E
1a011034:	45cd94b5 45a39499 4578947e 454e9463     ...E...E~.xEc.NE
1a011044:	45249447 44fa942c 44cf9411 44a593f6     G.$E,..D...D...D
1a011054:	447a93db 445093c0 442593a6 43fb938b     ..zD..PD..%D...C
1a011064:	43d09370 43a59356 437b933b 43509321     p..CV..C;.{C!.PC
1a011074:	43259306 42fa92ec 42d092d2 42a592b7     ..%C...B...B...B
1a011084:	427a929d 424f9283 42249269 41f9924f     ..zB..OBi.$BO..A
1a011094:	41ce9235 41a2921c 41779202 414c91e8     5..A...A..wA..LA
1a0110a4:	412191cf 40f691b5 40ca919c 409f9182     ..!A...@...@...@
1a0110b4:	40739169 40489150 401d9136 3ff1911d     i.s@P.H@6..@...?
1a0110c4:	3fc59104 3f9a90eb 3f6e90d2 3f4390b9     ...?...?..n?..C?
1a0110d4:	3f1790a0 3eeb9088 3ebf906f 3e939056     ...?...>o..>V..>
1a0110e4:	3e68903e 3e3c9025 3e10900d 3de48ff5     >.h>%.<>...>...=
1a0110f4:	3db88fdc 3d8c8fc4 3d608fac 3d338f94     ...=...=..`=..3=
1a011104:	3d078f7c 3cdb8f64 3caf8f4c 3c838f34     |..=d..<L..<4..<
1a011114:	3c568f1d 3c2a8f05 3bfd8eed 3bd18ed6     ..V<..*<...;...;
1a011124:	3ba58ebe 3b788ea7 3b4c8e90 3b1f8e79     ...;..x;..L;y..;
1a011134:	3af28e61 3ac68e4a 3a998e33 3a6c8e1c     a..:J..:3..:..l:
1a011144:	3a408e05 3a138dee 39e68dd8 39b98dc1     ..@:...:...9...9
1a011154:	398c8daa 395f8d94 39328d7d 39068d67     ...9.._9}.29g..9
1a011164:	38d88d50 38ab8d3a 387e8d24 38518d0e     P..8:..8$.~8..Q8
1a011174:	38248cf8 37f78ce2 37ca8ccc 379c8cb6     ..$8...7...7...7
1a011184:	376f8ca0 37428c8a 37148c75 36e78c5f     ..o7..B7u..7_..6
1a011194:	36ba8c4a 368c8c34 365f8c1f 36318c09     J..64..6.._6..16
1a0111a4:	36048bf4 35d68bdf 35a88bca 357b8bb5     ...6...5...5..{5
1a0111b4:	354d8ba0 351f8b8b 34f28b76 34c48b61     ..M5...5v..4a..4
1a0111c4:	34968b4d 34688b38 343a8b24 340c8b0f     M..48.h4$.:4...4
1a0111d4:	33de8afb 33b08ae6 33828ad2 33548abe     ...3...3...3..T3
1a0111e4:	33268aaa 32f88a96 32ca8a82 329c8a6e     ..&3...2...2n..2
1a0111f4:	326e8a5a 32408a46 32118a33 31e38a1f     Z.n2F.@23..2...1
1a011204:	31b58a0b 318689f8 315889e4 312a89d1     ...1...1..X1..*1
1a011214:	30fb89be 30cd89ab 309e8997 30708984     ...0...0...0..p0
1a011224:	30418971 3013895f 2fe4894c 2fb58939     q.A0_..0L../9../
1a011234:	2f878926 2f588914 2f298901 2efb88ef     &../..X/..)/....
1a011244:	2ecc88dc 2e9d88ca 2e6e88b8 2e3f88a5     ..........n...?.
1a011254:	2e118893 2de28881 2db3886f 2d84885d     .......-o..-]..-
1a011264:	2d55884b 2d26883a 2cf78828 2cc88816     K.U-:.&-(..,...,
1a011274:	2c988805 2c6987f3 2c3a87e2 2c0b87d1     ...,..i,..:,...,
1a011284:	2bdc87bf 2bad87ae 2b7d879d 2b4e878c     ...+...+..}+..N+
1a011294:	2b1f877b 2aef876a 2ac08759 2a918749     {..+j..*Y..*I..*
1a0112a4:	2a618738 2a328727 2a028717 29d38706     8.a*'.2*...*...)
1a0112b4:	29a386f6 297486e6 294486d5 291586c5     ...)..t)..D)...)
1a0112c4:	28e586b5 28b586a5 28868695 28568685     ...(...(...(..V(
1a0112d4:	28268675 27f68666 27c78656 27978646     u.&(f..'V..'F..'
1a0112e4:	27678637 27378627 27078618 26d88609     7.g''.7'...'...&
1a0112f4:	26a885fa 267885ea 264885db 261885cc     ...&..x&..H&...&
1a011304:	25e885bd 25b885af 258885a0 25588591     ...%...%...%..X%
1a011314:	25288582 24f78574 24c78565 24978557     ..(%t..$e..$W..$
1a011324:	24678549 2437853a 2407852c 23d6851e     I.g$:.7$,..$...#
1a011334:	23a68510 23768502 234584f4 231584e6     ...#..v#..E#...#
1a011344:	22e584d9 22b484cb 228484bd 225484b0     ..."..."..."..T"
1a011354:	222384a2 21f38495 21c28488 2192847b     ..#"...!...!{..!
1a011364:	2161846d 21318460 21008453 20d08446     m.a!`.1!S..!F.. 
1a011374:	209f843a 206e842d 203e8420 200d8414     :.. -.n  .> ... 
1a011384:	1fdc8407 1fac83fa 1f7b83ee 1f4a83e2     ..........{...J.
1a011394:	1f1983d6 1ee983c9 1eb883bd 1e8783b1     ................
1a0113a4:	1e5683a5 1e258399 1df5838e 1dc48382     ..V...%.........
1a0113b4:	1d938376 1d62836b 1d31835f 1d008354     v...k.b._.1.T...
1a0113c4:	1ccf8348 1c9e833d 1c6d8332 1c3c8327     H...=...2.m.'.<.
1a0113d4:	1c0b831c 1bda8311 1ba98306 1b7882fb     ..............x.
1a0113e4:	1b4782f0 1b1682e6 1ae482db 1ab382d0     ..G.............
1a0113f4:	1a8282c6 1a5182bc 1a2082b1 19ef82a7     ......Q... .....
1a011404:	19bd829d 198c8293 195b8289 192a827f     ..........[...*.
1a011414:	18f88275 18c7826b 18968262 18648258     u...k...b...X.d.
1a011424:	1833824f 18028245 17d0823c 179f8232     O.3.E...<...2...
1a011434:	176d8229 173c8220 170a8217 16d9820e     ).m. .<.........
1a011444:	16a88205 167681fc 164581f3 161381eb     ......v...E.....
1a011454:	15e281e2 15b081d9 157f81d1 154d81c8     ..............M.
1a011464:	151b81c0 14ea81b8 14b881b0 148781a8     ................
1a011474:	145581a0 14238198 13f28190 13c08188     ..U...#.........
1a011484:	138e8180 135d8179 132b8171 12f9816a     ....y.].q.+.j...
1a011494:	12c88162 1296815b 12648154 1232814c     b...[...T.d.L.2.
1a0114a4:	12018145 11cf813e 119d8137 116b8130     E...>...7...0.k.
1a0114b4:	1139812a 11088123 10d6811c 10a48116     *.9.#...........
1a0114c4:	1072810f 10408109 100e8102 0fdd80fc     ..r...@.........
1a0114d4:	0fab80f6 0f7980f0 0f4780ea 0f1580e4     ......y...G.....
1a0114e4:	0ee380de 0eb180d8 0e7f80d2 0e4d80cd     ..............M.
1a0114f4:	0e1b80c7 0de980c2 0db780bc 0d8580b7     ................
1a011504:	0d5380b2 0d2180ac 0cef80a7 0cbd80a2     ..S...!.........
1a011514:	0c8b809d 0c598098 0c278094 0bf5808f     ......Y...'.....
1a011524:	0bc3808a 0b918086 0b5f8081 0b2d807d     .........._.}.-.
1a011534:	0afb8078 0ac98074 0a978070 0a65806c     x...t...p...l.e.
1a011544:	0a338068 0a008064 09ce8060 099c805c     h.3.d...`...\...
1a011554:	096a8058 09388055 09068051 08d4804e     X.j.U.8.Q...N...
1a011564:	08a2804a 086f8047 083d8043 080b8040     J...G.o.C.=.@...
1a011574:	07d9803d 07a7803a 07758037 07428034     =...:...7.u.4.B.
1a011584:	07108031 06de802f 06ac802c 067a8029     1.../...,...).z.
1a011594:	06478027 06158025 05e38022 05b18020     '.G.%..."... ...
1a0115a4:	057f801e 054c801c 051a801a 04e88018     ......L.........
1a0115b4:	04b68016 04838014 04518012 041f8011     ..........Q.....
1a0115c4:	03ed800f 03ba800d 0388800c 0356800b     ..............V.
1a0115d4:	03248009 02f18008 02bf8007 028d8006     ..$.............
1a0115e4:	025b8005 02288004 01f68003 01c48003     ..[...(.........
1a0115f4:	01928002 015f8001 012d8001 00fb8000     ......_...-.....
1a011604:	00c98000 00968000 00648000 00328000     ..........d...2.
1a011614:	00008000 ffcd8000 ff9b8000 ff698000     ..............i.
1a011624:	ff368000 ff048000 fed28001 fea08001     ..6.............
1a011634:	fe6d8002 fe3b8003 fe098003 fdd78004     ..m...;.........
1a011644:	fda48005 fd728006 fd408007 fd0e8008     ......r...@.....
1a011654:	fcdb8009 fca9800b fc77800c fc45800d     ..........w...E.
1a011664:	fc12800f fbe08011 fbae8012 fb7c8014     ..............|.
1a011674:	fb498016 fb178018 fae5801a fab3801c     ..I.............
1a011684:	fa80801e fa4e8020 fa1c8022 f9ea8025     .... .N."...%...
1a011694:	f9b88027 f9858029 f953802c f921802f     '...)...,.S./.!.
1a0116a4:	f8ef8031 f8bd8034 f88a8037 f858803a     1...4...7...:.X.
1a0116b4:	f826803d f7f48040 f7c28043 f7908047     =.&.@...C...G...
1a0116c4:	f75d804a f72b804e f6f98051 f6c78055     J.].N.+.Q...U...
1a0116d4:	f6958058 f663805c f6318060 f5ff8064     X...\.c.`.1.d...
1a0116e4:	f5cc8068 f59a806c f5688070 f5368074     h...l...p.h.t.6.
1a0116f4:	f5048078 f4d2807d f4a08081 f46e8086     x...}.........n.
1a011704:	f43c808a f40a808f f3d88094 f3a68098     ..<.............
1a011714:	f374809d f34280a2 f31080a7 f2de80ac     ..t...B.........
1a011724:	f2ac80b2 f27a80b7 f24880bc f21680c2     ......z...H.....
1a011734:	f1e480c7 f1b280cd f18080d2 f14e80d8     ..............N.
1a011744:	f11c80de f0ea80e4 f0b880ea f08680f0     ................
1a011754:	f05480f6 f02280fc eff18102 efbf8109     ..T...".........
1a011764:	ef8d810f ef5b8116 ef29811c eef78123     ......[...).#...
1a011774:	eec6812a ee948130 ee628137 ee30813e     *...0...7.b.>.0.
1a011784:	edfe8145 edcd814c ed9b8154 ed69815b     E...L...T...[.i.
1a011794:	ed378162 ed06816a ecd48171 eca28179     b.7.j...q...y...
1a0117a4:	ec718180 ec3f8188 ec0d8190 ebdc8198     ..q...?.........
1a0117b4:	ebaa81a0 eb7881a8 eb4781b0 eb1581b8     ......x...G.....
1a0117c4:	eae481c0 eab281c8 ea8081d1 ea4f81d9     ..............O.
1a0117d4:	ea1d81e2 e9ec81eb e9ba81f3 e98981fc     ................
1a0117e4:	e9578205 e926820e e8f58217 e8c38220     ..W...&..... ...
1a0117f4:	e8928229 e8608232 e82f823c e7fd8245     )...2.`.<./.E...
1a011804:	e7cc824f e79b8258 e7698262 e738826b     O...X...b.i.k.8.
1a011814:	e7078275 e6d5827f e6a48289 e6738293     u.............s.
1a011824:	e642829d e61082a7 e5df82b1 e5ae82bc     ..B.............
1a011834:	e57d82c6 e54c82d0 e51b82db e4e982e6     ..}...L.........
1a011844:	e4b882f0 e48782fb e4568306 e4258311     ..........V...%.
1a011854:	e3f4831c e3c38327 e3928332 e361833d     ....'...2...=.a.
1a011864:	e3308348 e2ff8354 e2ce835f e29d836b     H.0.T..._...k...
1a011874:	e26c8376 e23b8382 e20a838e e1da8399     v.l...;.........
1a011884:	e1a983a5 e17883b1 e14783bd e11683c9     ......x...G.....
1a011894:	e0e683d6 e0b583e2 e08483ee e05383fa     ..............S.
1a0118a4:	e0238407 dff28414 dfc18420 df91842d     ..#..... ...-...
1a0118b4:	df60843a df2f8446 deff8453 dece8460     :.`.F./.S...`...
1a0118c4:	de9e846d de6d847b de3d8488 de0c8495     m...{.m...=.....
1a0118d4:	dddc84a2 ddab84b0 dd7b84bd dd4b84cb     ..........{...K.
1a0118e4:	dd1a84d9 dcea84e6 dcba84f4 dc898502     ................
1a0118f4:	dc598510 dc29851e dbf8852c dbc8853a     ..Y...).,...:...
1a011904:	db988549 db688557 db388565 db088574     I...W.h.e.8.t...
1a011914:	dad78582 daa78591 da7785a0 da4785af     ..........w...G.
1a011924:	da1785bd d9e785cc d9b785db d98785ea     ................
1a011934:	d95785fa d9278609 d8f88618 d8c88627     ..W...'.....'...
1a011944:	d8988637 d8688646 d8388656 d8098666     7...F.h.V.8.f...
1a011954:	d7d98675 d7a98685 d7798695 d74a86a5     u.........y...J.
1a011964:	d71a86b5 d6ea86c5 d6bb86d5 d68b86e6     ................
1a011974:	d65c86f6 d62c8706 d5fd8717 d5cd8727     ..\...,.....'...
1a011984:	d59e8738 d56e8749 d53f8759 d510876a     8...I.n.Y.?.j...
1a011994:	d4e0877b d4b1878c d482879d d45287ae     {.............R.
1a0119a4:	d42387bf d3f487d1 d3c587e2 d39687f3     ..#.............
1a0119b4:	d3678805 d3378816 d3088828 d2d9883a     ..g...7.(...:...
1a0119c4:	d2aa884b d27b885d d24c886f d21d8881     K...].{.o.L.....
1a0119d4:	d1ee8893 d1c088a5 d19188b8 d16288ca     ..............b.
1a0119e4:	d13388dc d10488ef d0d68901 d0a78914     ..3.............
1a0119f4:	d0788926 d04a8939 d01b894c cfec895f     &.x.9.J.L..._...
1a011a04:	cfbe8971 cf8f8984 cf618997 cf3289ab     q.........a...2.
1a011a14:	cf0489be ced589d1 cea789e4 ce7989f8     ..............y.
1a011a24:	ce4a8a0b ce1c8a1f cdee8a33 cdbf8a46     ..J.....3...F...
1a011a34:	cd918a5a cd638a6e cd358a82 cd078a96     Z...n.c...5.....
1a011a44:	ccd98aaa ccab8abe cc7d8ad2 cc4f8ae6     ..........}...O.
1a011a54:	cc218afb cbf38b0f cbc58b24 cb978b38     ..!.....$...8...
1a011a64:	cb698b4d cb3b8b61 cb0d8b76 cae08b8b     M.i.a.;.v.......
1a011a74:	cab28ba0 ca848bb5 ca578bca ca298bdf     ..........W...).
1a011a84:	c9fb8bf4 c9ce8c09 c9a08c1f c9738c34     ............4.s.
1a011a94:	c9458c4a c9188c5f c8eb8c75 c8bd8c8a     J.E._...u.......
1a011aa4:	c8908ca0 c8638cb6 c8358ccc c8088ce2     ......c...5.....
1a011ab4:	c7db8cf8 c7ae8d0e c7818d24 c7548d3a     ........$...:.T.
1a011ac4:	c7278d50 c6f98d67 c6cd8d7d c6a08d94     P.'.g...}.......
1a011ad4:	c6738daa c6468dc1 c6198dd8 c5ec8dee     ..s...F.........
1a011ae4:	c5bf8e05 c5938e1c c5668e33 c5398e4a     ........3.f.J.9.
1a011af4:	c50d8e61 c4e08e79 c4b38e90 c4878ea7     a...y...........
1a011b04:	c45a8ebe c42e8ed6 c4028eed c3d58f05     ..Z.............
1a011b14:	c3a98f1d c37c8f34 c3508f4c c3248f64     ....4.|.L.P.d.$.
1a011b24:	c2f88f7c c2cc8f94 c29f8fac c2738fc4     |.............s.
1a011b34:	c2478fdc c21b8ff5 c1ef900d c1c39025     ..G.........%...
1a011b44:	c197903e c16c9056 c140906f c1149088     >...V.l.o.@.....
1a011b54:	c0e890a0 c0bc90b9 c09190d2 c06590eb     ..............e.
1a011b64:	c03a9104 c00e911d bfe29136 bfb79150     ..:.....6...P...
1a011b74:	bf8c9169 bf609182 bf35919c bf0991b5     i.....`...5.....
1a011b84:	bede91cf beb391e8 be889202 be5d921c     ..............].
1a011b94:	be319235 be06924f bddb9269 bdb09283     5.1.O...i.......
1a011ba4:	bd85929d bd5a92b7 bd2f92d2 bd0592ec     ......Z.../.....
1a011bb4:	bcda9306 bcaf9321 bc84933b bc5a9356     ....!...;...V.Z.
1a011bc4:	bc2f9370 bc04938b bbda93a6 bbaf93c0     p./.............
1a011bd4:	bb8593db bb5a93f6 bb309411 bb05942c     ......Z...0.,...
1a011be4:	badb9447 bab19463 ba87947e ba5c9499     G...c...~.....\.
1a011bf4:	ba3294b5 ba0894d0 b9de94ec b9b49507     ..2.............
1a011c04:	b98a9523 b960953e b936955a b90c9576     #...>.`.Z.6.v...
1a011c14:	b8e39592 b8b995ae b88f95ca b86595e6     ..............e.
1a011c24:	b83c9602 b812961e b7e9963b b7bf9657     ..<.....;...W...
1a011c34:	b7969673 b76c9690 b74396ac b71996c9     s.....l...C.....
1a011c44:	b6f096e6 b6c79702 b69e971f b675973c     ............<.u.
1a011c54:	b64b9759 b6229776 b5f99793 b5d097b0     Y.K.v.".........
1a011c64:	b5a797cd b57e97ea b5569808 b52d9825     ......~...V.%.-.
1a011c74:	b5049842 b4db9860 b4b3987d b48a989b     B...`...}.......
1a011c84:	b46198b9 b43998d6 b41098f4 b3e89912     ..a...9.........
1a011c94:	b3c09930 b397994e b36f996c b347998a     0...N...l.o...G.
1a011ca4:	b31e99a8 b2f699c6 b2ce99e5 b2a69a03     ................
1a011cb4:	b27e9a22 b2569a40 b22e9a5f b2069a7d     ".~.@.V._...}...
1a011cc4:	b1de9a9c b1b79aba b18f9ad9 b1679af8     ..............g.
1a011cd4:	b1409b17 b1189b36 b0f09b55 b0c99b74     ..@.6...U...t...
1a011ce4:	b0a19b93 b07a9bb2 b0539bd2 b02b9bf1     ......z...S...+.
1a011cf4:	b0049c10 afdd9c30 afb69c4f af8f9c6f     ....0...O...o...
1a011d04:	af689c8e af409cae af1a9cce aef39cee     ..h...@.........
1a011d14:	aecc9d0d aea59d2d ae7e9d4d ae579d6d     ....-...M.~.m.W.
1a011d24:	ae319d8e ae0a9dae ade39dce adbd9dee     ..1.............
1a011d34:	ad969e0e ad709e2f ad4a9e4f ad239e70     ..../.p.O.J.p.#.
1a011d44:	acfd9e90 acd79eb1 acb19ed2 ac8a9ef2     ................
1a011d54:	ac649f13 ac3e9f34 ac189f55 abf29f76     ..d.4.>.U...v...
1a011d64:	abcc9f97 aba79fb8 ab819fd9 ab5b9ffb     ..............[.
1a011d74:	ab35a01c ab10a03d aaeaa05f aac5a080     ..5.=..._.......
1a011d84:	aa9fa0a1 aa7aa0c3 aa54a0e5 aa2fa106     ......z...T.../.
1a011d94:	aa0aa128 a9e5a14a a9bfa16c a99aa18e     (...J...l.......
1a011da4:	a975a1af a950a1d2 a92ba1f4 a906a216     ..u...P...+.....
1a011db4:	a8e2a238 a8bda25a a898a27c a873a29f     8...Z...|.....s.
1a011dc4:	a84fa2c1 a82aa2e4 a806a306 a7e1a329     ..O...*.....)...
1a011dd4:	a7bda34b a798a36e a774a391 a750a3b4     K...n.....t...P.
1a011de4:	a72ba3d6 a707a3f9 a6e3a41c a6bfa43f     ..+.........?...
1a011df4:	a69ba462 a677a486 a653a4a9 a62fa4cc     b.....w...S.../.
1a011e04:	a60ca4ef a5e8a513 a5c4a536 a5a1a55a     ........6...Z...
1a011e14:	a57da57d a55aa5a1 a536a5c4 a513a5e8     }.}...Z...6.....
1a011e24:	a4efa60c a4cca62f a4a9a653 a486a677     ..../...S...w...
1a011e34:	a462a69b a43fa6bf a41ca6e3 a3f9a707     ..b...?.........
1a011e44:	a3d6a72b a3b4a750 a391a774 a36ea798     +...P...t.....n.
1a011e54:	a34ba7bd a329a7e1 a306a806 a2e4a82a     ..K...).....*...
1a011e64:	a2c1a84f a29fa873 a27ca898 a25aa8bd     O...s.....|...Z.
1a011e74:	a238a8e2 a216a906 a1f4a92b a1d2a950     ..8.....+...P...
1a011e84:	a1afa975 a18ea99a a16ca9bf a14aa9e5     u.........l...J.
1a011e94:	a128aa0a a106aa2f a0e5aa54 a0c3aa7a     ..(./...T...z...
1a011ea4:	a0a1aa9f a080aac5 a05faaea a03dab10     .........._...=.
1a011eb4:	a01cab35 9ffbab5b 9fd9ab81 9fb8aba7     5...[...........
1a011ec4:	9f97abcc 9f76abf2 9f55ac18 9f34ac3e     ......v...U.>.4.
1a011ed4:	9f13ac64 9ef2ac8a 9ed2acb1 9eb1acd7     d...............
1a011ee4:	9e90acfd 9e70ad23 9e4fad4a 9e2fad70     ....#.p.J.O.p./.
1a011ef4:	9e0ead96 9deeadbd 9dceade3 9daeae0a     ................
1a011f04:	9d8eae31 9d6dae57 9d4dae7e 9d2daea5     1...W.m.~.M...-.
1a011f14:	9d0daecc 9ceeaef3 9cceaf1a 9caeaf40     ............@...
1a011f24:	9c8eaf68 9c6faf8f 9c4fafb6 9c30afdd     h.....o...O...0.
1a011f34:	9c10b004 9bf1b02b 9bd2b053 9bb2b07a     ....+...S...z...
1a011f44:	9b93b0a1 9b74b0c9 9b55b0f0 9b36b118     ......t...U...6.
1a011f54:	9b17b140 9af8b167 9ad9b18f 9abab1b7     @...g...........
1a011f64:	9a9cb1de 9a7db206 9a5fb22e 9a40b256     ......}..._.V.@.
1a011f74:	9a22b27e 9a03b2a6 99e5b2ce 99c6b2f6     ~.".............
1a011f84:	99a8b31e 998ab347 996cb36f 994eb397     ....G...o.l...N.
1a011f94:	9930b3c0 9912b3e8 98f4b410 98d6b439     ..0.........9...
1a011fa4:	98b9b461 989bb48a 987db4b3 9860b4db     a.........}...`.
1a011fb4:	9842b504 9825b52d 9808b556 97eab57e     ..B.-.%.V...~...
1a011fc4:	97cdb5a7 97b0b5d0 9793b5f9 9776b622     ............".v.
1a011fd4:	9759b64b 973cb675 971fb69e 9702b6c7     K.Y.u.<.........
1a011fe4:	96e6b6f0 96c9b719 96acb743 9690b76c     ........C...l...
1a011ff4:	9673b796 9657b7bf 963bb7e9 961eb812     ..s...W...;.....
1a012004:	9602b83c 95e6b865 95cab88f 95aeb8b9     <...e...........
1a012014:	9592b8e3 9576b90c 955ab936 953eb960     ......v.6.Z.`.>.
1a012024:	9523b98a 9507b9b4 94ecb9de 94d0ba08     ..#.............
1a012034:	94b5ba32 9499ba5c 947eba87 9463bab1     2...\.....~...c.
1a012044:	9447badb 942cbb05 9411bb30 93f6bb5a     ..G...,.0...Z...
1a012054:	93dbbb85 93c0bbaf 93a6bbda 938bbc04     ................
1a012064:	9370bc2f 9356bc5a 933bbc84 9321bcaf     /.p.Z.V...;...!.
1a012074:	9306bcda 92ecbd05 92d2bd2f 92b7bd5a     ......../...Z...
1a012084:	929dbd85 9283bdb0 9269bddb 924fbe06     ..........i...O.
1a012094:	9235be31 921cbe5d 9202be88 91e8beb3     1.5.]...........
1a0120a4:	91cfbede 91b5bf09 919cbf35 9182bf60     ........5...`...
1a0120b4:	9169bf8c 9150bfb7 9136bfe2 911dc00e     ..i...P...6.....
1a0120c4:	9104c03a 90ebc065 90d2c091 90b9c0bc     :...e...........
1a0120d4:	90a0c0e8 9088c114 906fc140 9056c16c     ........@.o.l.V.
1a0120e4:	903ec197 9025c1c3 900dc1ef 8ff5c21b     ..>...%.........
1a0120f4:	8fdcc247 8fc4c273 8facc29f 8f94c2cc     G...s...........
1a012104:	8f7cc2f8 8f64c324 8f4cc350 8f34c37c     ..|.$.d.P.L.|.4.
1a012114:	8f1dc3a9 8f05c3d5 8eedc402 8ed6c42e     ................
1a012124:	8ebec45a 8ea7c487 8e90c4b3 8e79c4e0     Z.............y.
1a012134:	8e61c50d 8e4ac539 8e33c566 8e1cc593     ..a.9.J.f.3.....
1a012144:	8e05c5bf 8deec5ec 8dd8c619 8dc1c646     ............F...
1a012154:	8daac673 8d94c6a0 8d7dc6cd 8d67c6f9     s.........}...g.
1a012164:	8d50c727 8d3ac754 8d24c781 8d0ec7ae     '.P.T.:...$.....
1a012174:	8cf8c7db 8ce2c808 8cccc835 8cb6c863     ........5...c...
1a012184:	8ca0c890 8c8ac8bd 8c75c8eb 8c5fc918     ..........u..._.
1a012194:	8c4ac945 8c34c973 8c1fc9a0 8c09c9ce     E.J.s.4.........
1a0121a4:	8bf4c9fb 8bdfca29 8bcaca57 8bb5ca84     ....)...W.......
1a0121b4:	8ba0cab2 8b8bcae0 8b76cb0d 8b61cb3b     ..........v.;.a.
1a0121c4:	8b4dcb69 8b38cb97 8b24cbc5 8b0fcbf3     i.M...8...$.....
1a0121d4:	8afbcc21 8ae6cc4f 8ad2cc7d 8abeccab     !...O...}.......
1a0121e4:	8aaaccd9 8a96cd07 8a82cd35 8a6ecd63     ........5...c.n.
1a0121f4:	8a5acd91 8a46cdbf 8a33cdee 8a1fce1c     ..Z...F...3.....
1a012204:	8a0bce4a 89f8ce79 89e4cea7 89d1ced5     J...y...........
1a012214:	89becf04 89abcf32 8997cf61 8984cf8f     ....2...a.......
1a012224:	8971cfbe 895fcfec 894cd01b 8939d04a     ..q..._...L.J.9.
1a012234:	8926d078 8914d0a7 8901d0d6 88efd104     x.&.............
1a012244:	88dcd133 88cad162 88b8d191 88a5d1c0     3...b...........
1a012254:	8893d1ee 8881d21d 886fd24c 885dd27b     ........L.o.{.].
1a012264:	884bd2aa 883ad2d9 8828d308 8816d337     ..K...:...(.7...
1a012274:	8805d367 87f3d396 87e2d3c5 87d1d3f4     g...............
1a012284:	87bfd423 87aed452 879dd482 878cd4b1     #...R...........
1a012294:	877bd4e0 876ad510 8759d53f 8749d56e     ..{...j.?.Y.n.I.
1a0122a4:	8738d59e 8727d5cd 8717d5fd 8706d62c     ..8...'.....,...
1a0122b4:	86f6d65c 86e6d68b 86d5d6bb 86c5d6ea     \...............
1a0122c4:	86b5d71a 86a5d74a 8695d779 8685d7a9     ....J...y.......
1a0122d4:	8675d7d9 8666d809 8656d838 8646d868     ..u...f.8.V.h.F.
1a0122e4:	8637d898 8627d8c8 8618d8f8 8609d927     ..7...'.....'...
1a0122f4:	85fad957 85ead987 85dbd9b7 85ccd9e7     W...............
1a012304:	85bdda17 85afda47 85a0da77 8591daa7     ....G...w.......
1a012314:	8582dad7 8574db08 8565db38 8557db68     ......t.8.e.h.W.
1a012324:	8549db98 853adbc8 852cdbf8 851edc29     ..I...:...,.)...
1a012334:	8510dc59 8502dc89 84f4dcba 84e6dcea     Y...............
1a012344:	84d9dd1a 84cbdd4b 84bddd7b 84b0ddab     ....K...{.......
1a012354:	84a2dddc 8495de0c 8488de3d 847bde6d     ........=...m.{.
1a012364:	846dde9e 8460dece 8453deff 8446df2f     ..m...`...S./.F.
1a012374:	843adf60 842ddf91 8420dfc1 8414dff2     `.:...-... .....
1a012384:	8407e023 83fae053 83eee084 83e2e0b5     #...S...........
1a012394:	83d6e0e6 83c9e116 83bde147 83b1e178     ........G...x...
1a0123a4:	83a5e1a9 8399e1da 838ee20a 8382e23b     ............;...
1a0123b4:	8376e26c 836be29d 835fe2ce 8354e2ff     l.v...k..._...T.
1a0123c4:	8348e330 833de361 8332e392 8327e3c3     0.H.a.=...2...'.
1a0123d4:	831ce3f4 8311e425 8306e456 82fbe487     ....%...V.......
1a0123e4:	82f0e4b8 82e6e4e9 82dbe51b 82d0e54c     ............L...
1a0123f4:	82c6e57d 82bce5ae 82b1e5df 82a7e610     }...............
1a012404:	829de642 8293e673 8289e6a4 827fe6d5     B...s...........
1a012414:	8275e707 826be738 8262e769 8258e79b     ..u.8.k.i.b...X.
1a012424:	824fe7cc 8245e7fd 823ce82f 8232e860     ..O...E./.<.`.2.
1a012434:	8229e892 8220e8c3 8217e8f5 820ee926     ..)... .....&...
1a012444:	8205e957 81fce989 81f3e9ba 81ebe9ec     W...............
1a012454:	81e2ea1d 81d9ea4f 81d1ea80 81c8eab2     ....O...........
1a012464:	81c0eae4 81b8eb15 81b0eb47 81a8eb78     ........G...x...
1a012474:	81a0ebaa 8198ebdc 8190ec0d 8188ec3f     ............?...
1a012484:	8180ec71 8179eca2 8171ecd4 816aed06     q.....y...q...j.
1a012494:	8162ed37 815bed69 8154ed9b 814cedcd     7.b.i.[...T...L.
1a0124a4:	8145edfe 813eee30 8137ee62 8130ee94     ..E.0.>.b.7...0.
1a0124b4:	812aeec6 8123eef7 811cef29 8116ef5b     ..*...#.)...[...
1a0124c4:	810fef8d 8109efbf 8102eff1 80fcf022     ............"...
1a0124d4:	80f6f054 80f0f086 80eaf0b8 80e4f0ea     T...............
1a0124e4:	80def11c 80d8f14e 80d2f180 80cdf1b2     ....N...........
1a0124f4:	80c7f1e4 80c2f216 80bcf248 80b7f27a     ........H...z...
1a012504:	80b2f2ac 80acf2de 80a7f310 80a2f342     ............B...
1a012514:	809df374 8098f3a6 8094f3d8 808ff40a     t...............
1a012524:	808af43c 8086f46e 8081f4a0 807df4d2     <...n.........}.
1a012534:	8078f504 8074f536 8070f568 806cf59a     ..x.6.t.h.p...l.
1a012544:	8068f5cc 8064f5ff 8060f631 805cf663     ..h...d.1.`.c.\.
1a012554:	8058f695 8055f6c7 8051f6f9 804ef72b     ..X...U...Q.+.N.
1a012564:	804af75d 8047f790 8043f7c2 8040f7f4     ].J...G...C...@.
1a012574:	803df826 803af858 8037f88a 8034f8bd     &.=.X.:...7...4.
1a012584:	8031f8ef 802ff921 802cf953 8029f985     ..1.!./.S.,...).
1a012594:	8027f9b8 8025f9ea 8022fa1c 8020fa4e     ..'...%...".N. .
1a0125a4:	801efa80 801cfab3 801afae5 8018fb17     ................
1a0125b4:	8016fb49 8014fb7c 8012fbae 8011fbe0     I...|...........
1a0125c4:	800ffc12 800dfc45 800cfc77 800bfca9     ....E...w.......
1a0125d4:	8009fcdb 8008fd0e 8007fd40 8006fd72     ........@...r...
1a0125e4:	8005fda4 8004fdd7 8003fe09 8003fe3b     ............;...
1a0125f4:	8002fe6d 8001fea0 8001fed2 8000ff04     m...............
1a012604:	8000ff36 8000ff69 8000ff9b 8000ffcd     6...i...........

1a012614 <twiddleCoef_16_q15>:
1a012614:	00007fff 30fb7641 5a825a82 764130fb     ....Av.0.Z.Z.0Av
1a012624:	7fff0000 7641cf04 5a82a57d 30fb89be     ......Av}..Z...0
1a012634:	00008000 cf0489be a57da57d 89becf04     ........}.}.....

1a012644 <twiddleCoef_64_q15>:
1a012644:	00007fff 0c8b7f62 18f87d8a 25287a7d     ....b....}..}z(%
1a012654:	30fb7641 3c5670e2 471c6a6d 513362f2     Av.0.pV<mj.G.b3Q
1a012664:	5a825a82 62f25133 6a6d471c 70e23c56     .Z.Z3Q.b.GmjV<.p
1a012674:	764130fb 7a7d2528 7d8a18f8 7f620c8b     .0Av(%}z...}..b.
1a012684:	7fff0000 7f62f374 7d8ae707 7a7ddad7     ....t.b....}..}z
1a012694:	7641cf04 70e2c3a9 6a6db8e3 62f2aecc     ..Av...p..mj...b
1a0126a4:	5a82a57d 51339d0d 471c9592 3c568f1d     }..Z..3Q...G..V<
1a0126b4:	30fb89be 25288582 18f88275 0c8b809d     ...0..(%u.......
1a0126c4:	00008000 f374809d e7078275 dad78582     ......t.u.......
1a0126d4:	cf0489be c3a98f1d b8e39592 aecc9d0d     ................
1a0126e4:	a57da57d 9d0daecc 9592b8e3 8f1dc3a9     }.}.............
1a0126f4:	89becf04 8582dad7 8275e707 809df374     ..........u.t...

1a012704 <twiddleCoef_2048_q15>:
1a012704:	00007fff 00647fff 00c97fff 012d7ffe     ......d.......-.
1a012714:	01927ffd 01f67ffc 025b7ffa 02bf7ff8     ..........[.....
1a012724:	03247ff6 03887ff3 03ed7ff0 04517fed     ..$...........Q.
1a012734:	04b67fe9 051a7fe5 057f7fe1 05e37fdd     ................
1a012744:	06477fd8 06ac7fd3 07107fce 07757fc8     ..G...........u.
1a012754:	07d97fc2 083d7fbc 08a27fb5 09067fae     ......=.........
1a012764:	096a7fa7 09ce7f9f 0a337f97 0a977f8f     ..j.......3.....
1a012774:	0afb7f87 0b5f7f7e 0bc37f75 0c277f6b     ....~._.u...k.'.
1a012784:	0c8b7f62 0cef7f58 0d537f4d 0db77f43     b...X...M.S.C...
1a012794:	0e1b7f38 0e7f7f2d 0ee37f21 0f477f15     8...-...!.....G.
1a0127a4:	0fab7f09 100e7efd 10727ef0 10d67ee3     .....~...~r..~..
1a0127b4:	11397ed5 119d7ec8 12017eba 12647eab     .~9..~...~...~d.
1a0127c4:	12c87e9d 132b7e8e 138e7e7f 13f27e6f     .~...~+..~..o~..
1a0127d4:	14557e5f 14b87e4f 151b7e3f 157f7e2e     _~U.O~..?~...~..
1a0127e4:	15e27e1d 16457e0c 16a87dfa 170a7de8     .~...~E..}...}..
1a0127f4:	176d7dd6 17d07dc3 18337db0 18967d9d     .}m..}...}3..}..
1a012804:	18f87d8a 195b7d76 19bd7d62 1a207d4e     .}..v}[.b}..N} .
1a012814:	1a827d39 1ae47d24 1b477d0f 1ba97cf9     9}..$}...}G..|..
1a012824:	1c0b7ce3 1c6d7ccd 1ccf7cb7 1d317ca0     .|...|m..|...|1.
1a012834:	1d937c89 1df57c71 1e567c5a 1eb87c42     .|..q|..Z|V.B|..
1a012844:	1f197c29 1f7b7c11 1fdc7bf8 203e7bdf     )|...|{..{...{> 
1a012854:	209f7bc5 21007bac 21617b92 21c27b77     .{. .{.!.{a!w{.!
1a012864:	22237b5d 22847b42 22e57b26 23457b0b     ]{#"B{."&{.".{E#
1a012874:	23a67aef 24077ad3 24677ab6 24c77a9a     .z.#.z.$.zg$.z.$
1a012884:	25287a7d 25887a5f 25e87a42 26487a24     }z(%_z.%Bz.%$zH&
1a012894:	26a87a05 270779e7 276779c8 27c779a9     .z.&.y.'.yg'.y.'
1a0128a4:	2826798a 2886796a 28e5794a 2944792a     .y&(jy.(Jy.(*yD)
1a0128b4:	29a37909 2a0278e8 2a6178c7 2ac078a6     .y.).x.*.xa*.x.*
1a0128c4:	2b1f7884 2b7d7862 2bdc7840 2c3a781d     .x.+bx}+@x.+.x:,
1a0128d4:	2c9877fa 2cf777d7 2d5577b4 2db37790     .w.,.w.,.wU-.w.-
1a0128e4:	2e11776c 2e6e7747 2ecc7723 2f2976fe     lw..Gwn.#w...v)/
1a0128f4:	2f8776d9 2fe476b3 3041768e 309e7668     .v./.v./.vA0hv.0
1a012904:	30fb7641 3158761b 31b575f4 321175cc     Av.0.vX1.u.1.u.2
1a012914:	326e75a5 32ca757d 33267555 3382752d     .un2}u.2Uu&3-u.3
1a012924:	33de7504 343a74db 349674b2 34f27489     .u.3.t:4.t.4.t.4
1a012934:	354d745f 35a87435 3604740b 365f73e0     _tM55t.5.t.6.s_6
1a012944:	36ba73b5 3714738a 376f735f 37ca7333     .s.6.s.7_so73s.7
1a012954:	38247307 387e72db 38d872af 39327282     .s$8.r~8.r.8.r29
1a012964:	398c7255 39e67227 3a4071fa 3a9971cc     Ur.9'r.9.q@:.q.:
1a012974:	3af2719e 3b4c716f 3ba57141 3bfd7112     .q.:oqL;Aq.;.q.;
1a012984:	3c5670e2 3caf70b3 3d077083 3d607053     .pV<.p.<.p.=Sp`=
1a012994:	3db87023 3e106ff2 3e686fc1 3ebf6f90     #p.=.o.>.oh>.o.>
1a0129a4:	3f176f5f 3f6e6f2d 3fc56efb 401d6ec9     _o.?-on?.n.?.n.@
1a0129b4:	40736e96 40ca6e63 41216e30 41776dfd     .ns@cn.@0n!A.mwA
1a0129c4:	41ce6dca 42246d96 427a6d62 42d06d2d     .m.A.m$BbmzB-m.B
1a0129d4:	43256cf9 437b6cc4 43d06c8f 44256c59     .l%C.l{C.l.CYl%D
1a0129e4:	447a6c24 44cf6bee 45246bb8 45786b81     $lzD.k.D.k$E.kxE
1a0129f4:	45cd6b4a 46216b13 46756adc 46c96aa5     Jk.E.k!F.juF.j.F
1a012a04:	471c6a6d 47706a35 47c369fd 481669c4     mj.G5jpG.i.G.i.H
1a012a14:	4869698c 48bc6953 490f6919 496168e0     .iiHSi.H.i.I.haI
1a012a24:	49b468a6 4a06686c 4a586832 4aa967f7     .h.Ilh.J2hXJ.g.J
1a012a34:	4afb67bd 4b4c6782 4b9e6746 4bef670b     .g.J.gLKFg.K.g.K
1a012a44:	4c3f66cf 4c906693 4ce16657 4d31661a     .f?L.f.LWf.L.f1M
1a012a54:	4d8165dd 4dd165a0 4e216563 4e706526     .e.M.e.Mce!N&epN
1a012a64:	4ebf64e8 4f0f64aa 4f5e646c 4fac642d     .d.N.d.Old^O-d.O
1a012a74:	4ffb63ef 504963b0 50976371 50e56331     .c.O.cIPqc.P1c.P
1a012a84:	513362f2 518162b2 51ce6271 521c6231     .b3Q.b.Qqb.Q1b.R
1a012a94:	526961f1 52b561b0 5302616f 534e612d     .aiR.a.Roa.S-aNS
1a012aa4:	539b60ec 53e760aa 54336068 547e6026     .`.S.`.Sh`3T&`~T
1a012ab4:	54ca5fe3 55155fa0 55605f5e 55ab5f1a     ._.T._.U^_`U._.U
1a012ac4:	55f55ed7 56405e93 568a5e50 56d45e0b     .^.U.^@VP^.V.^.V
1a012ad4:	571d5dc7 57675d83 57b05d3e 57f95cf9     .].W.]gW>].W.\.W
1a012ae4:	58425cb4 588b5c6e 58d45c29 591c5be3     .\BXn\.X)\.X.[.Y
1a012af4:	59645b9d 59ac5b56 59f35b10 5a3b5ac9     .[dYV[.Y.[.Y.Z;Z
1a012b04:	5a825a82 5ac95a3b 5b1059f3 5b5659ac     .Z.Z;Z.Z.Y.[.YV[
1a012b14:	5b9d5964 5be3591c 5c2958d4 5c6e588b     dY.[.Y.[.X)\.Xn\
1a012b24:	5cb45842 5cf957f9 5d3e57b0 5d835767     BX.\.W.\.W>]gW.]
1a012b34:	5dc7571d 5e0b56d4 5e50568a 5e935640     .W.].V.^.VP^@V.^
1a012b44:	5ed755f5 5f1a55ab 5f5e5560 5fa05515     .U.^.U._`U^_.U._
1a012b54:	5fe354ca 6026547e 60685433 60aa53e7     .T._~T&`3Th`.S.`
1a012b64:	60ec539b 612d534e 616f5302 61b052b5     .S.`NS-a.Soa.R.a
1a012b74:	61f15269 6231521c 627151ce 62b25181     iR.a.R1b.Qqb.Q.b
1a012b84:	62f25133 633150e5 63715097 63b05049     3Q.b.P1c.PqcIP.c
1a012b94:	63ef4ffb 642d4fac 646c4f5e 64aa4f0f     .O.c.O-d^Old.O.d
1a012ba4:	64e84ebf 65264e70 65634e21 65a04dd1     .N.dpN&e!Nce.M.e
1a012bb4:	65dd4d81 661a4d31 66574ce1 66934c90     .M.e1M.f.LWf.L.f
1a012bc4:	66cf4c3f 670b4bef 67464b9e 67824b4c     ?L.f.K.g.KFgLK.g
1a012bd4:	67bd4afb 67f74aa9 68324a58 686c4a06     .J.g.J.gXJ2h.Jlh
1a012be4:	68a649b4 68e04961 6919490f 695348bc     .I.haI.h.I.i.HSi
1a012bf4:	698c4869 69c44816 69fd47c3 6a354770     iH.i.H.i.G.ipG5j
1a012c04:	6a6d471c 6aa546c9 6adc4675 6b134621     .Gmj.F.juF.j!F.k
1a012c14:	6b4a45cd 6b814578 6bb84524 6bee44cf     .EJkxE.k$E.k.D.k
1a012c24:	6c24447a 6c594425 6c8f43d0 6cc4437b     zD$l%DYl.C.l{C.l
1a012c34:	6cf94325 6d2d42d0 6d62427a 6d964224     %C.l.B-mzBbm$B.m
1a012c44:	6dca41ce 6dfd4177 6e304121 6e6340ca     .A.mwA.m!A0n.@cn
1a012c54:	6e964073 6ec9401d 6efb3fc5 6f2d3f6e     s@.n.@.n.?.nn?-o
1a012c64:	6f5f3f17 6f903ebf 6fc13e68 6ff23e10     .?_o.>.oh>.o.>.o
1a012c74:	70233db8 70533d60 70833d07 70b33caf     .=#p`=Sp.=.p.<.p
1a012c84:	70e23c56 71123bfd 71413ba5 716f3b4c     V<.p.;.q.;AqL;oq
1a012c94:	719e3af2 71cc3a99 71fa3a40 722739e6     .:.q.:.q@:.q.9'r
1a012ca4:	7255398c 72823932 72af38d8 72db387e     .9Ur29.r.8.r~8.r
1a012cb4:	73073824 733337ca 735f376f 738a3714     $8.s.73so7_s.7.s
1a012cc4:	73b536ba 73e0365f 740b3604 743535a8     .6.s_6.s.6.t.55t
1a012cd4:	745f354d 748934f2 74b23496 74db343a     M5_t.4.t.4.t:4.t
1a012ce4:	750433de 752d3382 75553326 757d32ca     .3.u.3-u&3Uu.2}u
1a012cf4:	75a5326e 75cc3211 75f431b5 761b3158     n2.u.2.u.1.uX1.v
1a012d04:	764130fb 7668309e 768e3041 76b32fe4     .0Av.0hvA0.v./.v
1a012d14:	76d92f87 76fe2f29 77232ecc 77472e6e     ./.v)/.v..#wn.Gw
1a012d24:	776c2e11 77902db3 77b42d55 77d72cf7     ..lw.-.wU-.w.,.w
1a012d34:	77fa2c98 781d2c3a 78402bdc 78622b7d     .,.w:,.x.+@x}+bx
1a012d44:	78842b1f 78a62ac0 78c72a61 78e82a02     .+.x.*.xa*.x.*.x
1a012d54:	790929a3 792a2944 794a28e5 796a2886     .).yD)*y.(Jy.(jy
1a012d64:	798a2826 79a927c7 79c82767 79e72707     &(.y.'.yg'.y.'.y
1a012d74:	7a0526a8 7a242648 7a4225e8 7a5f2588     .&.zH&$z.%Bz.%_z
1a012d84:	7a7d2528 7a9a24c7 7ab62467 7ad32407     (%}z.$.zg$.z.$.z
1a012d94:	7aef23a6 7b0b2345 7b2622e5 7b422284     .#.zE#.{."&{."B{
1a012da4:	7b5d2223 7b7721c2 7b922161 7bac2100     #"]{.!w{a!.{.!.{
1a012db4:	7bc5209f 7bdf203e 7bf81fdc 7c111f7b     . .{> .{...{{..|
1a012dc4:	7c291f19 7c421eb8 7c5a1e56 7c711df5     ..)|..B|V.Z|..q|
1a012dd4:	7c891d93 7ca01d31 7cb71ccf 7ccd1c6d     ...|1..|...|m..|
1a012de4:	7ce31c0b 7cf91ba9 7d0f1b47 7d241ae4     ...|...|G..}..$}
1a012df4:	7d391a82 7d4e1a20 7d6219bd 7d76195b     ..9} .N}..b}[.v}
1a012e04:	7d8a18f8 7d9d1896 7db01833 7dc317d0     ...}...}3..}...}
1a012e14:	7dd6176d 7de8170a 7dfa16a8 7e0c1645     m..}...}...}E..~
1a012e24:	7e1d15e2 7e2e157f 7e3f151b 7e4f14b8     ...~...~..?~..O~
1a012e34:	7e5f1455 7e6f13f2 7e7f138e 7e8e132b     U._~..o~...~+..~
1a012e44:	7e9d12c8 7eab1264 7eba1201 7ec8119d     ...~d..~...~...~
1a012e54:	7ed51139 7ee310d6 7ef01072 7efd100e     9..~...~r..~...~
1a012e64:	7f090fab 7f150f47 7f210ee3 7f2d0e7f     ....G.....!...-.
1a012e74:	7f380e1b 7f430db7 7f4d0d53 7f580cef     ..8...C.S.M...X.
1a012e84:	7f620c8b 7f6b0c27 7f750bc3 7f7e0b5f     ..b.'.k...u._.~.
1a012e94:	7f870afb 7f8f0a97 7f970a33 7f9f09ce     ........3.......
1a012ea4:	7fa7096a 7fae0906 7fb508a2 7fbc083d     j...........=...
1a012eb4:	7fc207d9 7fc80775 7fce0710 7fd306ac     ....u...........
1a012ec4:	7fd80647 7fdd05e3 7fe1057f 7fe5051a     G...............
1a012ed4:	7fe904b6 7fed0451 7ff003ed 7ff30388     ....Q...........
1a012ee4:	7ff60324 7ff802bf 7ffa025b 7ffc01f6     $.......[.......
1a012ef4:	7ffd0192 7ffe012d 7fff00c9 7fff0064     ....-.......d...
1a012f04:	7fff0000 7fffff9b 7fffff36 7ffefed2     ........6.......
1a012f14:	7ffdfe6d 7ffcfe09 7ffafda4 7ff8fd40     m...........@...
1a012f24:	7ff6fcdb 7ff3fc77 7ff0fc12 7fedfbae     ....w...........
1a012f34:	7fe9fb49 7fe5fae5 7fe1fa80 7fddfa1c     I...............
1a012f44:	7fd8f9b8 7fd3f953 7fcef8ef 7fc8f88a     ....S...........
1a012f54:	7fc2f826 7fbcf7c2 7fb5f75d 7faef6f9     &.......].......
1a012f64:	7fa7f695 7f9ff631 7f97f5cc 7f8ff568     ....1.......h...
1a012f74:	7f87f504 7f7ef4a0 7f75f43c 7f6bf3d8     ......~.<.u...k.
1a012f84:	7f62f374 7f58f310 7f4df2ac 7f43f248     t.b...X...M.H.C.
1a012f94:	7f38f1e4 7f2df180 7f21f11c 7f15f0b8     ..8...-...!.....
1a012fa4:	7f09f054 7efdeff1 7ef0ef8d 7ee3ef29     T......~...~)..~
1a012fb4:	7ed5eec6 7ec8ee62 7ebaedfe 7eabed9b     ...~b..~...~...~
1a012fc4:	7e9ded37 7e8eecd4 7e7fec71 7e6fec0d     7..~...~q..~..o~
1a012fd4:	7e5febaa 7e4feb47 7e3feae4 7e2eea80     .._~G.O~..?~...~
1a012fe4:	7e1dea1d 7e0ce9ba 7dfae957 7de8e8f5     ...~...~W..}...}
1a012ff4:	7dd6e892 7dc3e82f 7db0e7cc 7d9de769     ...}/..}...}i..}
1a013004:	7d8ae707 7d76e6a4 7d62e642 7d4ee5df     ...}..v}B.b}..N}
1a013014:	7d39e57d 7d24e51b 7d0fe4b8 7cf9e456     }.9}..$}...}V..|
1a013024:	7ce3e3f4 7ccde392 7cb7e330 7ca0e2ce     ...|...|0..|...|
1a013034:	7c89e26c 7c71e20a 7c5ae1a9 7c42e147     l..|..q|..Z|G.B|
1a013044:	7c29e0e6 7c11e084 7bf8e023 7bdfdfc1     ..)|...|#..{...{
1a013054:	7bc5df60 7bacdeff 7b92de9e 7b77de3d     `..{...{...{=.w{
1a013064:	7b5ddddc 7b42dd7b 7b26dd1a 7b0bdcba     ..]{{.B{..&{...{
1a013074:	7aefdc59 7ad3dbf8 7ab6db98 7a9adb38     Y..z...z...z8..z
1a013084:	7a7ddad7 7a5fda77 7a42da17 7a24d9b7     ..}zw._z..Bz..$z
1a013094:	7a05d957 79e7d8f8 79c8d898 79a9d838     W..z...y...y8..y
1a0130a4:	798ad7d9 796ad779 794ad71a 792ad6bb     ...yy.jy..Jy..*y
1a0130b4:	7909d65c 78e8d5fd 78c7d59e 78a6d53f     \..y...x...x?..x
1a0130c4:	7884d4e0 7862d482 7840d423 781dd3c5     ...x..bx#.@x...x
1a0130d4:	77fad367 77d7d308 77b4d2aa 7790d24c     g..w...w...wL..w
1a0130e4:	776cd1ee 7747d191 7723d133 76fed0d6     ..lw..Gw3.#w...v
1a0130f4:	76d9d078 76b3d01b 768ecfbe 7668cf61     x..v...v...va.hv
1a013104:	7641cf04 761bcea7 75f4ce4a 75cccdee     ..Av...vJ..u...u
1a013114:	75a5cd91 757dcd35 7555ccd9 752dcc7d     ...u5.}u..Uu}.-u
1a013124:	7504cc21 74dbcbc5 74b2cb69 7489cb0d     !..u...ti..t...t
1a013134:	745fcab2 7435ca57 740bc9fb 73e0c9a0     .._tW.5t...t...s
1a013144:	73b5c945 738ac8eb 735fc890 7333c835     E..s...s.._s5.3s
1a013154:	7307c7db 72dbc781 72afc727 7282c6cd     ...s...r'..r...r
1a013164:	7255c673 7227c619 71fac5bf 71ccc566     s.Ur..'r...qf..q
1a013174:	719ec50d 716fc4b3 7141c45a 7112c402     ...q..oqZ.Aq...q
1a013184:	70e2c3a9 70b3c350 7083c2f8 7053c29f     ...pP..p...p..Sp
1a013194:	7023c247 6ff2c1ef 6fc1c197 6f90c140     G.#p...o...o@..o
1a0131a4:	6f5fc0e8 6f2dc091 6efbc03a 6ec9bfe2     .._o..-o:..n...n
1a0131b4:	6e96bf8c 6e63bf35 6e30bede 6dfdbe88     ...n5.cn..0n...m
1a0131c4:	6dcabe31 6d96bddb 6d62bd85 6d2dbd2f     1..m...m..bm/.-m
1a0131d4:	6cf9bcda 6cc4bc84 6c8fbc2f 6c59bbda     ...l...l/..l..Yl
1a0131e4:	6c24bb85 6beebb30 6bb8badb 6b81ba87     ..$l0..k...k...k
1a0131f4:	6b4aba32 6b13b9de 6adcb98a 6aa5b936     2.Jk...k...j6..j
1a013204:	6a6db8e3 6a35b88f 69fdb83c 69c4b7e9     ..mj..5j<..i...i
1a013214:	698cb796 6953b743 6919b6f0 68e0b69e     ...iC.Si...i...h
1a013224:	68a6b64b 686cb5f9 6832b5a7 67f7b556     K..h..lh..2hV..g
1a013234:	67bdb504 6782b4b3 6746b461 670bb410     ...g...ga.Fg...g
1a013244:	66cfb3c0 6693b36f 6657b31e 661ab2ce     ...fo..f..Wf...f
1a013254:	65ddb27e 65a0b22e 6563b1de 6526b18f     ~..e...e..ce..&e
1a013264:	64e8b140 64aab0f0 646cb0a1 642db053     @..d...d..ldS.-d
1a013274:	63efb004 63b0afb6 6371af68 6331af1a     ...c...ch.qc..1c
1a013284:	62f2aecc 62b2ae7e 6271ae31 6231ade3     ...b~..b1.qb..1b
1a013294:	61f1ad96 61b0ad4a 616facfd 612dacb1     ...aJ..a..oa..-a
1a0132a4:	60ecac64 60aaac18 6068abcc 6026ab81     d..`...`..h`..&`
1a0132b4:	5fe3ab35 5fa0aaea 5f5eaa9f 5f1aaa54     5.._..._..^_T.._
1a0132c4:	5ed7aa0a 5e93a9bf 5e50a975 5e0ba92b     ...^...^u.P^+..^
1a0132d4:	5dc7a8e2 5d83a898 5d3ea84f 5cf9a806     ...]...]O.>]...\
1a0132e4:	5cb4a7bd 5c6ea774 5c29a72b 5be3a6e3     ...\t.n\+.)\...[
1a0132f4:	5b9da69b 5b56a653 5b10a60c 5ac9a5c4     ...[S.V[...[...Z
1a013304:	5a82a57d 5a3ba536 59f3a4ef 59aca4a9     }..Z6.;Z...Y...Y
1a013314:	5964a462 591ca41c 58d4a3d6 588ba391     b.dY...Y...X...X
1a013324:	5842a34b 57f9a306 57b0a2c1 5767a27c     K.BX...W...W|.gW
1a013334:	571da238 56d4a1f4 568aa1af 5640a16c     8..W...V...Vl.@V
1a013344:	55f5a128 55aba0e5 5560a0a1 5515a05f     (..U...U..`U_..U
1a013354:	54caa01c 547e9fd9 54339f97 53e79f55     ...T..~T..3TU..S
1a013364:	539b9f13 534e9ed2 53029e90 52b59e4f     ...S..NS...SO..R
1a013374:	52699e0e 521c9dce 51ce9d8e 51819d4d     ..iR...R...QM..Q
1a013384:	51339d0d 50e59cce 50979c8e 50499c4f     ..3Q...P...PO.IP
1a013394:	4ffb9c10 4fac9bd2 4f5e9b93 4f0f9b55     ...O...O..^OU..O
1a0133a4:	4ebf9b17 4e709ad9 4e219a9c 4dd19a5f     ...N..pN..!N_..M
1a0133b4:	4d819a22 4d3199e5 4ce199a8 4c90996c     "..M..1M...Ll..L
1a0133c4:	4c3f9930 4bef98f4 4b9e98b9 4b4c987d     0.?L...K...K}.LK
1a0133d4:	4afb9842 4aa99808 4a5897cd 4a069793     B..J...J..XJ...J
1a0133e4:	49b49759 4961971f 490f96e6 48bc96ac     Y..I..aI...I...H
1a0133f4:	48699673 4816963b 47c39602 477095ca     s.iH;..H...G..pG
1a013404:	471c9592 46c9955a 46759523 462194ec     ...GZ..F#.uF..!F
1a013414:	45cd94b5 4578947e 45249447 44cf9411     ...E~.xEG.$E...D
1a013424:	447a93db 442593a6 43d09370 437b933b     ..zD..%Dp..C;.{C
1a013434:	43259306 42d092d2 427a929d 42249269     ..%C...B..zBi.$B
1a013444:	41ce9235 41779202 412191cf 40ca919c     5..A..wA..!A...@
1a013454:	40739169 401d9136 3fc59104 3f6e90d2     i.s@6..@...?..n?
1a013464:	3f1790a0 3ebf906f 3e68903e 3e10900d     ...?o..>>.h>...>
1a013474:	3db88fdc 3d608fac 3d078f7c 3caf8f4c     ...=..`=|..=L..<
1a013484:	3c568f1d 3bfd8eed 3ba58ebe 3b4c8e90     ..V<...;...;..L;
1a013494:	3af28e61 3a998e33 3a408e05 39e68dd8     a..:3..:..@:...9
1a0134a4:	398c8daa 39328d7d 38d88d50 387e8d24     ...9}.29P..8$.~8
1a0134b4:	38248cf8 37ca8ccc 376f8ca0 37148c75     ..$8...7..o7u..7
1a0134c4:	36ba8c4a 365f8c1f 36048bf4 35a88bca     J..6.._6...6...5
1a0134d4:	354d8ba0 34f28b76 34968b4d 343a8b24     ..M5v..4M..4$.:4
1a0134e4:	33de8afb 33828ad2 33268aaa 32ca8a82     ...3...3..&3...2
1a0134f4:	326e8a5a 32118a33 31b58a0b 315889e4     Z.n23..2...1..X1
1a013504:	30fb89be 309e8997 30418971 2fe4894c     ...0...0q.A0L../
1a013514:	2f878926 2f298901 2ecc88dc 2e6e88b8     &../..)/......n.
1a013524:	2e118893 2db3886f 2d55884b 2cf78828     ....o..-K.U-(..,
1a013534:	2c988805 2c3a87e2 2bdc87bf 2b7d879d     ...,..:,...+..}+
1a013544:	2b1f877b 2ac08759 2a618738 2a028717     {..+Y..*8.a*...*
1a013554:	29a386f6 294486d5 28e586b5 28868695     ...)..D)...(...(
1a013564:	28268675 27c78656 27678637 27078618     u.&(V..'7.g'...'
1a013574:	26a885fa 264885db 25e885bd 258885a0     ...&..H&...%...%
1a013584:	25288582 24c78565 24678549 2407852c     ..(%e..$I.g$,..$
1a013594:	23a68510 234584f4 22e584d9 228484bd     ...#..E#..."..."
1a0135a4:	222384a2 21c28488 2161846d 21008453     ..#"...!m.a!S..!
1a0135b4:	209f843a 203e8420 1fdc8407 1f7b83ee     :..  .> ......{.
1a0135c4:	1f1983d6 1eb883bd 1e5683a5 1df5838e     ..........V.....
1a0135d4:	1d938376 1d31835f 1ccf8348 1c6d8332     v..._.1.H...2.m.
1a0135e4:	1c0b831c 1ba98306 1b4782f0 1ae482db     ..........G.....
1a0135f4:	1a8282c6 1a2082b1 19bd829d 195b8289     ...... .......[.
1a013604:	18f88275 18968262 1833824f 17d0823c     u...b...O.3.<...
1a013614:	176d8229 170a8217 16a88205 164581f3     ).m...........E.
1a013624:	15e281e2 157f81d1 151b81c0 14b881b0     ................
1a013634:	145581a0 13f28190 138e8180 132b8171     ..U.........q.+.
1a013644:	12c88162 12648154 12018145 119d8137     b...T.d.E...7...
1a013654:	1139812a 10d6811c 1072810f 100e8102     *.9.......r.....
1a013664:	0fab80f6 0f4780ea 0ee380de 0e7f80d2     ......G.........
1a013674:	0e1b80c7 0db780bc 0d5380b2 0cef80a7     ..........S.....
1a013684:	0c8b809d 0c278094 0bc3808a 0b5f8081     ......'......._.
1a013694:	0afb8078 0a978070 0a338068 09ce8060     x...p...h.3.`...
1a0136a4:	096a8058 09068051 08a2804a 083d8043     X.j.Q...J...C.=.
1a0136b4:	07d9803d 07758037 07108031 06ac802c     =...7.u.1...,...
1a0136c4:	06478027 05e38022 057f801e 051a801a     '.G."...........
1a0136d4:	04b68016 04518012 03ed800f 0388800c     ......Q.........
1a0136e4:	03248009 02bf8007 025b8005 01f68003     ..$.......[.....
1a0136f4:	01928002 012d8001 00c98000 00648000     ......-.......d.
1a013704:	00008000 ff9b8000 ff368000 fed28001     ..........6.....
1a013714:	fe6d8002 fe098003 fda48005 fd408007     ..m...........@.
1a013724:	fcdb8009 fc77800c fc12800f fbae8012     ......w.........
1a013734:	fb498016 fae5801a fa80801e fa1c8022     ..I........."...
1a013744:	f9b88027 f953802c f8ef8031 f88a8037     '...,.S.1...7...
1a013754:	f826803d f7c28043 f75d804a f6f98051     =.&.C...J.].Q...
1a013764:	f6958058 f6318060 f5cc8068 f5688070     X...`.1.h...p.h.
1a013774:	f5048078 f4a08081 f43c808a f3d88094     x.........<.....
1a013784:	f374809d f31080a7 f2ac80b2 f24880bc     ..t...........H.
1a013794:	f1e480c7 f18080d2 f11c80de f0b880ea     ................
1a0137a4:	f05480f6 eff18102 ef8d810f ef29811c     ..T...........).
1a0137b4:	eec6812a ee628137 edfe8145 ed9b8154     *...7.b.E...T...
1a0137c4:	ed378162 ecd48171 ec718180 ec0d8190     b.7.q.....q.....
1a0137d4:	ebaa81a0 eb4781b0 eae481c0 ea8081d1     ......G.........
1a0137e4:	ea1d81e2 e9ba81f3 e9578205 e8f58217     ..........W.....
1a0137f4:	e8928229 e82f823c e7cc824f e7698262     )...<./.O...b.i.
1a013804:	e7078275 e6a48289 e642829d e5df82b1     u.........B.....
1a013814:	e57d82c6 e51b82db e4b882f0 e4568306     ..}...........V.
1a013824:	e3f4831c e3928332 e3308348 e2ce835f     ....2...H.0._...
1a013834:	e26c8376 e20a838e e1a983a5 e14783bd     v.l...........G.
1a013844:	e0e683d6 e08483ee e0238407 dfc18420     ..........#. ...
1a013854:	df60843a deff8453 de9e846d de3d8488     :.`.S...m.....=.
1a013864:	dddc84a2 dd7b84bd dd1a84d9 dcba84f4     ......{.........
1a013874:	dc598510 dbf8852c db988549 db388565     ..Y.,...I...e.8.
1a013884:	dad78582 da7785a0 da1785bd d9b785db     ......w.........
1a013894:	d95785fa d8f88618 d8988637 d8388656     ..W.....7...V.8.
1a0138a4:	d7d98675 d7798695 d71a86b5 d6bb86d5     u.....y.........
1a0138b4:	d65c86f6 d5fd8717 d59e8738 d53f8759     ..\.....8...Y.?.
1a0138c4:	d4e0877b d482879d d42387bf d3c587e2     {.........#.....
1a0138d4:	d3678805 d3088828 d2aa884b d24c886f     ..g.(...K...o.L.
1a0138e4:	d1ee8893 d19188b8 d13388dc d0d68901     ..........3.....
1a0138f4:	d0788926 d01b894c cfbe8971 cf618997     &.x.L...q.....a.
1a013904:	cf0489be cea789e4 ce4a8a0b cdee8a33     ..........J.3...
1a013914:	cd918a5a cd358a82 ccd98aaa cc7d8ad2     Z.....5.......}.
1a013924:	cc218afb cbc58b24 cb698b4d cb0d8b76     ..!.$...M.i.v...
1a013934:	cab28ba0 ca578bca c9fb8bf4 c9a08c1f     ......W.........
1a013944:	c9458c4a c8eb8c75 c8908ca0 c8358ccc     J.E.u.........5.
1a013954:	c7db8cf8 c7818d24 c7278d50 c6cd8d7d     ....$...P.'.}...
1a013964:	c6738daa c6198dd8 c5bf8e05 c5668e33     ..s.........3.f.
1a013974:	c50d8e61 c4b38e90 c45a8ebe c4028eed     a.........Z.....
1a013984:	c3a98f1d c3508f4c c2f88f7c c29f8fac     ....L.P.|.......
1a013994:	c2478fdc c1ef900d c197903e c140906f     ..G.....>...o.@.
1a0139a4:	c0e890a0 c09190d2 c03a9104 bfe29136     ..........:.6...
1a0139b4:	bf8c9169 bf35919c bede91cf be889202     i.....5.........
1a0139c4:	be319235 bddb9269 bd85929d bd2f92d2     5.1.i........./.
1a0139d4:	bcda9306 bc84933b bc2f9370 bbda93a6     ....;...p./.....
1a0139e4:	bb8593db bb309411 badb9447 ba87947e     ......0.G...~...
1a0139f4:	ba3294b5 b9de94ec b98a9523 b936955a     ..2.....#...Z.6.
1a013a04:	b8e39592 b88f95ca b83c9602 b7e9963b     ..........<.;...
1a013a14:	b7969673 b74396ac b6f096e6 b69e971f     s.....C.........
1a013a24:	b64b9759 b5f99793 b5a797cd b5569808     Y.K...........V.
1a013a34:	b5049842 b4b3987d b46198b9 b41098f4     B...}.....a.....
1a013a44:	b3c09930 b36f996c b31e99a8 b2ce99e5     0...l.o.........
1a013a54:	b27e9a22 b22e9a5f b1de9a9c b18f9ad9     ".~._...........
1a013a64:	b1409b17 b0f09b55 b0a19b93 b0539bd2     ..@.U.........S.
1a013a74:	b0049c10 afb69c4f af689c8e af1a9cce     ....O.....h.....
1a013a84:	aecc9d0d ae7e9d4d ae319d8e ade39dce     ....M.~...1.....
1a013a94:	ad969e0e ad4a9e4f acfd9e90 acb19ed2     ....O.J.........
1a013aa4:	ac649f13 ac189f55 abcc9f97 ab819fd9     ..d.U...........
1a013ab4:	ab35a01c aaeaa05f aa9fa0a1 aa54a0e5     ..5._.........T.
1a013ac4:	aa0aa128 a9bfa16c a975a1af a92ba1f4     (...l.....u...+.
1a013ad4:	a8e2a238 a898a27c a84fa2c1 a806a306     8...|.....O.....
1a013ae4:	a7bda34b a774a391 a72ba3d6 a6e3a41c     K.....t...+.....
1a013af4:	a69ba462 a653a4a9 a60ca4ef a5c4a536     b.....S.....6...
1a013b04:	a57da57d a536a5c4 a4efa60c a4a9a653     }.}...6.....S...
1a013b14:	a462a69b a41ca6e3 a3d6a72b a391a774     ..b.....+...t...
1a013b24:	a34ba7bd a306a806 a2c1a84f a27ca898     ..K.....O.....|.
1a013b34:	a238a8e2 a1f4a92b a1afa975 a16ca9bf     ..8.+...u.....l.
1a013b44:	a128aa0a a0e5aa54 a0a1aa9f a05faaea     ..(.T........._.
1a013b54:	a01cab35 9fd9ab81 9f97abcc 9f55ac18     5.............U.
1a013b64:	9f13ac64 9ed2acb1 9e90acfd 9e4fad4a     d...........J.O.
1a013b74:	9e0ead96 9dceade3 9d8eae31 9d4dae7e     ........1...~.M.
1a013b84:	9d0daecc 9cceaf1a 9c8eaf68 9c4fafb6     ........h.....O.
1a013b94:	9c10b004 9bd2b053 9b93b0a1 9b55b0f0     ....S.........U.
1a013ba4:	9b17b140 9ad9b18f 9a9cb1de 9a5fb22e     @............._.
1a013bb4:	9a22b27e 99e5b2ce 99a8b31e 996cb36f     ~.".........o.l.
1a013bc4:	9930b3c0 98f4b410 98b9b461 987db4b3     ..0.....a.....}.
1a013bd4:	9842b504 9808b556 97cdb5a7 9793b5f9     ..B.V...........
1a013be4:	9759b64b 971fb69e 96e6b6f0 96acb743     K.Y.........C...
1a013bf4:	9673b796 963bb7e9 9602b83c 95cab88f     ..s...;.<.......
1a013c04:	9592b8e3 955ab936 9523b98a 94ecb9de     ....6.Z...#.....
1a013c14:	94b5ba32 947eba87 9447badb 9411bb30     2.....~...G.0...
1a013c24:	93dbbb85 93a6bbda 9370bc2f 933bbc84     ......../.p...;.
1a013c34:	9306bcda 92d2bd2f 929dbd85 9269bddb     ..../.........i.
1a013c44:	9235be31 9202be88 91cfbede 919cbf35     1.5.........5...
1a013c54:	9169bf8c 9136bfe2 9104c03a 90d2c091     ..i...6.:.......
1a013c64:	90a0c0e8 906fc140 903ec197 900dc1ef     ....@.o...>.....
1a013c74:	8fdcc247 8facc29f 8f7cc2f8 8f4cc350     G.........|.P.L.
1a013c84:	8f1dc3a9 8eedc402 8ebec45a 8e90c4b3     ........Z.......
1a013c94:	8e61c50d 8e33c566 8e05c5bf 8dd8c619     ..a.f.3.........
1a013ca4:	8daac673 8d7dc6cd 8d50c727 8d24c781     s.....}.'.P...$.
1a013cb4:	8cf8c7db 8cccc835 8ca0c890 8c75c8eb     ....5.........u.
1a013cc4:	8c4ac945 8c1fc9a0 8bf4c9fb 8bcaca57     E.J.........W...
1a013cd4:	8ba0cab2 8b76cb0d 8b4dcb69 8b24cbc5     ......v.i.M...$.
1a013ce4:	8afbcc21 8ad2cc7d 8aaaccd9 8a82cd35     !...}.......5...
1a013cf4:	8a5acd91 8a33cdee 8a0bce4a 89e4cea7     ..Z...3.J.......
1a013d04:	89becf04 8997cf61 8971cfbe 894cd01b     ....a.....q...L.
1a013d14:	8926d078 8901d0d6 88dcd133 88b8d191     x.&.....3.......
1a013d24:	8893d1ee 886fd24c 884bd2aa 8828d308     ....L.o...K...(.
1a013d34:	8805d367 87e2d3c5 87bfd423 879dd482     g.......#.......
1a013d44:	877bd4e0 8759d53f 8738d59e 8717d5fd     ..{.?.Y...8.....
1a013d54:	86f6d65c 86d5d6bb 86b5d71a 8695d779     \...........y...
1a013d64:	8675d7d9 8656d838 8637d898 8618d8f8     ..u.8.V...7.....
1a013d74:	85fad957 85dbd9b7 85bdda17 85a0da77     W...........w...
1a013d84:	8582dad7 8565db38 8549db98 852cdbf8     ....8.e...I...,.
1a013d94:	8510dc59 84f4dcba 84d9dd1a 84bddd7b     Y...........{...
1a013da4:	84a2dddc 8488de3d 846dde9e 8453deff     ....=.....m...S.
1a013db4:	843adf60 8420dfc1 8407e023 83eee084     `.:... .#.......
1a013dc4:	83d6e0e6 83bde147 83a5e1a9 838ee20a     ....G...........
1a013dd4:	8376e26c 835fe2ce 8348e330 8332e392     l.v..._.0.H...2.
1a013de4:	831ce3f4 8306e456 82f0e4b8 82dbe51b     ....V...........
1a013df4:	82c6e57d 82b1e5df 829de642 8289e6a4     }.......B.......
1a013e04:	8275e707 8262e769 824fe7cc 823ce82f     ..u.i.b...O./.<.
1a013e14:	8229e892 8217e8f5 8205e957 81f3e9ba     ..).....W.......
1a013e24:	81e2ea1d 81d1ea80 81c0eae4 81b0eb47     ............G...
1a013e34:	81a0ebaa 8190ec0d 8180ec71 8171ecd4     ........q.....q.
1a013e44:	8162ed37 8154ed9b 8145edfe 8137ee62     7.b...T...E.b.7.
1a013e54:	812aeec6 811cef29 810fef8d 8102eff1     ..*.)...........
1a013e64:	80f6f054 80eaf0b8 80def11c 80d2f180     T...............
1a013e74:	80c7f1e4 80bcf248 80b2f2ac 80a7f310     ....H...........
1a013e84:	809df374 8094f3d8 808af43c 8081f4a0     t.......<.......
1a013e94:	8078f504 8070f568 8068f5cc 8060f631     ..x.h.p...h.1.`.
1a013ea4:	8058f695 8051f6f9 804af75d 8043f7c2     ..X...Q.].J...C.
1a013eb4:	803df826 8037f88a 8031f8ef 802cf953     &.=...7...1.S.,.
1a013ec4:	8027f9b8 8022fa1c 801efa80 801afae5     ..'...".........
1a013ed4:	8016fb49 8012fbae 800ffc12 800cfc77     I...........w...
1a013ee4:	8009fcdb 8007fd40 8005fda4 8003fe09     ....@...........
1a013ef4:	8002fe6d 8001fed2 8000ff36 8000ff9b     m.......6.......

1a013f04 <twiddleCoef_256_q15>:
1a013f04:	00007fff 03247ff6 06477fd8 096a7fa7     ......$...G...j.
1a013f14:	0c8b7f62 0fab7f09 12c87e9d 15e27e1d     b........~...~..
1a013f24:	18f87d8a 1c0b7ce3 1f197c29 22237b5d     .}...|..)|..]{#"
1a013f34:	25287a7d 2826798a 2b1f7884 2e11776c     }z(%.y&(.x.+lw..
1a013f44:	30fb7641 33de7504 36ba73b5 398c7255     Av.0.u.3.s.6Ur.9
1a013f54:	3c5670e2 3f176f5f 41ce6dca 447a6c24     .pV<_o.?.m.A$lzD
1a013f64:	471c6a6d 49b468a6 4c3f66cf 4ebf64e8     mj.G.h.I.f?L.d.N
1a013f74:	513362f2 539b60ec 55f55ed7 58425cb4     .b3Q.`.S.^.U.\BX
1a013f84:	5a825a82 5cb45842 5ed755f5 60ec539b     .Z.ZBX.\.U.^.S.`
1a013f94:	62f25133 64e84ebf 66cf4c3f 68a649b4     3Q.b.N.d?L.f.I.h
1a013fa4:	6a6d471c 6c24447a 6dca41ce 6f5f3f17     .GmjzD$l.A.m.?_o
1a013fb4:	70e23c56 7255398c 73b536ba 750433de     V<.p.9Ur.6.s.3.u
1a013fc4:	764130fb 776c2e11 78842b1f 798a2826     .0Av..lw.+.x&(.y
1a013fd4:	7a7d2528 7b5d2223 7c291f19 7ce31c0b     (%}z#"]{..)|...|
1a013fe4:	7d8a18f8 7e1d15e2 7e9d12c8 7f090fab     ...}...~...~....
1a013ff4:	7f620c8b 7fa7096a 7fd80647 7ff60324     ..b.j...G...$...
1a014004:	7fff0000 7ff6fcdb 7fd8f9b8 7fa7f695     ................
1a014014:	7f62f374 7f09f054 7e9ded37 7e1dea1d     t.b.T...7..~...~
1a014024:	7d8ae707 7ce3e3f4 7c29e0e6 7b5ddddc     ...}...|..)|..]{
1a014034:	7a7ddad7 798ad7d9 7884d4e0 776cd1ee     ..}z...y...x..lw
1a014044:	7641cf04 7504cc21 73b5c945 7255c673     ..Av!..uE..ss.Ur
1a014054:	70e2c3a9 6f5fc0e8 6dcabe31 6c24bb85     ...p.._o1..m..$l
1a014064:	6a6db8e3 68a6b64b 66cfb3c0 64e8b140     ..mjK..h...f@..d
1a014074:	62f2aecc 60ecac64 5ed7aa0a 5cb4a7bd     ...bd..`...^...\
1a014084:	5a82a57d 5842a34b 55f5a128 539b9f13     }..ZK.BX(..U...S
1a014094:	51339d0d 4ebf9b17 4c3f9930 49b49759     ..3Q...N0.?LY..I
1a0140a4:	471c9592 447a93db 41ce9235 3f1790a0     ...G..zD5..A...?
1a0140b4:	3c568f1d 398c8daa 36ba8c4a 33de8afb     ..V<...9J..6...3
1a0140c4:	30fb89be 2e118893 2b1f877b 28268675     ...0....{..+u.&(
1a0140d4:	25288582 222384a2 1f1983d6 1c0b831c     ..(%..#"........
1a0140e4:	18f88275 15e281e2 12c88162 0fab80f6     u.......b.......
1a0140f4:	0c8b809d 096a8058 06478027 03248009     ....X.j.'.G...$.
1a014104:	00008000 fcdb8009 f9b88027 f6958058     ........'...X...
1a014114:	f374809d f05480f6 ed378162 ea1d81e2     ..t...T.b.7.....
1a014124:	e7078275 e3f4831c e0e683d6 dddc84a2     u...............
1a014134:	dad78582 d7d98675 d4e0877b d1ee8893     ....u...{.......
1a014144:	cf0489be cc218afb c9458c4a c6738daa     ......!.J.E...s.
1a014154:	c3a98f1d c0e890a0 be319235 bb8593db     ........5.1.....
1a014164:	b8e39592 b64b9759 b3c09930 b1409b17     ....Y.K.0.....@.
1a014174:	aecc9d0d ac649f13 aa0aa128 a7bda34b     ......d.(...K...
1a014184:	a57da57d a34ba7bd a128aa0a 9f13ac64     }.}...K...(.d...
1a014194:	9d0daecc 9b17b140 9930b3c0 9759b64b     ....@.....0.K.Y.
1a0141a4:	9592b8e3 93dbbb85 9235be31 90a0c0e8     ........1.5.....
1a0141b4:	8f1dc3a9 8daac673 8c4ac945 8afbcc21     ....s...E.J.!...
1a0141c4:	89becf04 8893d1ee 877bd4e0 8675d7d9     ..........{...u.
1a0141d4:	8582dad7 84a2dddc 83d6e0e6 831ce3f4     ................
1a0141e4:	8275e707 81e2ea1d 8162ed37 80f6f054     ..u.....7.b.T...
1a0141f4:	809df374 8058f695 8027f9b8 8009fcdb     t.....X...'.....

1a014204 <twiddleCoef_512_q15>:
1a014204:	00007fff 01927ffd 03247ff6 04b67fe9     ..........$.....
1a014214:	06477fd8 07d97fc2 096a7fa7 0afb7f87     ..G.......j.....
1a014224:	0c8b7f62 0e1b7f38 0fab7f09 11397ed5     b...8........~9.
1a014234:	12c87e9d 14557e5f 15e27e1d 176d7dd6     .~.._~U..~...}m.
1a014244:	18f87d8a 1a827d39 1c0b7ce3 1d937c89     .}..9}...|...|..
1a014254:	1f197c29 209f7bc5 22237b5d 23a67aef     )|...{. ]{#".z.#
1a014264:	25287a7d 26a87a05 2826798a 29a37909     }z(%.z.&.y&(.y.)
1a014274:	2b1f7884 2c9877fa 2e11776c 2f8776d9     .x.+.w.,lw...v./
1a014284:	30fb7641 326e75a5 33de7504 354d745f     Av.0.un2.u.3_tM5
1a014294:	36ba73b5 38247307 398c7255 3af2719e     .s.6.s$8Ur.9.q.:
1a0142a4:	3c5670e2 3db87023 3f176f5f 40736e96     .pV<#p.=_o.?.ns@
1a0142b4:	41ce6dca 43256cf9 447a6c24 45cd6b4a     .m.A.l%C$lzDJk.E
1a0142c4:	471c6a6d 4869698c 49b468a6 4afb67bd     mj.G.iiH.h.I.g.J
1a0142d4:	4c3f66cf 4d8165dd 4ebf64e8 4ffb63ef     .f?L.e.M.d.N.c.O
1a0142e4:	513362f2 526961f1 539b60ec 54ca5fe3     .b3Q.aiR.`.S._.T
1a0142f4:	55f55ed7 571d5dc7 58425cb4 59645b9d     .^.U.].W.\BX.[dY
1a014304:	5a825a82 5b9d5964 5cb45842 5dc7571d     .Z.ZdY.[BX.\.W.]
1a014314:	5ed755f5 5fe354ca 60ec539b 61f15269     .U.^.T._.S.`iR.a
1a014324:	62f25133 63ef4ffb 64e84ebf 65dd4d81     3Q.b.O.c.N.d.M.e
1a014334:	66cf4c3f 67bd4afb 68a649b4 698c4869     ?L.f.J.g.I.hiH.i
1a014344:	6a6d471c 6b4a45cd 6c24447a 6cf94325     .Gmj.EJkzD$l%C.l
1a014354:	6dca41ce 6e964073 6f5f3f17 70233db8     .A.ms@.n.?_o.=#p
1a014364:	70e23c56 719e3af2 7255398c 73073824     V<.p.:.q.9Ur$8.s
1a014374:	73b536ba 745f354d 750433de 75a5326e     .6.sM5_t.3.un2.u
1a014384:	764130fb 76d92f87 776c2e11 77fa2c98     .0Av./.v..lw.,.w
1a014394:	78842b1f 790929a3 798a2826 7a0526a8     .+.x.).y&(.y.&.z
1a0143a4:	7a7d2528 7aef23a6 7b5d2223 7bc5209f     (%}z.#.z#"]{. .{
1a0143b4:	7c291f19 7c891d93 7ce31c0b 7d391a82     ..)|...|...|..9}
1a0143c4:	7d8a18f8 7dd6176d 7e1d15e2 7e5f1455     ...}m..}...~U._~
1a0143d4:	7e9d12c8 7ed51139 7f090fab 7f380e1b     ...~9..~......8.
1a0143e4:	7f620c8b 7f870afb 7fa7096a 7fc207d9     ..b.....j.......
1a0143f4:	7fd80647 7fe904b6 7ff60324 7ffd0192     G.......$.......
1a014404:	7fff0000 7ffdfe6d 7ff6fcdb 7fe9fb49     ....m.......I...
1a014414:	7fd8f9b8 7fc2f826 7fa7f695 7f87f504     ....&...........
1a014424:	7f62f374 7f38f1e4 7f09f054 7ed5eec6     t.b...8.T......~
1a014434:	7e9ded37 7e5febaa 7e1dea1d 7dd6e892     7..~.._~...~...}
1a014444:	7d8ae707 7d39e57d 7ce3e3f4 7c89e26c     ...}}.9}...|l..|
1a014454:	7c29e0e6 7bc5df60 7b5ddddc 7aefdc59     ..)|`..{..]{Y..z
1a014464:	7a7ddad7 7a05d957 798ad7d9 7909d65c     ..}zW..z...y\..y
1a014474:	7884d4e0 77fad367 776cd1ee 76d9d078     ...xg..w..lwx..v
1a014484:	7641cf04 75a5cd91 7504cc21 745fcab2     ..Av...u!..u.._t
1a014494:	73b5c945 7307c7db 7255c673 719ec50d     E..s...ss.Ur...q
1a0144a4:	70e2c3a9 7023c247 6f5fc0e8 6e96bf8c     ...pG.#p.._o...n
1a0144b4:	6dcabe31 6cf9bcda 6c24bb85 6b4aba32     1..m...l..$l2.Jk
1a0144c4:	6a6db8e3 698cb796 68a6b64b 67bdb504     ..mj...iK..h...g
1a0144d4:	66cfb3c0 65ddb27e 64e8b140 63efb004     ...f~..e@..d...c
1a0144e4:	62f2aecc 61f1ad96 60ecac64 5fe3ab35     ...b...ad..`5.._
1a0144f4:	5ed7aa0a 5dc7a8e2 5cb4a7bd 5b9da69b     ...^...]...\...[
1a014504:	5a82a57d 5964a462 5842a34b 571da238     }..Zb.dYK.BX8..W
1a014514:	55f5a128 54caa01c 539b9f13 52699e0e     (..U...T...S..iR
1a014524:	51339d0d 4ffb9c10 4ebf9b17 4d819a22     ..3Q...O...N"..M
1a014534:	4c3f9930 4afb9842 49b49759 48699673     0.?LB..JY..Is.iH
1a014544:	471c9592 45cd94b5 447a93db 43259306     ...G...E..zD..%C
1a014554:	41ce9235 40739169 3f1790a0 3db88fdc     5..Ai.s@...?...=
1a014564:	3c568f1d 3af28e61 398c8daa 38248cf8     ..V<a..:...9..$8
1a014574:	36ba8c4a 354d8ba0 33de8afb 326e8a5a     J..6..M5...3Z.n2
1a014584:	30fb89be 2f878926 2e118893 2c988805     ...0&../.......,
1a014594:	2b1f877b 29a386f6 28268675 26a885fa     {..+...)u.&(...&
1a0145a4:	25288582 23a68510 222384a2 209f843a     ..(%...#..#":.. 
1a0145b4:	1f1983d6 1d938376 1c0b831c 1a8282c6     ....v...........
1a0145c4:	18f88275 176d8229 15e281e2 145581a0     u...).m.......U.
1a0145d4:	12c88162 1139812a 0fab80f6 0e1b80c7     b...*.9.........
1a0145e4:	0c8b809d 0afb8078 096a8058 07d9803d     ....x...X.j.=...
1a0145f4:	06478027 04b68016 03248009 01928002     '.G.......$.....
1a014604:	00008000 fe6d8002 fcdb8009 fb498016     ......m.......I.
1a014614:	f9b88027 f826803d f6958058 f5048078     '...=.&.X...x...
1a014624:	f374809d f1e480c7 f05480f6 eec6812a     ..t.......T.*...
1a014634:	ed378162 ebaa81a0 ea1d81e2 e8928229     b.7.........)...
1a014644:	e7078275 e57d82c6 e3f4831c e26c8376     u.....}.....v.l.
1a014654:	e0e683d6 df60843a dddc84a2 dc598510     ....:.`.......Y.
1a014664:	dad78582 d95785fa d7d98675 d65c86f6     ......W.u.....\.
1a014674:	d4e0877b d3678805 d1ee8893 d0788926     {.....g.....&.x.
1a014684:	cf0489be cd918a5a cc218afb cab28ba0     ....Z.....!.....
1a014694:	c9458c4a c7db8cf8 c6738daa c50d8e61     J.E.......s.a...
1a0146a4:	c3a98f1d c2478fdc c0e890a0 bf8c9169     ......G.....i...
1a0146b4:	be319235 bcda9306 bb8593db ba3294b5     5.1...........2.
1a0146c4:	b8e39592 b7969673 b64b9759 b5049842     ....s...Y.K.B...
1a0146d4:	b3c09930 b27e9a22 b1409b17 b0049c10     0...".~...@.....
1a0146e4:	aecc9d0d ad969e0e ac649f13 ab35a01c     ..........d...5.
1a0146f4:	aa0aa128 a8e2a238 a7bda34b a69ba462     (...8...K...b...
1a014704:	a57da57d a462a69b a34ba7bd a238a8e2     }.}...b...K...8.
1a014714:	a128aa0a a01cab35 9f13ac64 9e0ead96     ..(.5...d.......
1a014724:	9d0daecc 9c10b004 9b17b140 9a22b27e     ........@...~.".
1a014734:	9930b3c0 9842b504 9759b64b 9673b796     ..0...B.K.Y...s.
1a014744:	9592b8e3 94b5ba32 93dbbb85 9306bcda     ....2...........
1a014754:	9235be31 9169bf8c 90a0c0e8 8fdcc247     1.5...i.....G...
1a014764:	8f1dc3a9 8e61c50d 8daac673 8cf8c7db     ......a.s.......
1a014774:	8c4ac945 8ba0cab2 8afbcc21 8a5acd91     E.J.....!.....Z.
1a014784:	89becf04 8926d078 8893d1ee 8805d367     ....x.&.....g...
1a014794:	877bd4e0 86f6d65c 8675d7d9 85fad957     ..{.\.....u.W...
1a0147a4:	8582dad7 8510dc59 84a2dddc 843adf60     ....Y.......`.:.
1a0147b4:	83d6e0e6 8376e26c 831ce3f4 82c6e57d     ....l.v.....}...
1a0147c4:	8275e707 8229e892 81e2ea1d 81a0ebaa     ..u...).........
1a0147d4:	8162ed37 812aeec6 80f6f054 80c7f1e4     7.b...*.T.......
1a0147e4:	809df374 8078f504 8058f695 803df826     t.....x...X.&.=.
1a0147f4:	8027f9b8 8016fb49 8009fcdb 8002fe6d     ..'.I.......m...

1a014804 <armBitRevIndexTable_fixed_512>:
1a014804:	08000008 04000010 0c000018 02000020     ............ ...
1a014814:	0a000028 06000030 0e000038 01000040     (...0...8...@...
1a014824:	09000048 05000050 0d000058 03000060     H...P...X...`...
1a014834:	0b000068 07000070 0f000078 08800088     h...p...x.......
1a014844:	04800090 0c800098 028000a0 0a8000a8     ................
1a014854:	068000b0 0e8000b8 018000c0 098000c8     ................
1a014864:	058000d0 0d8000d8 038000e0 0b8000e8     ................
1a014874:	078000f0 0f8000f8 08400108 04400110     ..........@...@.
1a014884:	0c400118 02400120 0a400128 06400130     ..@. .@.(.@.0.@.
1a014894:	0e400138 09400148 05400150 0d400158     8.@.H.@.P.@.X.@.
1a0148a4:	03400160 0b400168 07400170 0f400178     `.@.h.@.p.@.x.@.
1a0148b4:	08c00188 04c00190 0cc00198 02c001a0     ................
1a0148c4:	0ac001a8 06c001b0 0ec001b8 09c001c8     ................
1a0148d4:	05c001d0 0dc001d8 03c001e0 0bc001e8     ................
1a0148e4:	07c001f0 0fc001f8 08200208 04200210     .......... ... .
1a0148f4:	0c200218 0a200228 06200230 0e200238     .. .(. .0. .8. .
1a014904:	09200248 05200250 0d200258 03200260     H. .P. .X. .`. .
1a014914:	0b200268 07200270 0f200278 08a00288     h. .p. .x. .....
1a014924:	04a00290 0ca00298 0aa002a8 06a002b0     ................
1a014934:	0ea002b8 09a002c8 05a002d0 0da002d8     ................
1a014944:	03a002e0 0ba002e8 07a002f0 0fa002f8     ................
1a014954:	08600308 04600310 0c600318 0a600328     ..`...`...`.(.`.
1a014964:	06600330 0e600338 09600348 05600350     0.`.8.`.H.`.P.`.
1a014974:	0d600358 0b600368 07600370 0f600378     X.`.h.`.p.`.x.`.
1a014984:	08e00388 04e00390 0ce00398 0ae003a8     ................
1a014994:	06e003b0 0ee003b8 09e003c8 05e003d0     ................
1a0149a4:	0de003d8 0be003e8 07e003f0 0fe003f8     ................
1a0149b4:	08100408 0c100418 0a100428 06100430     ........(...0...
1a0149c4:	0e100438 09100448 05100450 0d100458     8...H...P...X...
1a0149d4:	0b100468 07100470 0f100478 08900488     h...p...x.......
1a0149e4:	0c900498 0a9004a8 069004b0 0e9004b8     ................
1a0149f4:	099004c8 059004d0 0d9004d8 0b9004e8     ................
1a014a04:	079004f0 0f9004f8 08500508 0c500518     ..........P...P.
1a014a14:	0a500528 06500530 0e500538 09500548     (.P.0.P.8.P.H.P.
1a014a24:	0d500558 0b500568 07500570 0f500578     X.P.h.P.p.P.x.P.
1a014a34:	08d00588 0cd00598 0ad005a8 06d005b0     ................
1a014a44:	0ed005b8 09d005c8 0dd005d8 0bd005e8     ................
1a014a54:	07d005f0 0fd005f8 08300608 0c300618     ..........0...0.
1a014a64:	0a300628 0e300638 09300648 0d300658     (.0.8.0.H.0.X.0.
1a014a74:	0b300668 07300670 0f300678 08b00688     h.0.p.0.x.0.....
1a014a84:	0cb00698 0ab006a8 0eb006b8 09b006c8     ................
1a014a94:	0db006d8 0bb006e8 07b006f0 0fb006f8     ................
1a014aa4:	08700708 0c700718 0a700728 0e700738     ..p...p.(.p.8.p.
1a014ab4:	09700748 0d700758 0b700768 0f700778     H.p.X.p.h.p.x.p.
1a014ac4:	08f00788 0cf00798 0af007a8 0ef007b8     ................
1a014ad4:	09f007c8 0df007d8 0bf007e8 0ff007f8     ................
1a014ae4:	0c080818 0a080828 0e080838 09080848     ....(...8...H...
1a014af4:	0d080858 0b080868 0f080878 0c880898     X...h...x.......
1a014b04:	0a8808a8 0e8808b8 098808c8 0d8808d8     ................
1a014b14:	0b8808e8 0f8808f8 0c480918 0a480928     ..........H.(.H.
1a014b24:	0e480938 0d480958 0b480968 0f480978     8.H.X.H.h.H.x.H.
1a014b34:	0cc80998 0ac809a8 0ec809b8 0dc809d8     ................
1a014b44:	0bc809e8 0fc809f8 0c280a18 0e280a38     ..........(.8.(.
1a014b54:	0d280a58 0b280a68 0f280a78 0ca80a98     X.(.h.(.x.(.....
1a014b64:	0ea80ab8 0da80ad8 0ba80ae8 0fa80af8     ................
1a014b74:	0c680b18 0e680b38 0d680b58 0f680b78     ..h.8.h.X.h.x.h.
1a014b84:	0ce80b98 0ee80bb8 0de80bd8 0fe80bf8     ................
1a014b94:	0e180c38 0d180c58 0f180c78 0e980cb8     8...X...x.......
1a014ba4:	0d980cd8 0f980cf8 0e580d38 0f580d78     ........8.X.x.X.
1a014bb4:	0ed80db8 0fd80df8 0f380e78 0fb80ef8     ........x.8.....

1a014bc4 <armBitRevIndexTable_fixed_16>:
1a014bc4:	00400008 00200010 00600018 00500028     ..@... ...`.(.P.
1a014bd4:	00700038 00680058                       8.p.X.h.

1a014bdc <twiddleCoef_128_q15>:
1a014bdc:	00007fff 06477fd8 0c8b7f62 12c87e9d     ......G.b....~..
1a014bec:	18f87d8a 1f197c29 25287a7d 2b1f7884     .}..)|..}z(%.x.+
1a014bfc:	30fb7641 36ba73b5 3c5670e2 41ce6dca     Av.0.s.6.pV<.m.A
1a014c0c:	471c6a6d 4c3f66cf 513362f2 55f55ed7     mj.G.f?L.b3Q.^.U
1a014c1c:	5a825a82 5ed755f5 62f25133 66cf4c3f     .Z.Z.U.^3Q.b?L.f
1a014c2c:	6a6d471c 6dca41ce 70e23c56 73b536ba     .Gmj.A.mV<.p.6.s
1a014c3c:	764130fb 78842b1f 7a7d2528 7c291f19     .0Av.+.x(%}z..)|
1a014c4c:	7d8a18f8 7e9d12c8 7f620c8b 7fd80647     ...}...~..b.G...
1a014c5c:	7fff0000 7fd8f9b8 7f62f374 7e9ded37     ........t.b.7..~
1a014c6c:	7d8ae707 7c29e0e6 7a7ddad7 7884d4e0     ...}..)|..}z...x
1a014c7c:	7641cf04 73b5c945 70e2c3a9 6dcabe31     ..AvE..s...p1..m
1a014c8c:	6a6db8e3 66cfb3c0 62f2aecc 5ed7aa0a     ..mj...f...b...^
1a014c9c:	5a82a57d 55f5a128 51339d0d 4c3f9930     }..Z(..U..3Q0.?L
1a014cac:	471c9592 41ce9235 3c568f1d 36ba8c4a     ...G5..A..V<J..6
1a014cbc:	30fb89be 2b1f877b 25288582 1f1983d6     ...0{..+..(%....
1a014ccc:	18f88275 12c88162 0c8b809d 06478027     u...b.......'.G.
1a014cdc:	00008000 f9b88027 f374809d ed378162     ....'.....t.b.7.
1a014cec:	e7078275 e0e683d6 dad78582 d4e0877b     u...........{...
1a014cfc:	cf0489be c9458c4a c3a98f1d be319235     ....J.E.....5.1.
1a014d0c:	b8e39592 b3c09930 aecc9d0d aa0aa128     ....0.......(...
1a014d1c:	a57da57d a128aa0a 9d0daecc 9930b3c0     }.}...(.......0.
1a014d2c:	9592b8e3 9235be31 8f1dc3a9 8c4ac945     ....1.5.....E.J.
1a014d3c:	89becf04 877bd4e0 8582dad7 83d6e0e6     ......{.........
1a014d4c:	8275e707 8162ed37 809df374 8027f9b8     ..u.7.b.t.....'.

1a014d5c <armBitRevIndexTable_fixed_32>:
1a014d5c:	00800008 00400010 00c00018 00a00028     ......@.....(...
1a014d6c:	00600030 00e00038 00900048 00d00058     0.`.8...H...X...
1a014d7c:	00b00068 00f00078 00c80098 00e800b8     h...x...........

1a014d8c <armBitRevIndexTable_fixed_256>:
1a014d8c:	04000008 02000010 06000018 01000020     ............ ...
1a014d9c:	05000028 03000030 07000038 00800040     (...0...8...@...
1a014dac:	04800048 02800050 06800058 01800060     H...P...X...`...
1a014dbc:	05800068 03800070 07800078 04400088     h...p...x.....@.
1a014dcc:	02400090 06400098 014000a0 054000a8     ..@...@...@...@.
1a014ddc:	034000b0 074000b8 04c000c8 02c000d0     ..@...@.........
1a014dec:	06c000d8 01c000e0 05c000e8 03c000f0     ................
1a014dfc:	07c000f8 04200108 02200110 06200118     ...... ... ... .
1a014e0c:	05200128 03200130 07200138 04a00148     (. .0. .8. .H...
1a014e1c:	02a00150 06a00158 01a00160 05a00168     P...X...`...h...
1a014e2c:	03a00170 07a00178 04600188 02600190     p...x.....`...`.
1a014e3c:	06600198 056001a8 036001b0 076001b8     ..`...`...`...`.
1a014e4c:	04e001c8 02e001d0 06e001d8 05e001e8     ................
1a014e5c:	03e001f0 07e001f8 04100208 06100218     ................
1a014e6c:	05100228 03100230 07100238 04900248     (...0...8...H...
1a014e7c:	02900250 06900258 05900268 03900270     P...X...h...p...
1a014e8c:	07900278 04500288 06500298 055002a8     x.....P...P...P.
1a014e9c:	035002b0 075002b8 04d002c8 06d002d8     ..P...P.........
1a014eac:	05d002e8 03d002f0 07d002f8 04300308     ..............0.
1a014ebc:	06300318 05300328 07300338 04b00348     ..0.(.0.8.0.H...
1a014ecc:	06b00358 05b00368 03b00370 07b00378     X...h...p...x...
1a014edc:	04700388 06700398 057003a8 077003b8     ..p...p...p...p.
1a014eec:	04f003c8 06f003d8 05f003e8 07f003f8     ................
1a014efc:	06080418 05080428 07080438 04880448     ....(...8...H...
1a014f0c:	06880458 05880468 07880478 06480498     X...h...x.....H.
1a014f1c:	054804a8 074804b8 06c804d8 05c804e8     ..H...H.........
1a014f2c:	07c804f8 06280518 07280538 06a80558     ......(.8.(.X...
1a014f3c:	05a80568 07a80578 06680598 076805b8     h...x.....h...h.
1a014f4c:	06e805d8 07e805f8 07180638 06980658     ........8...X...
1a014f5c:	07980678 075806b8 07d806f8 07b80778     x.....X.....x...

1a014f6c <armBitRevIndexTable_fixed_64>:
1a014f6c:	01000008 00800010 01800018 00400020     ............ .@.
1a014f7c:	01400028 00c00030 01c00038 01200048     (.@.0...8...H. .
1a014f8c:	00a00050 01a00058 01600068 00e00070     P...X...h.`.p...
1a014f9c:	01e00078 01100088 01900098 015000a8     x.............P.
1a014fac:	00d000b0 01d000b8 013000c8 01b000d8     ..........0.....
1a014fbc:	017000e8 01f000f8 01880118 01480128     ..p.........(.H.
1a014fcc:	01c80138 01a80158 01e80178 01d801b8     8...X...x.......
