
../clases/2_clase/ciaa//psf2/out/psf2.elf:     file format elf32-littlearm
../clases/2_clase/ciaa//psf2/out/psf2.elf
architecture: arm, flags 0x00000112:
EXEC_P, HAS_SYMS, D_PAGED
start address 0x1a000435

Program Header:
0x70000001 off    0x00012898 vaddr 0x1a002898 paddr 0x1a002898 align 2**2
         filesz 0x00000008 memsz 0x00000008 flags r--
    LOAD off    0x00010048 vaddr 0x10000048 paddr 0x10000048 align 2**16
         filesz 0x00000000 memsz 0x00000430 flags rw-
    LOAD off    0x00010000 vaddr 0x1a000000 paddr 0x1a000000 align 2**16
         filesz 0x000028a0 memsz 0x000028a0 flags rwx
    LOAD off    0x00020000 vaddr 0x10000000 paddr 0x1a0028a0 align 2**16
         filesz 0x00000048 memsz 0x00000048 flags rw-
private flags = 5000400: [Version5 EABI] [hard-float ABI]

Sections:
Idx Name          Size      VMA       LMA       File off  Algn
  0 .text         00002894  1a000000  1a000000  00010000  2**2
                  CONTENTS, ALLOC, LOAD, READONLY, CODE
  1 .data         00000048  10000000  1a0028a0  00020000  2**3
                  CONTENTS, ALLOC, LOAD, DATA
  2 .data_RAM2    00000000  10080000  10080000  00020048  2**2
                  CONTENTS
  3 .data_RAM3    00000000  20000000  20000000  00020048  2**2
                  CONTENTS
  4 .data_RAM4    00000000  20008000  20008000  00020048  2**2
                  CONTENTS
  5 .data_RAM5    00000000  2000c000  2000c000  00020048  2**2
                  CONTENTS
  6 .bss          00000430  10000048  10000048  00010048  2**3
                  ALLOC
  7 .bss_RAM2     00000000  10080000  10080000  00020048  2**2
                  CONTENTS
  8 .bss_RAM3     00000000  20000000  20000000  00020048  2**2
                  CONTENTS
  9 .bss_RAM4     00000000  20008000  20008000  00020048  2**2
                  CONTENTS
 10 .bss_RAM5     00000000  2000c000  2000c000  00020048  2**2
                  CONTENTS
 11 .init_array   00000004  1a002894  1a002894  00012894  2**2
                  CONTENTS, ALLOC, LOAD, DATA
 12 .ARM.exidx    00000008  1a002898  1a002898  00012898  2**2
                  CONTENTS, ALLOC, LOAD, READONLY, DATA
 13 .uninit_RESERVED 00000000  10000000  10000000  00020048  2**2
                  CONTENTS
 14 .noinit_RAM2  00000000  10080000  10080000  00020048  2**2
                  CONTENTS
 15 .noinit_RAM3  00000000  20000000  20000000  00020048  2**2
                  CONTENTS
 16 .noinit_RAM4  00000000  20008000  20008000  00020048  2**2
                  CONTENTS
 17 .noinit_RAM5  00000000  2000c000  2000c000  00020048  2**2
                  CONTENTS
 18 .noinit       00000000  10000478  10000478  00020048  2**2
                  CONTENTS
 19 .debug_info   0001c06b  00000000  00000000  00020048  2**0
                  CONTENTS, READONLY, DEBUGGING
 20 .debug_abbrev 00004035  00000000  00000000  0003c0b3  2**0
                  CONTENTS, READONLY, DEBUGGING
 21 .debug_aranges 000009c0  00000000  00000000  000400e8  2**0
                  CONTENTS, READONLY, DEBUGGING
 22 .debug_ranges 00000938  00000000  00000000  00040aa8  2**0
                  CONTENTS, READONLY, DEBUGGING
 23 .debug_macro  0000d38d  00000000  00000000  000413e0  2**0
                  CONTENTS, READONLY, DEBUGGING
 24 .debug_line   0000c058  00000000  00000000  0004e76d  2**0
                  CONTENTS, READONLY, DEBUGGING
 25 .debug_str    00028e18  00000000  00000000  0005a7c5  2**0
                  CONTENTS, READONLY, DEBUGGING
 26 .comment      00000143  00000000  00000000  000835dd  2**0
                  CONTENTS, READONLY
 27 .ARM.attributes 00000037  00000000  00000000  00083720  2**0
                  CONTENTS, READONLY
 28 .debug_frame  00001730  00000000  00000000  00083758  2**2
                  CONTENTS, READONLY, DEBUGGING
 29 .debug_loc    00006bcf  00000000  00000000  00084e88  2**0
                  CONTENTS, READONLY, DEBUGGING
SYMBOL TABLE:
1a000000 l    d  .text	00000000 .text
10000000 l    d  .data	00000000 .data
10080000 l    d  .data_RAM2	00000000 .data_RAM2
20000000 l    d  .data_RAM3	00000000 .data_RAM3
20008000 l    d  .data_RAM4	00000000 .data_RAM4
2000c000 l    d  .data_RAM5	00000000 .data_RAM5
10000048 l    d  .bss	00000000 .bss
10080000 l    d  .bss_RAM2	00000000 .bss_RAM2
20000000 l    d  .bss_RAM3	00000000 .bss_RAM3
20008000 l    d  .bss_RAM4	00000000 .bss_RAM4
2000c000 l    d  .bss_RAM5	00000000 .bss_RAM5
1a002894 l    d  .init_array	00000000 .init_array
1a002898 l    d  .ARM.exidx	00000000 .ARM.exidx
10000000 l    d  .uninit_RESERVED	00000000 .uninit_RESERVED
10080000 l    d  .noinit_RAM2	00000000 .noinit_RAM2
20000000 l    d  .noinit_RAM3	00000000 .noinit_RAM3
20008000 l    d  .noinit_RAM4	00000000 .noinit_RAM4
2000c000 l    d  .noinit_RAM5	00000000 .noinit_RAM5
10000478 l    d  .noinit	00000000 .noinit
00000000 l    d  .debug_info	00000000 .debug_info
00000000 l    d  .debug_abbrev	00000000 .debug_abbrev
00000000 l    d  .debug_aranges	00000000 .debug_aranges
00000000 l    d  .debug_ranges	00000000 .debug_ranges
00000000 l    d  .debug_macro	00000000 .debug_macro
00000000 l    d  .debug_line	00000000 .debug_line
00000000 l    d  .debug_str	00000000 .debug_str
00000000 l    d  .comment	00000000 .comment
00000000 l    d  .ARM.attributes	00000000 .ARM.attributes
00000000 l    d  .debug_frame	00000000 .debug_frame
00000000 l    d  .debug_loc	00000000 .debug_loc
00000000 l    df *ABS*	00000000 armv7m_startup.c
00000000 l    df *ABS*	00000000 vendor_interrupt.c
00000000 l    df *ABS*	00000000 crp.c
00000000 l    df *ABS*	00000000 psf.c
00000000 l    df *ABS*	00000000 board.c
1a0004c0 l     F .text	00000044 Board_LED_Init
1a000504 l     F .text	00000040 Board_TEC_Init
1a000544 l     F .text	00000040 Board_GPIO_Init
1a000584 l     F .text	00000030 Board_ADC_Init
1a0005b4 l     F .text	00000038 Board_SPI_Init
1a0005ec l     F .text	00000024 Board_I2C_Init
1a001de4 l     O .text	00000008 GpioButtons
1a001dec l     O .text	0000000c GpioLeds
1a001df8 l     O .text	00000012 GpioPorts
00000000 l    df *ABS*	00000000 board_sysinit.c
1a001e10 l     O .text	00000004 InitClkStates
1a001e14 l     O .text	00000074 pinmuxing
00000000 l    df *ABS*	00000000 dac_18xx_43xx.c
00000000 l    df *ABS*	00000000 uart_18xx_43xx.c
1a000750 l     F .text	0000002c Chip_UART_GetIndex
1a001e88 l     O .text	00000008 UART_BClock
1a001e90 l     O .text	00000008 UART_PClock
00000000 l    df *ABS*	00000000 adc_18xx_43xx.c
1a0008f8 l     F .text	00000014 Chip_ADC_GetClockIndex
1a00090c l     F .text	00000032 getClkDiv
00000000 l    df *ABS*	00000000 chip_18xx_43xx.c
00000000 l    df *ABS*	00000000 clock_18xx_43xx.c
1a000ad4 l     F .text	000000a4 pll_calc_divs
1a000b78 l     F .text	0000010c pll_get_frac
1a000c84 l     F .text	0000004c Chip_Clock_FindBaseClock
1a000ef8 l     F .text	00000022 Chip_Clock_GetDivRate
10000054 l     O .bss	00000008 audio_usb_pll_freq
1a001ea4 l     O .text	0000006c periph_to_base
00000000 l    df *ABS*	00000000 sysinit_18xx_43xx.c
1a001f10 l     O .text	00000048 InitClkStates
00000000 l    df *ABS*	00000000 gpio_18xx_43xx.c
00000000 l    df *ABS*	00000000 ssp_18xx_43xx.c
1a0011f0 l     F .text	00000014 Chip_SSP_GetClockIndex
1a001204 l     F .text	00000018 Chip_SSP_GetPeriphClockIndex
00000000 l    df *ABS*	00000000 i2c_18xx_43xx.c
10000004 l     O .data	00000038 i2c
00000000 l    df *ABS*	00000000 sysinit.c
00000000 l    df *ABS*	00000000 sapi_cyclesCounter.c
1000003c l     O .data	00000004 ClockSpeed
00000000 l    df *ABS*	00000000 sapi_dac.c
00000000 l    df *ABS*	00000000 sapi_uart.c
1a001f58 l     O .text	00000048 lpcUarts
00000000 l    df *ABS*	00000000 sapi_tick.c
1000005c l     O .bss	00000004 callBackFuncParams
10000060 l     O .bss	00000008 tickCounter
10000068 l     O .bss	00000004 tickHookFunction
00000000 l    df *ABS*	00000000 sapi_adc.c
00000000 l    df *ABS*	00000000 sapi_gpio.c
1a00168c l     F .text	00000034 gpioObtainPinInit
00000000 l    df *ABS*	00000000 sapi_usb_device.c
1000006c l     O .bss	00000004 g_hUsb
00000000 l    df *ABS*	00000000 sapi_board.c
00000000 l    df *ABS*	00000000 arm_sin_f32.c
00000000 l    df *ABS*	00000000 _aeabi_uldivmod.o
00000000 l    df *ABS*	00000000 libgcc2.c
00000000 l    df *ABS*	00000000 _dvmd_tls.o
00000000 l    df *ABS*	00000000 init.c
00000000 l    df *ABS*	00000000 memset.c
00000000 l    df *ABS*	00000000 arm_common_tables.c
00000000 l    df *ABS*	00000000 system.c
00000000 l    df *ABS*	00000000 
1a002898 l       .init_array	00000000 __init_array_end
1a002894 l       .bss_RAM5	00000000 __preinit_array_end
1a002894 l       .init_array	00000000 __init_array_start
1a002894 l       .bss_RAM5	00000000 __preinit_array_start
1a000d1c g     F .text	0000001c Chip_Clock_GetDividerSource
1a0001ba  w    F .text	00000002 TIMER2_IRQHandler
1000004c g     O .bss	00000004 t
1a001496 g     F .text	0000001c uartWriteByteArray
1a000184  w    F .text	00000002 DebugMon_Handler
1a0001ba  w    F .text	00000002 RIT_IRQHandler
1a0009a4 g     F .text	00000016 Chip_ADC_DeInit
1a080000 g       *ABS*	00000000 __top_MFlashA512
1a0001ba  w    F .text	00000002 ADCHS_IRQHandler
1a000114 g       .text	00000000 __section_table_start
1a0001ba  w    F .text	00000002 FLASH_EEPROM_IRQHandler
1a0001ba  w    F .text	00000002 I2C0_IRQHandler
1a000664 g     F .text	00000008 __stdio_init
1a00017a  w    F .text	00000002 HardFault_Handler
1a000000 g       *ABS*	00000000 __vectors_start__
1a000a6a g     F .text	0000000c Chip_ADC_SetResolution
1a001548 g     F .text	00000034 SysTick_Handler
1a0007d0 g     F .text	00000040 Chip_UART_SetBaud
1a000430  w    F .text	00000002 initialise_monitor_handles
1a0001ba  w    F .text	00000002 SDIO_IRQHandler
1a0001ba  w    F .text	00000002 ATIMER_IRQHandler
1a000186  w    F .text	00000002 PendSV_Handler
1a000178  w    F .text	00000002 NMI_Handler
1a0028a0 g       .ARM.exidx	00000000 __exidx_end
1a000150 g       .text	00000000 __data_section_table_end
1a0001ba  w    F .text	00000002 I2C1_IRQHandler
1a0001ba  w    F .text	00000002 UART1_IRQHandler
1a0001ba  w    F .text	00000002 GPIO5_IRQHandler
1a0001ba  w    F .text	00000002 CAN1_IRQHandler
53ff745a g       *ABS*	00000000 __valid_user_code_checksum
1a0028a0 g       .ARM.exidx	00000000 _etext
1a0001ba  w    F .text	00000002 USB1_IRQHandler
1a0001ba  w    F .text	00000002 I2S0_IRQHandler
1a0001ba  w    F .text	00000002 TIMER3_IRQHandler
1a000f9a g     F .text	0000000c Chip_Clock_GetBaseClocktHz
1a0001ba  w    F .text	00000002 UART0_IRQHandler
1a0001a8 g     F .text	00000012 bss_init
1a0001ba  w    F .text	00000002 SGPIO_IRQHandler
1a001a80 g     F .text	00000000 .hidden __aeabi_uldivmod
10000478 g       .noinit	00000000 _noinit
10000470 g     O .bss	00000004 SystemCoreClock
1a00077c g     F .text	00000054 Chip_UART_Init
1a000726 g     F .text	00000010 Chip_DAC_UpdateValue
1a0001ba  w    F .text	00000002 ADC0_IRQHandler
1a00094c g     F .text	00000018 readAdcVal
1a000180  w    F .text	00000002 UsageFault_Handler
1a00104c g     F .text	0000004c Chip_Clock_GetRate
1a0001ba  w    F .text	00000002 GPIO6_IRQHandler
1a0006a4 g     F .text	0000006c Board_SetupClocking
20008000 g       *ABS*	00000000 __top_RamAHB32
1a001ab0 g     F .text	000002cc .hidden __udivmoddi4
1a001de0 g     O .text	00000004 ExtRateIn
1a0001ba  w    F .text	00000002 IntDefaultHandler
1a000300 g       .text	00000000 __CRP_WORD_END__
1a0001ba  w    F .text	00000002 GPIO1_IRQHandler
1a0001ba  w    F .text	00000002 SSP0_IRQHandler
1a002898 g       .ARM.exidx	00000000 __exidx_start
1a0002fc g     O .text	00000004 CRP_WORD
1a00093e g     F .text	0000000e setStartMode
1a001d80 g     F .text	00000048 __libc_init_array
1a00157c g     F .text	000000b8 adcInit
1a0001ba  w    F .text	00000002 ADC1_IRQHandler
1a000634 g     F .text	00000030 Board_Init
1a0004be  w    F .text	00000002 _init
1a000114 g       .text	00000000 __data_section_table
1a0001ba  w    F .text	00000002 RTC_IRQHandler
10000478 g       .bss	00000000 _ebss
1a000a76 g     F .text	00000028 Chip_ADC_EnableChannel
1a0001ba  w    F .text	00000002 TIMER0_IRQHandler
1a000434 g     F .text	00000088 Reset_Handler
1a0014cc g     F .text	0000007c tickInit
20010000 g       *ABS*	00000000 __top_RamAHB_ETB16
1a0001ba  w    F .text	00000002 SPI_IRQHandler
10000000 g     O .data	00000002 B
1a0012e8 g     F .text	00000038 Chip_I2C_SetClockRate
1a0001ba  w    F .text	00000002 LCD_IRQHandler
1a000cd0 g     F .text	0000004c Chip_Clock_EnableCrystal
1a0009ba g     F .text	00000008 Chip_ADC_ReadValue
10008000 g       *ABS*	00000000 __top_RamLoc32
1a00018a g     F .text	0000001e data_init
1a000a18 g     F .text	00000020 Chip_ADC_SetStartMode
1a0001ba  w    F .text	00000002 TIMER1_IRQHandler
1a0012c4 g     F .text	00000024 Chip_I2C_Init
1a0001ba  w    F .text	00000002 UART2_IRQHandler
1a000e8c g     F .text	0000006c Chip_Clock_GetMainPLLHz
1a001fa8 g     O .text	000000e6 gpioPinsInit
1a00147c g     F .text	0000001a uartWriteByte
1a00121c g     F .text	00000012 Chip_SSP_SetClockRate
1a00193e g     F .text	00000016 gpioToggle
1a0001ba  w    F .text	00000002 GPIO2_IRQHandler
1a001634 g     F .text	00000058 adcRead
1a000f74 g     F .text	00000026 Chip_Clock_GetBaseClock
10000048 g       .bss	00000000 _bss
1a0009c2 g     F .text	00000036 Chip_ADC_ReadStatus
1a000a38 g     F .text	00000032 Chip_ADC_SetSampleRate
1a002090 g     O .text	00000804 sinTable_f32
1a0001ba  w    F .text	00000002 I2S1_IRQHandler
1a00122e g     F .text	0000003e Chip_SSP_SetBitRate
1a0011ec g     F .text	00000002 Chip_GPIO_Init
1a001e0c g     O .text	00000004 OscRateIn
1a001400 g     F .text	0000007c uartInit
10000478 g       .noinit	00000000 _end_noinit
10008000 g       *ABS*	00000000 _vStackTop
10000070 g     O .bss	00000400 adc
1a0001ba  w    F .text	00000002 SSP1_IRQHandler
1a000178 g       .text	00000000 __bss_section_table_end
1a0016c0 g     F .text	000001ac gpioInit
1a001d7c  w    F .text	00000002 .hidden __aeabi_ldiv0
10000050 g     O .bss	00000004 tick
1a001954 g     F .text	0000001c USB0_IRQHandler
1a001018 g     F .text	00000034 Chip_Clock_Disable
1a0001ba  w    F .text	00000002 GPIO3_IRQHandler
1a0001ba  w    F .text	00000002 SCT_IRQHandler
1a000d38 g     F .text	0000001c Chip_Clock_GetDividerDivisor
1a0002fc g       .text	00000000 __CRP_WORD_START__
1a001dc8 g     F .text	00000010 memset
1a00017c  w    F .text	00000002 MemManage_Handler
1a000300 g     F .text	00000130 main
1a0001ba  w    F .text	00000002 WDT_IRQHandler
2000c000 g       *ABS*	00000000 __top_RamAHB16
1008a000 g       *ABS*	00000000 __top_RamLoc40
1a000182  w    F .text	00000002 SVC_Handler
1a0013d4 g     F .text	00000018 uartTxReady
1a0001ba  w    F .text	00000002 GPIO7_IRQHandler
1a000fa8 g     F .text	0000003c Chip_Clock_EnableOpts
1a00071c g     F .text	0000000a Chip_DAC_DeInit
1a000d54 g     F .text	000000b8 Chip_Clock_GetClockInputHz
1a000e0c g     F .text	00000080 Chip_Clock_CalcMainPLLValue
1a001320 g     F .text	00000038 SystemInit
1a0001ba  w    F .text	00000002 SPIFI_IRQHandler
1a0001ba  w    F .text	00000002 QEI_IRQHandler
1a000150 g       .text	00000000 __bss_section_table
1a00186c g     F .text	0000006a gpioWrite
1a0004bc  w    F .text	00000002 _fini
1a000964 g     F .text	00000040 Chip_ADC_Init
10000474 g     O .bss	00000004 g_pUsbApi
1a00066c g     F .text	00000038 Board_SetupMuxing
1a000810 g     F .text	000000e8 Chip_UART_SetBaudFDR
10000040 g     O .data	00000008 tickRateMS
1a000a9e g     F .text	00000022 Chip_ADC_SetBurstCmd
1a0001ba  w    F .text	00000002 ETH_IRQHandler
10000000 g       .uninit_RESERVED	00000000 _end_uninit_RESERVED
1a001374 g     F .text	00000044 dacInit
1a0013ec g     F .text	00000014 uartTxWrite
1a0001ba  w    F .text	00000002 CAN0_IRQHandler
10000000 g       .data	00000000 _data
10000478 g       .bss	00000000 _pvHeapStart
1a000178 g       .text	00000000 __section_table_end
1a00126c g     F .text	00000038 Chip_SSP_Init
1a0001ba  w    F .text	00000002 GINT0_IRQHandler
1a000736 g     F .text	00000018 Chip_DAC_SetBias
1a0001ba  w    F .text	00000002 DAC_IRQHandler
1a000610 g     F .text	00000024 Board_Debug_Init
1a0009f8 g     F .text	00000020 Chip_ADC_Int_SetChannelCmd
10000048 g       .data	00000000 _edata
1a0013b8 g     F .text	0000001c dacWrite
1a0012a4 g     F .text	00000020 Chip_I2C_EventHandler
1a0001ba  w    F .text	00000002 M0SUB_IRQHandler
10000002 g     O .data	00000002 sweept
1a001098 g     F .text	00000154 Chip_SetupCoreClock
1a0001ba  w    F .text	00000002 GPIO0_IRQHandler
1a000000 g     O .text	00000040 g_pfnVectors
1a000ac0 g     F .text	00000014 SystemCoreClockUpdate
1a0001ba  w    F .text	00000002 DMA_IRQHandler
1a0001ba  w    F .text	00000002 EVRT_IRQHandler
1b080000 g       *ABS*	00000000 __top_MFlashB512
1a001d7c  w    F .text	00000002 .hidden __aeabi_idiv0
1a00017e  w    F .text	00000002 BusFault_Handler
1a000fe4 g     F .text	00000034 Chip_Clock_Enable
1a0001ba  w    F .text	00000002 UART3_IRQHandler
1a0001ba  w    F .text	00000002 MCPWM_IRQHandler
1a0001ba  w    F .text	00000002 M0APP_IRQHandler
1a0018d6 g     F .text	00000068 gpioRead
1a001970 g     F .text	00000074 boardInit
10000048 g     O .bss	00000002 sample
1a000040 g     O .text	000000d4 g_pfnVendorVectors
1a0001ba  w    F .text	00000002 GINT1_IRQHandler
1a0014b4 g     F .text	00000018 tickPowerSet
1a0019e4 g     F .text	0000009c arm_sin_f32
1a000f1c g     F .text	00000058 Chip_Clock_SetBaseClock
1a001358 g     F .text	0000001c cyclesCounterInit
1a0001ba  w    F .text	00000002 GPIO4_IRQHandler
1a000710 g     F .text	0000000c Board_SystemInit



Disassembly of section .text:

1a000000 <g_pfnVectors>:
1a000000:	00 80 00 10 35 04 00 1a 79 01 00 1a 7b 01 00 1a     ....5...y...{...
1a000010:	7d 01 00 1a 7f 01 00 1a 81 01 00 1a 5a 74 ff 53     }...........Zt.S
	...
1a00002c:	83 01 00 1a 85 01 00 1a 00 00 00 00 87 01 00 1a     ................
1a00003c:	49 15 00 1a                                         I...

1a000040 <g_pfnVendorVectors>:
1a000040:	bb 01 00 1a bb 01 00 1a bb 01 00 1a 00 00 00 00     ................
1a000050:	bb 01 00 1a bb 01 00 1a bb 01 00 1a bb 01 00 1a     ................
1a000060:	55 19 00 1a bb 01 00 1a bb 01 00 1a bb 01 00 1a     U...............
1a000070:	bb 01 00 1a bb 01 00 1a bb 01 00 1a bb 01 00 1a     ................
1a000080:	bb 01 00 1a bb 01 00 1a bb 01 00 1a bb 01 00 1a     ................
1a000090:	bb 01 00 1a bb 01 00 1a bb 01 00 1a bb 01 00 1a     ................
1a0000a0:	bb 01 00 1a bb 01 00 1a bb 01 00 1a bb 01 00 1a     ................
1a0000b0:	bb 01 00 1a bb 01 00 1a bb 01 00 1a bb 01 00 1a     ................
1a0000c0:	bb 01 00 1a bb 01 00 1a bb 01 00 1a bb 01 00 1a     ................
1a0000d0:	bb 01 00 1a bb 01 00 1a bb 01 00 1a bb 01 00 1a     ................
1a0000e0:	bb 01 00 1a bb 01 00 1a bb 01 00 1a bb 01 00 1a     ................
1a0000f0:	00 00 00 00 bb 01 00 1a bb 01 00 1a bb 01 00 1a     ................
1a000100:	00 00 00 00 bb 01 00 1a bb 01 00 1a bb 01 00 1a     ................
1a000110:	bb 01 00 1a                                         ....

1a000114 <__data_section_table>:
1a000114:	1a0028a0 	.word	0x1a0028a0
1a000118:	10000000 	.word	0x10000000
1a00011c:	00000048 	.word	0x00000048
1a000120:	1a0028a0 	.word	0x1a0028a0
1a000124:	10080000 	.word	0x10080000
1a000128:	00000000 	.word	0x00000000
1a00012c:	1a0028a0 	.word	0x1a0028a0
1a000130:	20000000 	.word	0x20000000
1a000134:	00000000 	.word	0x00000000
1a000138:	1a0028a0 	.word	0x1a0028a0
1a00013c:	20008000 	.word	0x20008000
1a000140:	00000000 	.word	0x00000000
1a000144:	1a0028a0 	.word	0x1a0028a0
1a000148:	2000c000 	.word	0x2000c000
1a00014c:	00000000 	.word	0x00000000

1a000150 <__bss_section_table>:
1a000150:	10000048 	.word	0x10000048
1a000154:	00000430 	.word	0x00000430
1a000158:	10080000 	.word	0x10080000
1a00015c:	00000000 	.word	0x00000000
1a000160:	20000000 	.word	0x20000000
1a000164:	00000000 	.word	0x00000000
1a000168:	20008000 	.word	0x20008000
1a00016c:	00000000 	.word	0x00000000
1a000170:	2000c000 	.word	0x2000c000
1a000174:	00000000 	.word	0x00000000

1a000178 <NMI_Handler>:
1a000178:	e7fe      	b.n	1a000178 <NMI_Handler>

1a00017a <HardFault_Handler>:
1a00017a:	e7fe      	b.n	1a00017a <HardFault_Handler>

1a00017c <MemManage_Handler>:
1a00017c:	e7fe      	b.n	1a00017c <MemManage_Handler>

1a00017e <BusFault_Handler>:
1a00017e:	e7fe      	b.n	1a00017e <BusFault_Handler>

1a000180 <UsageFault_Handler>:
1a000180:	e7fe      	b.n	1a000180 <UsageFault_Handler>

1a000182 <SVC_Handler>:
1a000182:	e7fe      	b.n	1a000182 <SVC_Handler>

1a000184 <DebugMon_Handler>:
1a000184:	e7fe      	b.n	1a000184 <DebugMon_Handler>

1a000186 <PendSV_Handler>:
1a000186:	e7fe      	b.n	1a000186 <PendSV_Handler>
1a000188:	e7fe      	b.n	1a000188 <PendSV_Handler+0x2>

1a00018a <data_init>:
1a00018a:	2300      	movs	r3, #0
1a00018c:	4293      	cmp	r3, r2
1a00018e:	d20a      	bcs.n	1a0001a6 <data_init+0x1c>
1a000190:	b410      	push	{r4}
1a000192:	6804      	ldr	r4, [r0, #0]
1a000194:	600c      	str	r4, [r1, #0]
1a000196:	3304      	adds	r3, #4
1a000198:	3004      	adds	r0, #4
1a00019a:	3104      	adds	r1, #4
1a00019c:	4293      	cmp	r3, r2
1a00019e:	d3f8      	bcc.n	1a000192 <data_init+0x8>
1a0001a0:	f85d 4b04 	ldr.w	r4, [sp], #4
1a0001a4:	4770      	bx	lr
1a0001a6:	4770      	bx	lr

1a0001a8 <bss_init>:
1a0001a8:	2300      	movs	r3, #0
1a0001aa:	e003      	b.n	1a0001b4 <bss_init+0xc>
1a0001ac:	2200      	movs	r2, #0
1a0001ae:	6002      	str	r2, [r0, #0]
1a0001b0:	3304      	adds	r3, #4
1a0001b2:	3004      	adds	r0, #4
1a0001b4:	428b      	cmp	r3, r1
1a0001b6:	d3f9      	bcc.n	1a0001ac <bss_init+0x4>
1a0001b8:	4770      	bx	lr

1a0001ba <ADC0_IRQHandler>:
1a0001ba:	e7fe      	b.n	1a0001ba <ADC0_IRQHandler>
1a0001bc:	ffff ffff 			; <UNDEFINED> instruction: 0xffffffff
1a0001c0:	ffff ffff 			; <UNDEFINED> instruction: 0xffffffff
1a0001c4:	ffff ffff 			; <UNDEFINED> instruction: 0xffffffff
1a0001c8:	ffff ffff 			; <UNDEFINED> instruction: 0xffffffff
1a0001cc:	ffff ffff 			; <UNDEFINED> instruction: 0xffffffff
1a0001d0:	ffff ffff 			; <UNDEFINED> instruction: 0xffffffff
1a0001d4:	ffff ffff 			; <UNDEFINED> instruction: 0xffffffff
1a0001d8:	ffff ffff 			; <UNDEFINED> instruction: 0xffffffff
1a0001dc:	ffff ffff 			; <UNDEFINED> instruction: 0xffffffff
1a0001e0:	ffff ffff 			; <UNDEFINED> instruction: 0xffffffff
1a0001e4:	ffff ffff 			; <UNDEFINED> instruction: 0xffffffff
1a0001e8:	ffff ffff 			; <UNDEFINED> instruction: 0xffffffff
1a0001ec:	ffff ffff 			; <UNDEFINED> instruction: 0xffffffff
1a0001f0:	ffff ffff 			; <UNDEFINED> instruction: 0xffffffff
1a0001f4:	ffff ffff 			; <UNDEFINED> instruction: 0xffffffff
1a0001f8:	ffff ffff 			; <UNDEFINED> instruction: 0xffffffff
1a0001fc:	ffff ffff 			; <UNDEFINED> instruction: 0xffffffff
1a000200:	ffff ffff 			; <UNDEFINED> instruction: 0xffffffff
1a000204:	ffff ffff 			; <UNDEFINED> instruction: 0xffffffff
1a000208:	ffff ffff 			; <UNDEFINED> instruction: 0xffffffff
1a00020c:	ffff ffff 			; <UNDEFINED> instruction: 0xffffffff
1a000210:	ffff ffff 			; <UNDEFINED> instruction: 0xffffffff
1a000214:	ffff ffff 			; <UNDEFINED> instruction: 0xffffffff
1a000218:	ffff ffff 			; <UNDEFINED> instruction: 0xffffffff
1a00021c:	ffff ffff 			; <UNDEFINED> instruction: 0xffffffff
1a000220:	ffff ffff 			; <UNDEFINED> instruction: 0xffffffff
1a000224:	ffff ffff 			; <UNDEFINED> instruction: 0xffffffff
1a000228:	ffff ffff 			; <UNDEFINED> instruction: 0xffffffff
1a00022c:	ffff ffff 			; <UNDEFINED> instruction: 0xffffffff
1a000230:	ffff ffff 			; <UNDEFINED> instruction: 0xffffffff
1a000234:	ffff ffff 			; <UNDEFINED> instruction: 0xffffffff
1a000238:	ffff ffff 			; <UNDEFINED> instruction: 0xffffffff
1a00023c:	ffff ffff 			; <UNDEFINED> instruction: 0xffffffff
1a000240:	ffff ffff 			; <UNDEFINED> instruction: 0xffffffff
1a000244:	ffff ffff 			; <UNDEFINED> instruction: 0xffffffff
1a000248:	ffff ffff 			; <UNDEFINED> instruction: 0xffffffff
1a00024c:	ffff ffff 			; <UNDEFINED> instruction: 0xffffffff
1a000250:	ffff ffff 			; <UNDEFINED> instruction: 0xffffffff
1a000254:	ffff ffff 			; <UNDEFINED> instruction: 0xffffffff
1a000258:	ffff ffff 			; <UNDEFINED> instruction: 0xffffffff
1a00025c:	ffff ffff 			; <UNDEFINED> instruction: 0xffffffff
1a000260:	ffff ffff 			; <UNDEFINED> instruction: 0xffffffff
1a000264:	ffff ffff 			; <UNDEFINED> instruction: 0xffffffff
1a000268:	ffff ffff 			; <UNDEFINED> instruction: 0xffffffff
1a00026c:	ffff ffff 			; <UNDEFINED> instruction: 0xffffffff
1a000270:	ffff ffff 			; <UNDEFINED> instruction: 0xffffffff
1a000274:	ffff ffff 			; <UNDEFINED> instruction: 0xffffffff
1a000278:	ffff ffff 			; <UNDEFINED> instruction: 0xffffffff
1a00027c:	ffff ffff 			; <UNDEFINED> instruction: 0xffffffff
1a000280:	ffff ffff 			; <UNDEFINED> instruction: 0xffffffff
1a000284:	ffff ffff 			; <UNDEFINED> instruction: 0xffffffff
1a000288:	ffff ffff 			; <UNDEFINED> instruction: 0xffffffff
1a00028c:	ffff ffff 			; <UNDEFINED> instruction: 0xffffffff
1a000290:	ffff ffff 			; <UNDEFINED> instruction: 0xffffffff
1a000294:	ffff ffff 			; <UNDEFINED> instruction: 0xffffffff
1a000298:	ffff ffff 			; <UNDEFINED> instruction: 0xffffffff
1a00029c:	ffff ffff 			; <UNDEFINED> instruction: 0xffffffff
1a0002a0:	ffff ffff 			; <UNDEFINED> instruction: 0xffffffff
1a0002a4:	ffff ffff 			; <UNDEFINED> instruction: 0xffffffff
1a0002a8:	ffff ffff 			; <UNDEFINED> instruction: 0xffffffff
1a0002ac:	ffff ffff 			; <UNDEFINED> instruction: 0xffffffff
1a0002b0:	ffff ffff 			; <UNDEFINED> instruction: 0xffffffff
1a0002b4:	ffff ffff 			; <UNDEFINED> instruction: 0xffffffff
1a0002b8:	ffff ffff 			; <UNDEFINED> instruction: 0xffffffff
1a0002bc:	ffff ffff 			; <UNDEFINED> instruction: 0xffffffff
1a0002c0:	ffff ffff 			; <UNDEFINED> instruction: 0xffffffff
1a0002c4:	ffff ffff 			; <UNDEFINED> instruction: 0xffffffff
1a0002c8:	ffff ffff 			; <UNDEFINED> instruction: 0xffffffff
1a0002cc:	ffff ffff 			; <UNDEFINED> instruction: 0xffffffff
1a0002d0:	ffff ffff 			; <UNDEFINED> instruction: 0xffffffff
1a0002d4:	ffff ffff 			; <UNDEFINED> instruction: 0xffffffff
1a0002d8:	ffff ffff 			; <UNDEFINED> instruction: 0xffffffff
1a0002dc:	ffff ffff 			; <UNDEFINED> instruction: 0xffffffff
1a0002e0:	ffff ffff 			; <UNDEFINED> instruction: 0xffffffff
1a0002e4:	ffff ffff 			; <UNDEFINED> instruction: 0xffffffff
1a0002e8:	ffff ffff 			; <UNDEFINED> instruction: 0xffffffff
1a0002ec:	ffff ffff 			; <UNDEFINED> instruction: 0xffffffff
1a0002f0:	ffff ffff 			; <UNDEFINED> instruction: 0xffffffff
1a0002f4:	ffff ffff 			; <UNDEFINED> instruction: 0xffffffff
1a0002f8:	ffff ffff 			; <UNDEFINED> instruction: 0xffffffff

1a0002fc <CRP_WORD>:
1a0002fc:	ffff ffff                                   ....

1a000300 <main>:
uint16_t f      = 100 ;
uint16_t B      = 100;
uint16_t sweept = 5;
float t         = 0;

int main ( void ) {
1a000300:	b508      	push	{r3, lr}
   boardConfig       (                          );
1a000302:	f001 fb35 	bl	1a001970 <boardInit>
   uartConfig        ( UART_USB ,460800         );
1a000306:	f44f 21e1 	mov.w	r1, #460800	; 0x70800
1a00030a:	2003      	movs	r0, #3
1a00030c:	f001 f878 	bl	1a001400 <uartInit>
   adcConfig         ( ADC_ENABLE               );
1a000310:	2000      	movs	r0, #0
1a000312:	f001 f933 	bl	1a00157c <adcInit>
   dacConfig         ( DAC_ENABLE               );
1a000316:	2000      	movs	r0, #0
1a000318:	f001 f82c 	bl	1a001374 <dacInit>
   cyclesCounterInit ( EDU_CIAA_NXP_CLOCK_SPEED );
1a00031c:	4838      	ldr	r0, [pc, #224]	; (1a000400 <main+0x100>)
1a00031e:	f001 f81b 	bl	1a001358 <cyclesCounterInit>
1a000322:	e009      	b.n	1a000338 <main+0x38>
      if ( ++sample==LENGTH ) {
         sample = 0;
         uartWriteByteArray ( UART_USB ,"header" ,6 );
         gpioToggle         ( LEDG                  );
      }
      tick++;
1a000324:	4a37      	ldr	r2, [pc, #220]	; (1a000404 <main+0x104>)
1a000326:	6813      	ldr	r3, [r2, #0]
1a000328:	3301      	adds	r3, #1
1a00032a:	6013      	str	r3, [r2, #0]
      while(cyclesCounterRead()< EDU_CIAA_NXP_CLOCK_SPEED/FS)  //clk 204000000
1a00032c:	4b36      	ldr	r3, [pc, #216]	; (1a000408 <main+0x108>)
1a00032e:	681a      	ldr	r2, [r3, #0]
1a000330:	f644 73af 	movw	r3, #20399	; 0x4faf
1a000334:	429a      	cmp	r2, r3
1a000336:	d9f9      	bls.n	1a00032c <main+0x2c>
      cyclesCounterReset();
1a000338:	2500      	movs	r5, #0
1a00033a:	4b33      	ldr	r3, [pc, #204]	; (1a000408 <main+0x108>)
1a00033c:	601d      	str	r5, [r3, #0]
      uartWriteByteArray ( UART_USB ,(uint8_t* )&adc[sample] ,sizeof(adc[0]) );
1a00033e:	4c33      	ldr	r4, [pc, #204]	; (1a00040c <main+0x10c>)
1a000340:	8821      	ldrh	r1, [r4, #0]
1a000342:	4e33      	ldr	r6, [pc, #204]	; (1a000410 <main+0x110>)
1a000344:	2202      	movs	r2, #2
1a000346:	eb06 0141 	add.w	r1, r6, r1, lsl #1
1a00034a:	2003      	movs	r0, #3
1a00034c:	f001 f8a3 	bl	1a001496 <uartWriteByteArray>
      adc[sample] = adcRead(CH1)-512;
1a000350:	4628      	mov	r0, r5
1a000352:	f001 f96f 	bl	1a001634 <adcRead>
1a000356:	8823      	ldrh	r3, [r4, #0]
1a000358:	f5a0 7000 	sub.w	r0, r0, #512	; 0x200
1a00035c:	f826 0013 	strh.w	r0, [r6, r3, lsl #1]
      t=((tick%(sweept*FS))/(float)FS);
1a000360:	4b2c      	ldr	r3, [pc, #176]	; (1a000414 <main+0x114>)
1a000362:	881a      	ldrh	r2, [r3, #0]
1a000364:	f242 7310 	movw	r3, #10000	; 0x2710
1a000368:	fb03 f102 	mul.w	r1, r3, r2
1a00036c:	4b25      	ldr	r3, [pc, #148]	; (1a000404 <main+0x104>)
1a00036e:	6818      	ldr	r0, [r3, #0]
1a000370:	fbb0 f3f1 	udiv	r3, r0, r1
1a000374:	fb01 0313 	mls	r3, r1, r3, r0
1a000378:	ee07 3a90 	vmov	s15, r3
1a00037c:	eef8 7a67 	vcvt.f32.u32	s15, s15
1a000380:	eddf 6a25 	vldr	s13, [pc, #148]	; 1a000418 <main+0x118>
1a000384:	ee87 7aa6 	vdiv.f32	s14, s15, s13
1a000388:	4b24      	ldr	r3, [pc, #144]	; (1a00041c <main+0x11c>)
1a00038a:	ed83 7a00 	vstr	s14, [r3]
      dacWrite( DAC, 512*arm_sin_f32 (t*B*(t/sweept)*2*PI)+512); //sweept
1a00038e:	4b24      	ldr	r3, [pc, #144]	; (1a000420 <main+0x120>)
1a000390:	881b      	ldrh	r3, [r3, #0]
1a000392:	ee00 3a10 	vmov	s0, r3
1a000396:	eeb8 0ac0 	vcvt.f32.s32	s0, s0
1a00039a:	ee20 0a07 	vmul.f32	s0, s0, s14
1a00039e:	ee07 2a90 	vmov	s15, r2
1a0003a2:	eef8 7ae7 	vcvt.f32.s32	s15, s15
1a0003a6:	eec7 6a27 	vdiv.f32	s13, s14, s15
1a0003aa:	ee20 0a26 	vmul.f32	s0, s0, s13
1a0003ae:	ee30 0a00 	vadd.f32	s0, s0, s0
1a0003b2:	eddf 7a1c 	vldr	s15, [pc, #112]	; 1a000424 <main+0x124>
1a0003b6:	ee20 0a27 	vmul.f32	s0, s0, s15
1a0003ba:	f001 fb13 	bl	1a0019e4 <arm_sin_f32>
1a0003be:	eddf 7a1a 	vldr	s15, [pc, #104]	; 1a000428 <main+0x128>
1a0003c2:	ee20 0a27 	vmul.f32	s0, s0, s15
1a0003c6:	ee30 0a27 	vadd.f32	s0, s0, s15
1a0003ca:	eebc 0ac0 	vcvt.u32.f32	s0, s0
1a0003ce:	ee10 3a10 	vmov	r3, s0
1a0003d2:	b299      	uxth	r1, r3
1a0003d4:	4628      	mov	r0, r5
1a0003d6:	f000 ffef 	bl	1a0013b8 <dacWrite>
      if ( ++sample==LENGTH ) {
1a0003da:	8823      	ldrh	r3, [r4, #0]
1a0003dc:	3301      	adds	r3, #1
1a0003de:	b29b      	uxth	r3, r3
1a0003e0:	8023      	strh	r3, [r4, #0]
1a0003e2:	f5b3 7f00 	cmp.w	r3, #512	; 0x200
1a0003e6:	d19d      	bne.n	1a000324 <main+0x24>
         sample = 0;
1a0003e8:	4623      	mov	r3, r4
1a0003ea:	801d      	strh	r5, [r3, #0]
         uartWriteByteArray ( UART_USB ,"header" ,6 );
1a0003ec:	2206      	movs	r2, #6
1a0003ee:	490f      	ldr	r1, [pc, #60]	; (1a00042c <main+0x12c>)
1a0003f0:	2003      	movs	r0, #3
1a0003f2:	f001 f850 	bl	1a001496 <uartWriteByteArray>
         gpioToggle         ( LEDG                  );
1a0003f6:	2029      	movs	r0, #41	; 0x29
1a0003f8:	f001 faa1 	bl	1a00193e <gpioToggle>
1a0003fc:	e792      	b.n	1a000324 <main+0x24>
1a0003fe:	bf00      	nop
1a000400:	0c28cb00 	.word	0x0c28cb00
1a000404:	10000050 	.word	0x10000050
1a000408:	e0001004 	.word	0xe0001004
1a00040c:	10000048 	.word	0x10000048
1a000410:	10000070 	.word	0x10000070
1a000414:	10000002 	.word	0x10000002
1a000418:	461c4000 	.word	0x461c4000
1a00041c:	1000004c 	.word	0x1000004c
1a000420:	10000000 	.word	0x10000000
1a000424:	40490fdb 	.word	0x40490fdb
1a000428:	44000000 	.word	0x44000000
1a00042c:	1a001dd8 	.word	0x1a001dd8

1a000430 <initialise_monitor_handles>:
1a000430:	4770      	bx	lr
1a000432:	Address 0x000000001a000432 is out of bounds.


1a000434 <Reset_Handler>:
1a000434:	b510      	push	{r4, lr}
1a000436:	b672      	cpsid	i
1a000438:	4b19      	ldr	r3, [pc, #100]	; (1a0004a0 <Reset_Handler+0x6c>)
1a00043a:	4a1a      	ldr	r2, [pc, #104]	; (1a0004a4 <Reset_Handler+0x70>)
1a00043c:	601a      	str	r2, [r3, #0]
1a00043e:	3304      	adds	r3, #4
1a000440:	4a19      	ldr	r2, [pc, #100]	; (1a0004a8 <Reset_Handler+0x74>)
1a000442:	601a      	str	r2, [r3, #0]
1a000444:	2300      	movs	r3, #0
1a000446:	e005      	b.n	1a000454 <Reset_Handler+0x20>
1a000448:	4a18      	ldr	r2, [pc, #96]	; (1a0004ac <Reset_Handler+0x78>)
1a00044a:	f04f 31ff 	mov.w	r1, #4294967295	; 0xffffffff
1a00044e:	f842 1023 	str.w	r1, [r2, r3, lsl #2]
1a000452:	3301      	adds	r3, #1
1a000454:	2b07      	cmp	r3, #7
1a000456:	d9f7      	bls.n	1a000448 <Reset_Handler+0x14>
1a000458:	b662      	cpsie	i
1a00045a:	4b15      	ldr	r3, [pc, #84]	; (1a0004b0 <Reset_Handler+0x7c>)
1a00045c:	e007      	b.n	1a00046e <Reset_Handler+0x3a>
1a00045e:	f103 040c 	add.w	r4, r3, #12
1a000462:	689a      	ldr	r2, [r3, #8]
1a000464:	6859      	ldr	r1, [r3, #4]
1a000466:	6818      	ldr	r0, [r3, #0]
1a000468:	f7ff fe8f 	bl	1a00018a <data_init>
1a00046c:	4623      	mov	r3, r4
1a00046e:	4a11      	ldr	r2, [pc, #68]	; (1a0004b4 <Reset_Handler+0x80>)
1a000470:	4293      	cmp	r3, r2
1a000472:	d3f4      	bcc.n	1a00045e <Reset_Handler+0x2a>
1a000474:	e006      	b.n	1a000484 <Reset_Handler+0x50>
1a000476:	461c      	mov	r4, r3
1a000478:	6859      	ldr	r1, [r3, #4]
1a00047a:	f854 0b08 	ldr.w	r0, [r4], #8
1a00047e:	f7ff fe93 	bl	1a0001a8 <bss_init>
1a000482:	4623      	mov	r3, r4
1a000484:	4a0c      	ldr	r2, [pc, #48]	; (1a0004b8 <Reset_Handler+0x84>)
1a000486:	4293      	cmp	r3, r2
1a000488:	d3f5      	bcc.n	1a000476 <Reset_Handler+0x42>
1a00048a:	f000 ff49 	bl	1a001320 <SystemInit>
1a00048e:	f001 fc77 	bl	1a001d80 <__libc_init_array>
1a000492:	f7ff ffcd 	bl	1a000430 <initialise_monitor_handles>
1a000496:	f7ff ff33 	bl	1a000300 <main>
1a00049a:	bf30      	wfi
1a00049c:	e7fd      	b.n	1a00049a <Reset_Handler+0x66>
1a00049e:	bf00      	nop
1a0004a0:	40053100 	.word	0x40053100
1a0004a4:	10df1000 	.word	0x10df1000
1a0004a8:	01dff7ff 	.word	0x01dff7ff
1a0004ac:	e000e280 	.word	0xe000e280
1a0004b0:	1a000114 	.word	0x1a000114
1a0004b4:	1a000150 	.word	0x1a000150
1a0004b8:	1a000178 	.word	0x1a000178

1a0004bc <_fini>:
1a0004bc:	4770      	bx	lr

1a0004be <_init>:
1a0004be:	4770      	bx	lr

1a0004c0 <Board_LED_Init>:
1a0004c0:	2200      	movs	r2, #0
1a0004c2:	2a05      	cmp	r2, #5
1a0004c4:	d819      	bhi.n	1a0004fa <Board_LED_Init+0x3a>
1a0004c6:	b470      	push	{r4, r5, r6}
1a0004c8:	490c      	ldr	r1, [pc, #48]	; (1a0004fc <Board_LED_Init+0x3c>)
1a0004ca:	f811 5012 	ldrb.w	r5, [r1, r2, lsl #1]
1a0004ce:	eb01 0142 	add.w	r1, r1, r2, lsl #1
1a0004d2:	784c      	ldrb	r4, [r1, #1]
1a0004d4:	4b0a      	ldr	r3, [pc, #40]	; (1a000500 <Board_LED_Init+0x40>)
1a0004d6:	f505 6600 	add.w	r6, r5, #2048	; 0x800
1a0004da:	f853 1026 	ldr.w	r1, [r3, r6, lsl #2]
1a0004de:	2001      	movs	r0, #1
1a0004e0:	40a0      	lsls	r0, r4
1a0004e2:	4301      	orrs	r1, r0
1a0004e4:	f843 1026 	str.w	r1, [r3, r6, lsl #2]
1a0004e8:	eb03 1345 	add.w	r3, r3, r5, lsl #5
1a0004ec:	2100      	movs	r1, #0
1a0004ee:	5519      	strb	r1, [r3, r4]
1a0004f0:	3201      	adds	r2, #1
1a0004f2:	2a05      	cmp	r2, #5
1a0004f4:	d9e8      	bls.n	1a0004c8 <Board_LED_Init+0x8>
1a0004f6:	bc70      	pop	{r4, r5, r6}
1a0004f8:	4770      	bx	lr
1a0004fa:	4770      	bx	lr
1a0004fc:	1a001dec 	.word	0x1a001dec
1a000500:	400f4000 	.word	0x400f4000

1a000504 <Board_TEC_Init>:
1a000504:	2300      	movs	r3, #0
1a000506:	2b03      	cmp	r3, #3
1a000508:	d816      	bhi.n	1a000538 <Board_TEC_Init+0x34>
1a00050a:	b430      	push	{r4, r5}
1a00050c:	490b      	ldr	r1, [pc, #44]	; (1a00053c <Board_TEC_Init+0x38>)
1a00050e:	f811 2013 	ldrb.w	r2, [r1, r3, lsl #1]
1a000512:	eb01 0143 	add.w	r1, r1, r3, lsl #1
1a000516:	784d      	ldrb	r5, [r1, #1]
1a000518:	4c09      	ldr	r4, [pc, #36]	; (1a000540 <Board_TEC_Init+0x3c>)
1a00051a:	f502 6200 	add.w	r2, r2, #2048	; 0x800
1a00051e:	f854 1022 	ldr.w	r1, [r4, r2, lsl #2]
1a000522:	2001      	movs	r0, #1
1a000524:	40a8      	lsls	r0, r5
1a000526:	ea21 0100 	bic.w	r1, r1, r0
1a00052a:	f844 1022 	str.w	r1, [r4, r2, lsl #2]
1a00052e:	3301      	adds	r3, #1
1a000530:	2b03      	cmp	r3, #3
1a000532:	d9eb      	bls.n	1a00050c <Board_TEC_Init+0x8>
1a000534:	bc30      	pop	{r4, r5}
1a000536:	4770      	bx	lr
1a000538:	4770      	bx	lr
1a00053a:	bf00      	nop
1a00053c:	1a001de4 	.word	0x1a001de4
1a000540:	400f4000 	.word	0x400f4000

1a000544 <Board_GPIO_Init>:
1a000544:	2300      	movs	r3, #0
1a000546:	2b08      	cmp	r3, #8
1a000548:	d816      	bhi.n	1a000578 <Board_GPIO_Init+0x34>
1a00054a:	b430      	push	{r4, r5}
1a00054c:	490b      	ldr	r1, [pc, #44]	; (1a00057c <Board_GPIO_Init+0x38>)
1a00054e:	f811 2013 	ldrb.w	r2, [r1, r3, lsl #1]
1a000552:	eb01 0143 	add.w	r1, r1, r3, lsl #1
1a000556:	784d      	ldrb	r5, [r1, #1]
1a000558:	4c09      	ldr	r4, [pc, #36]	; (1a000580 <Board_GPIO_Init+0x3c>)
1a00055a:	f502 6200 	add.w	r2, r2, #2048	; 0x800
1a00055e:	f854 1022 	ldr.w	r1, [r4, r2, lsl #2]
1a000562:	2001      	movs	r0, #1
1a000564:	40a8      	lsls	r0, r5
1a000566:	ea21 0100 	bic.w	r1, r1, r0
1a00056a:	f844 1022 	str.w	r1, [r4, r2, lsl #2]
1a00056e:	3301      	adds	r3, #1
1a000570:	2b08      	cmp	r3, #8
1a000572:	d9eb      	bls.n	1a00054c <Board_GPIO_Init+0x8>
1a000574:	bc30      	pop	{r4, r5}
1a000576:	4770      	bx	lr
1a000578:	4770      	bx	lr
1a00057a:	bf00      	nop
1a00057c:	1a001df8 	.word	0x1a001df8
1a000580:	400f4000 	.word	0x400f4000

1a000584 <Board_ADC_Init>:
1a000584:	b510      	push	{r4, lr}
1a000586:	b082      	sub	sp, #8
1a000588:	4c08      	ldr	r4, [pc, #32]	; (1a0005ac <Board_ADC_Init+0x28>)
1a00058a:	4669      	mov	r1, sp
1a00058c:	4620      	mov	r0, r4
1a00058e:	f000 f9e9 	bl	1a000964 <Chip_ADC_Init>
1a000592:	4a07      	ldr	r2, [pc, #28]	; (1a0005b0 <Board_ADC_Init+0x2c>)
1a000594:	4669      	mov	r1, sp
1a000596:	4620      	mov	r0, r4
1a000598:	f000 fa4e 	bl	1a000a38 <Chip_ADC_SetSampleRate>
1a00059c:	2200      	movs	r2, #0
1a00059e:	4669      	mov	r1, sp
1a0005a0:	4620      	mov	r0, r4
1a0005a2:	f000 fa62 	bl	1a000a6a <Chip_ADC_SetResolution>
1a0005a6:	b002      	add	sp, #8
1a0005a8:	bd10      	pop	{r4, pc}
1a0005aa:	bf00      	nop
1a0005ac:	400e3000 	.word	0x400e3000
1a0005b0:	00061a80 	.word	0x00061a80

1a0005b4 <Board_SPI_Init>:
1a0005b4:	b510      	push	{r4, lr}
1a0005b6:	4c0b      	ldr	r4, [pc, #44]	; (1a0005e4 <Board_SPI_Init+0x30>)
1a0005b8:	4620      	mov	r0, r4
1a0005ba:	f000 fe57 	bl	1a00126c <Chip_SSP_Init>
1a0005be:	6863      	ldr	r3, [r4, #4]
1a0005c0:	f023 0304 	bic.w	r3, r3, #4
1a0005c4:	6063      	str	r3, [r4, #4]
1a0005c6:	6823      	ldr	r3, [r4, #0]
1a0005c8:	f023 03ff 	bic.w	r3, r3, #255	; 0xff
1a0005cc:	f043 0307 	orr.w	r3, r3, #7
1a0005d0:	6023      	str	r3, [r4, #0]
1a0005d2:	4905      	ldr	r1, [pc, #20]	; (1a0005e8 <Board_SPI_Init+0x34>)
1a0005d4:	4620      	mov	r0, r4
1a0005d6:	f000 fe2a 	bl	1a00122e <Chip_SSP_SetBitRate>
1a0005da:	6863      	ldr	r3, [r4, #4]
1a0005dc:	f043 0302 	orr.w	r3, r3, #2
1a0005e0:	6063      	str	r3, [r4, #4]
1a0005e2:	bd10      	pop	{r4, pc}
1a0005e4:	400c5000 	.word	0x400c5000
1a0005e8:	000186a0 	.word	0x000186a0

1a0005ec <Board_I2C_Init>:
1a0005ec:	b508      	push	{r3, lr}
1a0005ee:	2000      	movs	r0, #0
1a0005f0:	f000 fe68 	bl	1a0012c4 <Chip_I2C_Init>
1a0005f4:	4b04      	ldr	r3, [pc, #16]	; (1a000608 <Board_I2C_Init+0x1c>)
1a0005f6:	f640 0208 	movw	r2, #2056	; 0x808
1a0005fa:	f8c3 2c84 	str.w	r2, [r3, #3204]	; 0xc84
1a0005fe:	4903      	ldr	r1, [pc, #12]	; (1a00060c <Board_I2C_Init+0x20>)
1a000600:	2000      	movs	r0, #0
1a000602:	f000 fe71 	bl	1a0012e8 <Chip_I2C_SetClockRate>
1a000606:	bd08      	pop	{r3, pc}
1a000608:	40086000 	.word	0x40086000
1a00060c:	000f4240 	.word	0x000f4240

1a000610 <Board_Debug_Init>:
1a000610:	b510      	push	{r4, lr}
1a000612:	4c07      	ldr	r4, [pc, #28]	; (1a000630 <Board_Debug_Init+0x20>)
1a000614:	4620      	mov	r0, r4
1a000616:	f000 f8b1 	bl	1a00077c <Chip_UART_Init>
1a00061a:	f44f 31e1 	mov.w	r1, #115200	; 0x1c200
1a00061e:	4620      	mov	r0, r4
1a000620:	f000 f8f6 	bl	1a000810 <Chip_UART_SetBaudFDR>
1a000624:	2303      	movs	r3, #3
1a000626:	60e3      	str	r3, [r4, #12]
1a000628:	2301      	movs	r3, #1
1a00062a:	65e3      	str	r3, [r4, #92]	; 0x5c
1a00062c:	bd10      	pop	{r4, pc}
1a00062e:	bf00      	nop
1a000630:	400c1000 	.word	0x400c1000

1a000634 <Board_Init>:
1a000634:	b508      	push	{r3, lr}
1a000636:	f7ff ffeb 	bl	1a000610 <Board_Debug_Init>
1a00063a:	4809      	ldr	r0, [pc, #36]	; (1a000660 <Board_Init+0x2c>)
1a00063c:	f000 fdd6 	bl	1a0011ec <Chip_GPIO_Init>
1a000640:	f7ff ff80 	bl	1a000544 <Board_GPIO_Init>
1a000644:	f7ff ff9e 	bl	1a000584 <Board_ADC_Init>
1a000648:	f7ff ffb4 	bl	1a0005b4 <Board_SPI_Init>
1a00064c:	f7ff ffce 	bl	1a0005ec <Board_I2C_Init>
1a000650:	f7ff ff36 	bl	1a0004c0 <Board_LED_Init>
1a000654:	f7ff ff56 	bl	1a000504 <Board_TEC_Init>
1a000658:	f000 fa32 	bl	1a000ac0 <SystemCoreClockUpdate>
1a00065c:	bd08      	pop	{r3, pc}
1a00065e:	bf00      	nop
1a000660:	400f4000 	.word	0x400f4000

1a000664 <__stdio_init>:
1a000664:	b508      	push	{r3, lr}
1a000666:	f7ff ffd3 	bl	1a000610 <Board_Debug_Init>
1a00066a:	bd08      	pop	{r3, pc}

1a00066c <Board_SetupMuxing>:
1a00066c:	2300      	movs	r3, #0
1a00066e:	2b1c      	cmp	r3, #28
1a000670:	d812      	bhi.n	1a000698 <Board_SetupMuxing+0x2c>
1a000672:	b410      	push	{r4}
1a000674:	4a09      	ldr	r2, [pc, #36]	; (1a00069c <Board_SetupMuxing+0x30>)
1a000676:	eb02 0183 	add.w	r1, r2, r3, lsl #2
1a00067a:	f812 4023 	ldrb.w	r4, [r2, r3, lsl #2]
1a00067e:	784a      	ldrb	r2, [r1, #1]
1a000680:	8848      	ldrh	r0, [r1, #2]
1a000682:	eb02 1244 	add.w	r2, r2, r4, lsl #5
1a000686:	4906      	ldr	r1, [pc, #24]	; (1a0006a0 <Board_SetupMuxing+0x34>)
1a000688:	f841 0022 	str.w	r0, [r1, r2, lsl #2]
1a00068c:	3301      	adds	r3, #1
1a00068e:	2b1c      	cmp	r3, #28
1a000690:	d9f0      	bls.n	1a000674 <Board_SetupMuxing+0x8>
1a000692:	f85d 4b04 	ldr.w	r4, [sp], #4
1a000696:	4770      	bx	lr
1a000698:	4770      	bx	lr
1a00069a:	bf00      	nop
1a00069c:	1a001e14 	.word	0x1a001e14
1a0006a0:	40086000 	.word	0x40086000

1a0006a4 <Board_SetupClocking>:
1a0006a4:	b510      	push	{r4, lr}
1a0006a6:	4a17      	ldr	r2, [pc, #92]	; (1a000704 <Board_SetupClocking+0x60>)
1a0006a8:	f8d2 3120 	ldr.w	r3, [r2, #288]	; 0x120
1a0006ac:	f423 4370 	bic.w	r3, r3, #61440	; 0xf000
1a0006b0:	f443 4310 	orr.w	r3, r3, #36864	; 0x9000
1a0006b4:	f8c2 3120 	str.w	r3, [r2, #288]	; 0x120
1a0006b8:	f8d2 3124 	ldr.w	r3, [r2, #292]	; 0x124
1a0006bc:	f423 4370 	bic.w	r3, r3, #61440	; 0xf000
1a0006c0:	f443 4310 	orr.w	r3, r3, #36864	; 0x9000
1a0006c4:	f8c2 3124 	str.w	r3, [r2, #292]	; 0x124
1a0006c8:	2201      	movs	r2, #1
1a0006ca:	490f      	ldr	r1, [pc, #60]	; (1a000708 <Board_SetupClocking+0x64>)
1a0006cc:	2006      	movs	r0, #6
1a0006ce:	f000 fce3 	bl	1a001098 <Chip_SetupCoreClock>
1a0006d2:	2400      	movs	r4, #0
1a0006d4:	b14c      	cbz	r4, 1a0006ea <Board_SetupClocking+0x46>
1a0006d6:	4b0b      	ldr	r3, [pc, #44]	; (1a000704 <Board_SetupClocking+0x60>)
1a0006d8:	685a      	ldr	r2, [r3, #4]
1a0006da:	f022 020c 	bic.w	r2, r2, #12
1a0006de:	605a      	str	r2, [r3, #4]
1a0006e0:	685a      	ldr	r2, [r3, #4]
1a0006e2:	f042 0203 	orr.w	r2, r2, #3
1a0006e6:	605a      	str	r2, [r3, #4]
1a0006e8:	bd10      	pop	{r4, pc}
1a0006ea:	4808      	ldr	r0, [pc, #32]	; (1a00070c <Board_SetupClocking+0x68>)
1a0006ec:	eb00 0184 	add.w	r1, r0, r4, lsl #2
1a0006f0:	2301      	movs	r3, #1
1a0006f2:	788a      	ldrb	r2, [r1, #2]
1a0006f4:	7849      	ldrb	r1, [r1, #1]
1a0006f6:	f810 0024 	ldrb.w	r0, [r0, r4, lsl #2]
1a0006fa:	f000 fc0f 	bl	1a000f1c <Chip_Clock_SetBaseClock>
1a0006fe:	3401      	adds	r4, #1
1a000700:	e7e8      	b.n	1a0006d4 <Board_SetupClocking+0x30>
1a000702:	bf00      	nop
1a000704:	40043000 	.word	0x40043000
1a000708:	0c28cb00 	.word	0x0c28cb00
1a00070c:	1a001e10 	.word	0x1a001e10

1a000710 <Board_SystemInit>:
1a000710:	b508      	push	{r3, lr}
1a000712:	f7ff ffab 	bl	1a00066c <Board_SetupMuxing>
1a000716:	f7ff ffc5 	bl	1a0006a4 <Board_SetupClocking>
1a00071a:	bd08      	pop	{r3, pc}

1a00071c <Chip_DAC_DeInit>:
1a00071c:	b508      	push	{r3, lr}
1a00071e:	2002      	movs	r0, #2
1a000720:	f000 fc7a 	bl	1a001018 <Chip_Clock_Disable>
1a000724:	bd08      	pop	{r3, pc}

1a000726 <Chip_DAC_UpdateValue>:
1a000726:	6803      	ldr	r3, [r0, #0]
1a000728:	f403 3380 	and.w	r3, r3, #65536	; 0x10000
1a00072c:	0189      	lsls	r1, r1, #6
1a00072e:	b289      	uxth	r1, r1
1a000730:	4319      	orrs	r1, r3
1a000732:	6001      	str	r1, [r0, #0]
1a000734:	4770      	bx	lr

1a000736 <Chip_DAC_SetBias>:
1a000736:	6803      	ldr	r3, [r0, #0]
1a000738:	f423 3380 	bic.w	r3, r3, #65536	; 0x10000
1a00073c:	6003      	str	r3, [r0, #0]
1a00073e:	2901      	cmp	r1, #1
1a000740:	d000      	beq.n	1a000744 <Chip_DAC_SetBias+0xe>
1a000742:	4770      	bx	lr
1a000744:	6803      	ldr	r3, [r0, #0]
1a000746:	f443 3380 	orr.w	r3, r3, #65536	; 0x10000
1a00074a:	6003      	str	r3, [r0, #0]
1a00074c:	e7f9      	b.n	1a000742 <Chip_DAC_SetBias+0xc>
1a00074e:	Address 0x000000001a00074e is out of bounds.


1a000750 <Chip_UART_GetIndex>:
1a000750:	4b09      	ldr	r3, [pc, #36]	; (1a000778 <Chip_UART_GetIndex+0x28>)
1a000752:	4298      	cmp	r0, r3
1a000754:	d009      	beq.n	1a00076a <Chip_UART_GetIndex+0x1a>
1a000756:	f503 5380 	add.w	r3, r3, #4096	; 0x1000
1a00075a:	4298      	cmp	r0, r3
1a00075c:	d007      	beq.n	1a00076e <Chip_UART_GetIndex+0x1e>
1a00075e:	f5a3 2380 	sub.w	r3, r3, #262144	; 0x40000
1a000762:	4298      	cmp	r0, r3
1a000764:	d005      	beq.n	1a000772 <Chip_UART_GetIndex+0x22>
1a000766:	2000      	movs	r0, #0
1a000768:	4770      	bx	lr
1a00076a:	2002      	movs	r0, #2
1a00076c:	4770      	bx	lr
1a00076e:	2003      	movs	r0, #3
1a000770:	4770      	bx	lr
1a000772:	2001      	movs	r0, #1
1a000774:	4770      	bx	lr
1a000776:	bf00      	nop
1a000778:	400c1000 	.word	0x400c1000

1a00077c <Chip_UART_Init>:
1a00077c:	b530      	push	{r4, r5, lr}
1a00077e:	b083      	sub	sp, #12
1a000780:	4604      	mov	r4, r0
1a000782:	f7ff ffe5 	bl	1a000750 <Chip_UART_GetIndex>
1a000786:	2301      	movs	r3, #1
1a000788:	461a      	mov	r2, r3
1a00078a:	4619      	mov	r1, r3
1a00078c:	4d0e      	ldr	r5, [pc, #56]	; (1a0007c8 <Chip_UART_Init+0x4c>)
1a00078e:	f835 0010 	ldrh.w	r0, [r5, r0, lsl #1]
1a000792:	f000 fc09 	bl	1a000fa8 <Chip_Clock_EnableOpts>
1a000796:	2307      	movs	r3, #7
1a000798:	60a3      	str	r3, [r4, #8]
1a00079a:	2300      	movs	r3, #0
1a00079c:	65e3      	str	r3, [r4, #92]	; 0x5c
1a00079e:	6063      	str	r3, [r4, #4]
1a0007a0:	60e3      	str	r3, [r4, #12]
1a0007a2:	6223      	str	r3, [r4, #32]
1a0007a4:	64e3      	str	r3, [r4, #76]	; 0x4c
1a0007a6:	6563      	str	r3, [r4, #84]	; 0x54
1a0007a8:	6523      	str	r3, [r4, #80]	; 0x50
1a0007aa:	4b08      	ldr	r3, [pc, #32]	; (1a0007cc <Chip_UART_Init+0x50>)
1a0007ac:	429c      	cmp	r4, r3
1a0007ae:	d006      	beq.n	1a0007be <Chip_UART_Init+0x42>
1a0007b0:	2303      	movs	r3, #3
1a0007b2:	60e3      	str	r3, [r4, #12]
1a0007b4:	2310      	movs	r3, #16
1a0007b6:	62a3      	str	r3, [r4, #40]	; 0x28
1a0007b8:	9b01      	ldr	r3, [sp, #4]
1a0007ba:	b003      	add	sp, #12
1a0007bc:	bd30      	pop	{r4, r5, pc}
1a0007be:	2300      	movs	r3, #0
1a0007c0:	6123      	str	r3, [r4, #16]
1a0007c2:	69a3      	ldr	r3, [r4, #24]
1a0007c4:	9301      	str	r3, [sp, #4]
1a0007c6:	e7f3      	b.n	1a0007b0 <Chip_UART_Init+0x34>
1a0007c8:	1a001e90 	.word	0x1a001e90
1a0007cc:	40082000 	.word	0x40082000

1a0007d0 <Chip_UART_SetBaud>:
1a0007d0:	b538      	push	{r3, r4, r5, lr}
1a0007d2:	4605      	mov	r5, r0
1a0007d4:	460c      	mov	r4, r1
1a0007d6:	f7ff ffbb 	bl	1a000750 <Chip_UART_GetIndex>
1a0007da:	4b0c      	ldr	r3, [pc, #48]	; (1a00080c <Chip_UART_SetBaud+0x3c>)
1a0007dc:	f833 0010 	ldrh.w	r0, [r3, r0, lsl #1]
1a0007e0:	f000 fc34 	bl	1a00104c <Chip_Clock_GetRate>
1a0007e4:	0123      	lsls	r3, r4, #4
1a0007e6:	fbb0 f3f3 	udiv	r3, r0, r3
1a0007ea:	b2d9      	uxtb	r1, r3
1a0007ec:	68ea      	ldr	r2, [r5, #12]
1a0007ee:	f042 0280 	orr.w	r2, r2, #128	; 0x80
1a0007f2:	60ea      	str	r2, [r5, #12]
1a0007f4:	6029      	str	r1, [r5, #0]
1a0007f6:	f3c3 2207 	ubfx	r2, r3, #8, #8
1a0007fa:	606a      	str	r2, [r5, #4]
1a0007fc:	68ea      	ldr	r2, [r5, #12]
1a0007fe:	f022 0280 	bic.w	r2, r2, #128	; 0x80
1a000802:	60ea      	str	r2, [r5, #12]
1a000804:	fbb0 f0f3 	udiv	r0, r0, r3
1a000808:	0900      	lsrs	r0, r0, #4
1a00080a:	bd38      	pop	{r3, r4, r5, pc}
1a00080c:	1a001e88 	.word	0x1a001e88

1a000810 <Chip_UART_SetBaudFDR>:
1a000810:	e92d 4ff0 	stmdb	sp!, {r4, r5, r6, r7, r8, r9, sl, fp, lr}
1a000814:	b083      	sub	sp, #12
1a000816:	4683      	mov	fp, r0
1a000818:	4688      	mov	r8, r1
1a00081a:	f7ff ff99 	bl	1a000750 <Chip_UART_GetIndex>
1a00081e:	4b35      	ldr	r3, [pc, #212]	; (1a0008f4 <Chip_UART_SetBaudFDR+0xe4>)
1a000820:	f833 0010 	ldrh.w	r0, [r3, r0, lsl #1]
1a000824:	f000 fc12 	bl	1a00104c <Chip_Clock_GetRate>
1a000828:	4606      	mov	r6, r0
1a00082a:	f04f 37ff 	mov.w	r7, #4294967295	; 0xffffffff
1a00082e:	2401      	movs	r4, #1
1a000830:	2300      	movs	r3, #0
1a000832:	9301      	str	r3, [sp, #4]
1a000834:	46a2      	mov	sl, r4
1a000836:	4699      	mov	r9, r3
1a000838:	e02a      	b.n	1a000890 <Chip_UART_SetBaudFDR+0x80>
1a00083a:	4242      	negs	r2, r0
1a00083c:	1c4b      	adds	r3, r1, #1
1a00083e:	e017      	b.n	1a000870 <Chip_UART_SetBaudFDR+0x60>
1a000840:	b30a      	cbz	r2, 1a000886 <Chip_UART_SetBaudFDR+0x76>
1a000842:	4617      	mov	r7, r2
1a000844:	9501      	str	r5, [sp, #4]
1a000846:	46a2      	mov	sl, r4
1a000848:	4699      	mov	r9, r3
1a00084a:	3501      	adds	r5, #1
1a00084c:	42ac      	cmp	r4, r5
1a00084e:	d91e      	bls.n	1a00088e <Chip_UART_SetBaudFDR+0x7e>
1a000850:	0933      	lsrs	r3, r6, #4
1a000852:	0730      	lsls	r0, r6, #28
1a000854:	fba4 0100 	umull	r0, r1, r4, r0
1a000858:	fb04 1103 	mla	r1, r4, r3, r1
1a00085c:	1962      	adds	r2, r4, r5
1a00085e:	fb08 f202 	mul.w	r2, r8, r2
1a000862:	2300      	movs	r3, #0
1a000864:	f001 f90c 	bl	1a001a80 <__aeabi_uldivmod>
1a000868:	4602      	mov	r2, r0
1a00086a:	460b      	mov	r3, r1
1a00086c:	2800      	cmp	r0, #0
1a00086e:	dbe4      	blt.n	1a00083a <Chip_UART_SetBaudFDR+0x2a>
1a000870:	4297      	cmp	r7, r2
1a000872:	d3ea      	bcc.n	1a00084a <Chip_UART_SetBaudFDR+0x3a>
1a000874:	2b00      	cmp	r3, #0
1a000876:	d0e8      	beq.n	1a00084a <Chip_UART_SetBaudFDR+0x3a>
1a000878:	0c19      	lsrs	r1, r3, #16
1a00087a:	d1e6      	bne.n	1a00084a <Chip_UART_SetBaudFDR+0x3a>
1a00087c:	2b02      	cmp	r3, #2
1a00087e:	d8df      	bhi.n	1a000840 <Chip_UART_SetBaudFDR+0x30>
1a000880:	2d00      	cmp	r5, #0
1a000882:	d0dd      	beq.n	1a000840 <Chip_UART_SetBaudFDR+0x30>
1a000884:	e7e1      	b.n	1a00084a <Chip_UART_SetBaudFDR+0x3a>
1a000886:	4617      	mov	r7, r2
1a000888:	9501      	str	r5, [sp, #4]
1a00088a:	46a2      	mov	sl, r4
1a00088c:	4699      	mov	r9, r3
1a00088e:	3401      	adds	r4, #1
1a000890:	b11f      	cbz	r7, 1a00089a <Chip_UART_SetBaudFDR+0x8a>
1a000892:	2c0f      	cmp	r4, #15
1a000894:	d801      	bhi.n	1a00089a <Chip_UART_SetBaudFDR+0x8a>
1a000896:	2500      	movs	r5, #0
1a000898:	e7d8      	b.n	1a00084c <Chip_UART_SetBaudFDR+0x3c>
1a00089a:	f1b9 0f00 	cmp.w	r9, #0
1a00089e:	d024      	beq.n	1a0008ea <Chip_UART_SetBaudFDR+0xda>
1a0008a0:	f8db 300c 	ldr.w	r3, [fp, #12]
1a0008a4:	f043 0380 	orr.w	r3, r3, #128	; 0x80
1a0008a8:	f8cb 300c 	str.w	r3, [fp, #12]
1a0008ac:	fa5f f389 	uxtb.w	r3, r9
1a0008b0:	f8cb 3000 	str.w	r3, [fp]
1a0008b4:	f3c9 2307 	ubfx	r3, r9, #8, #8
1a0008b8:	f8cb 3004 	str.w	r3, [fp, #4]
1a0008bc:	f8db 300c 	ldr.w	r3, [fp, #12]
1a0008c0:	f023 0380 	bic.w	r3, r3, #128	; 0x80
1a0008c4:	f8cb 300c 	str.w	r3, [fp, #12]
1a0008c8:	ea4f 130a 	mov.w	r3, sl, lsl #4
1a0008cc:	b2db      	uxtb	r3, r3
1a0008ce:	9901      	ldr	r1, [sp, #4]
1a0008d0:	f001 020f 	and.w	r2, r1, #15
1a0008d4:	4313      	orrs	r3, r2
1a0008d6:	f8cb 3028 	str.w	r3, [fp, #40]	; 0x28
1a0008da:	0933      	lsrs	r3, r6, #4
1a0008dc:	fb0a f303 	mul.w	r3, sl, r3
1a0008e0:	448a      	add	sl, r1
1a0008e2:	fb09 f90a 	mul.w	r9, r9, sl
1a0008e6:	fbb3 f9f9 	udiv	r9, r3, r9
1a0008ea:	4648      	mov	r0, r9
1a0008ec:	b003      	add	sp, #12
1a0008ee:	e8bd 8ff0 	ldmia.w	sp!, {r4, r5, r6, r7, r8, r9, sl, fp, pc}
1a0008f2:	bf00      	nop
1a0008f4:	1a001e88 	.word	0x1a001e88

1a0008f8 <Chip_ADC_GetClockIndex>:
1a0008f8:	4b03      	ldr	r3, [pc, #12]	; (1a000908 <Chip_ADC_GetClockIndex+0x10>)
1a0008fa:	4298      	cmp	r0, r3
1a0008fc:	d001      	beq.n	1a000902 <Chip_ADC_GetClockIndex+0xa>
1a0008fe:	2003      	movs	r0, #3
1a000900:	4770      	bx	lr
1a000902:	2004      	movs	r0, #4
1a000904:	4770      	bx	lr
1a000906:	bf00      	nop
1a000908:	400e4000 	.word	0x400e4000

1a00090c <getClkDiv>:
1a00090c:	b570      	push	{r4, r5, r6, lr}
1a00090e:	460d      	mov	r5, r1
1a000910:	4614      	mov	r4, r2
1a000912:	461e      	mov	r6, r3
1a000914:	f7ff fff0 	bl	1a0008f8 <Chip_ADC_GetClockIndex>
1a000918:	f000 fb98 	bl	1a00104c <Chip_Clock_GetRate>
1a00091c:	b965      	cbnz	r5, 1a000938 <getClkDiv+0x2c>
1a00091e:	eb04 0384 	add.w	r3, r4, r4, lsl #2
1a000922:	eb04 0443 	add.w	r4, r4, r3, lsl #1
1a000926:	eb04 0040 	add.w	r0, r4, r0, lsl #1
1a00092a:	0064      	lsls	r4, r4, #1
1a00092c:	fbb0 f0f4 	udiv	r0, r0, r4
1a000930:	b2c0      	uxtb	r0, r0
1a000932:	3801      	subs	r0, #1
1a000934:	b2c0      	uxtb	r0, r0
1a000936:	bd70      	pop	{r4, r5, r6, pc}
1a000938:	fb04 f406 	mul.w	r4, r4, r6
1a00093c:	e7f3      	b.n	1a000926 <getClkDiv+0x1a>

1a00093e <setStartMode>:
1a00093e:	6803      	ldr	r3, [r0, #0]
1a000940:	f023 63e0 	bic.w	r3, r3, #117440512	; 0x7000000
1a000944:	ea43 6101 	orr.w	r1, r3, r1, lsl #24
1a000948:	6001      	str	r1, [r0, #0]
1a00094a:	4770      	bx	lr

1a00094c <readAdcVal>:
1a00094c:	3104      	adds	r1, #4
1a00094e:	f850 3021 	ldr.w	r3, [r0, r1, lsl #2]
1a000952:	2b00      	cmp	r3, #0
1a000954:	db01      	blt.n	1a00095a <readAdcVal+0xe>
1a000956:	2000      	movs	r0, #0
1a000958:	4770      	bx	lr
1a00095a:	f3c3 1389 	ubfx	r3, r3, #6, #10
1a00095e:	8013      	strh	r3, [r2, #0]
1a000960:	2001      	movs	r0, #1
1a000962:	4770      	bx	lr

1a000964 <Chip_ADC_Init>:
1a000964:	b538      	push	{r3, r4, r5, lr}
1a000966:	4605      	mov	r5, r0
1a000968:	460c      	mov	r4, r1
1a00096a:	f7ff ffc5 	bl	1a0008f8 <Chip_ADC_GetClockIndex>
1a00096e:	2301      	movs	r3, #1
1a000970:	461a      	mov	r2, r3
1a000972:	4619      	mov	r1, r3
1a000974:	f000 fb18 	bl	1a000fa8 <Chip_Clock_EnableOpts>
1a000978:	2100      	movs	r1, #0
1a00097a:	60e9      	str	r1, [r5, #12]
1a00097c:	4a08      	ldr	r2, [pc, #32]	; (1a0009a0 <Chip_ADC_Init+0x3c>)
1a00097e:	6022      	str	r2, [r4, #0]
1a000980:	7121      	strb	r1, [r4, #4]
1a000982:	7161      	strb	r1, [r4, #5]
1a000984:	230b      	movs	r3, #11
1a000986:	4628      	mov	r0, r5
1a000988:	f7ff ffc0 	bl	1a00090c <getClkDiv>
1a00098c:	0200      	lsls	r0, r0, #8
1a00098e:	f440 1300 	orr.w	r3, r0, #2097152	; 0x200000
1a000992:	7920      	ldrb	r0, [r4, #4]
1a000994:	0440      	lsls	r0, r0, #17
1a000996:	f400 2060 	and.w	r0, r0, #917504	; 0xe0000
1a00099a:	4318      	orrs	r0, r3
1a00099c:	6028      	str	r0, [r5, #0]
1a00099e:	bd38      	pop	{r3, r4, r5, pc}
1a0009a0:	00061a80 	.word	0x00061a80

1a0009a4 <Chip_ADC_DeInit>:
1a0009a4:	b508      	push	{r3, lr}
1a0009a6:	f44f 7280 	mov.w	r2, #256	; 0x100
1a0009aa:	60c2      	str	r2, [r0, #12]
1a0009ac:	2200      	movs	r2, #0
1a0009ae:	6002      	str	r2, [r0, #0]
1a0009b0:	f7ff ffa2 	bl	1a0008f8 <Chip_ADC_GetClockIndex>
1a0009b4:	f000 fb30 	bl	1a001018 <Chip_Clock_Disable>
1a0009b8:	bd08      	pop	{r3, pc}

1a0009ba <Chip_ADC_ReadValue>:
1a0009ba:	b508      	push	{r3, lr}
1a0009bc:	f7ff ffc6 	bl	1a00094c <readAdcVal>
1a0009c0:	bd08      	pop	{r3, pc}

1a0009c2 <Chip_ADC_ReadStatus>:
1a0009c2:	2a01      	cmp	r2, #1
1a0009c4:	d00a      	beq.n	1a0009dc <Chip_ADC_ReadStatus+0x1a>
1a0009c6:	b11a      	cbz	r2, 1a0009d0 <Chip_ADC_ReadStatus+0xe>
1a0009c8:	2a02      	cmp	r2, #2
1a0009ca:	d00f      	beq.n	1a0009ec <Chip_ADC_ReadStatus+0x2a>
1a0009cc:	2000      	movs	r0, #0
1a0009ce:	4770      	bx	lr
1a0009d0:	6b00      	ldr	r0, [r0, #48]	; 0x30
1a0009d2:	40c8      	lsrs	r0, r1
1a0009d4:	f000 0001 	and.w	r0, r0, #1
1a0009d8:	b2c0      	uxtb	r0, r0
1a0009da:	4770      	bx	lr
1a0009dc:	3108      	adds	r1, #8
1a0009de:	b2c9      	uxtb	r1, r1
1a0009e0:	6b00      	ldr	r0, [r0, #48]	; 0x30
1a0009e2:	40c8      	lsrs	r0, r1
1a0009e4:	f000 0001 	and.w	r0, r0, #1
1a0009e8:	b2c0      	uxtb	r0, r0
1a0009ea:	4770      	bx	lr
1a0009ec:	6b03      	ldr	r3, [r0, #48]	; 0x30
1a0009ee:	0c1b      	lsrs	r3, r3, #16
1a0009f0:	bf14      	ite	ne
1a0009f2:	2001      	movne	r0, #1
1a0009f4:	2000      	moveq	r0, #0
1a0009f6:	4770      	bx	lr

1a0009f8 <Chip_ADC_Int_SetChannelCmd>:
1a0009f8:	2a01      	cmp	r2, #1
1a0009fa:	d007      	beq.n	1a000a0c <Chip_ADC_Int_SetChannelCmd+0x14>
1a0009fc:	68c3      	ldr	r3, [r0, #12]
1a0009fe:	2201      	movs	r2, #1
1a000a00:	fa02 f101 	lsl.w	r1, r2, r1
1a000a04:	ea23 0101 	bic.w	r1, r3, r1
1a000a08:	60c1      	str	r1, [r0, #12]
1a000a0a:	4770      	bx	lr
1a000a0c:	68c3      	ldr	r3, [r0, #12]
1a000a0e:	fa02 f101 	lsl.w	r1, r2, r1
1a000a12:	4319      	orrs	r1, r3
1a000a14:	60c1      	str	r1, [r0, #12]
1a000a16:	4770      	bx	lr

1a000a18 <Chip_ADC_SetStartMode>:
1a000a18:	b508      	push	{r3, lr}
1a000a1a:	2901      	cmp	r1, #1
1a000a1c:	d904      	bls.n	1a000a28 <Chip_ADC_SetStartMode+0x10>
1a000a1e:	b932      	cbnz	r2, 1a000a2e <Chip_ADC_SetStartMode+0x16>
1a000a20:	6803      	ldr	r3, [r0, #0]
1a000a22:	f023 6300 	bic.w	r3, r3, #134217728	; 0x8000000
1a000a26:	6003      	str	r3, [r0, #0]
1a000a28:	f7ff ff89 	bl	1a00093e <setStartMode>
1a000a2c:	bd08      	pop	{r3, pc}
1a000a2e:	6803      	ldr	r3, [r0, #0]
1a000a30:	f043 6300 	orr.w	r3, r3, #134217728	; 0x8000000
1a000a34:	6003      	str	r3, [r0, #0]
1a000a36:	e7f7      	b.n	1a000a28 <Chip_ADC_SetStartMode+0x10>

1a000a38 <Chip_ADC_SetSampleRate>:
1a000a38:	b570      	push	{r4, r5, r6, lr}
1a000a3a:	4605      	mov	r5, r0
1a000a3c:	460e      	mov	r6, r1
1a000a3e:	6804      	ldr	r4, [r0, #0]
1a000a40:	f424 246f 	bic.w	r4, r4, #978944	; 0xef000
1a000a44:	f424 6470 	bic.w	r4, r4, #3840	; 0xf00
1a000a48:	600a      	str	r2, [r1, #0]
1a000a4a:	790b      	ldrb	r3, [r1, #4]
1a000a4c:	f1c3 030b 	rsb	r3, r3, #11
1a000a50:	b2db      	uxtb	r3, r3
1a000a52:	7949      	ldrb	r1, [r1, #5]
1a000a54:	f7ff ff5a 	bl	1a00090c <getClkDiv>
1a000a58:	ea44 2400 	orr.w	r4, r4, r0, lsl #8
1a000a5c:	7930      	ldrb	r0, [r6, #4]
1a000a5e:	0440      	lsls	r0, r0, #17
1a000a60:	f400 2060 	and.w	r0, r0, #917504	; 0xe0000
1a000a64:	4320      	orrs	r0, r4
1a000a66:	6028      	str	r0, [r5, #0]
1a000a68:	bd70      	pop	{r4, r5, r6, pc}

1a000a6a <Chip_ADC_SetResolution>:
1a000a6a:	b508      	push	{r3, lr}
1a000a6c:	710a      	strb	r2, [r1, #4]
1a000a6e:	680a      	ldr	r2, [r1, #0]
1a000a70:	f7ff ffe2 	bl	1a000a38 <Chip_ADC_SetSampleRate>
1a000a74:	bd08      	pop	{r3, pc}

1a000a76 <Chip_ADC_EnableChannel>:
1a000a76:	2a01      	cmp	r2, #1
1a000a78:	d00b      	beq.n	1a000a92 <Chip_ADC_EnableChannel+0x1c>
1a000a7a:	6803      	ldr	r3, [r0, #0]
1a000a7c:	f023 63e0 	bic.w	r3, r3, #117440512	; 0x7000000
1a000a80:	6003      	str	r3, [r0, #0]
1a000a82:	6803      	ldr	r3, [r0, #0]
1a000a84:	2201      	movs	r2, #1
1a000a86:	fa02 f101 	lsl.w	r1, r2, r1
1a000a8a:	ea23 0101 	bic.w	r1, r3, r1
1a000a8e:	6001      	str	r1, [r0, #0]
1a000a90:	4770      	bx	lr
1a000a92:	6803      	ldr	r3, [r0, #0]
1a000a94:	fa02 f101 	lsl.w	r1, r2, r1
1a000a98:	4319      	orrs	r1, r3
1a000a9a:	6001      	str	r1, [r0, #0]
1a000a9c:	4770      	bx	lr

1a000a9e <Chip_ADC_SetBurstCmd>:
1a000a9e:	b538      	push	{r3, r4, r5, lr}
1a000aa0:	4604      	mov	r4, r0
1a000aa2:	460d      	mov	r5, r1
1a000aa4:	2100      	movs	r1, #0
1a000aa6:	f7ff ff4a 	bl	1a00093e <setStartMode>
1a000aaa:	b125      	cbz	r5, 1a000ab6 <Chip_ADC_SetBurstCmd+0x18>
1a000aac:	6823      	ldr	r3, [r4, #0]
1a000aae:	f443 3380 	orr.w	r3, r3, #65536	; 0x10000
1a000ab2:	6023      	str	r3, [r4, #0]
1a000ab4:	bd38      	pop	{r3, r4, r5, pc}
1a000ab6:	6823      	ldr	r3, [r4, #0]
1a000ab8:	f423 3380 	bic.w	r3, r3, #65536	; 0x10000
1a000abc:	6023      	str	r3, [r4, #0]
1a000abe:	e7f9      	b.n	1a000ab4 <Chip_ADC_SetBurstCmd+0x16>

1a000ac0 <SystemCoreClockUpdate>:
1a000ac0:	b508      	push	{r3, lr}
1a000ac2:	2069      	movs	r0, #105	; 0x69
1a000ac4:	f000 fac2 	bl	1a00104c <Chip_Clock_GetRate>
1a000ac8:	4b01      	ldr	r3, [pc, #4]	; (1a000ad0 <SystemCoreClockUpdate+0x10>)
1a000aca:	6018      	str	r0, [r3, #0]
1a000acc:	bd08      	pop	{r3, pc}
1a000ace:	bf00      	nop
1a000ad0:	10000470 	.word	0x10000470

1a000ad4 <pll_calc_divs>:
1a000ad4:	b4f0      	push	{r4, r5, r6, r7}
1a000ad6:	680b      	ldr	r3, [r1, #0]
1a000ad8:	f013 0f80 	tst.w	r3, #128	; 0x80
1a000adc:	d002      	beq.n	1a000ae4 <pll_calc_divs+0x10>
1a000ade:	f023 0340 	bic.w	r3, r3, #64	; 0x40
1a000ae2:	600b      	str	r3, [r1, #0]
1a000ae4:	4607      	mov	r7, r0
1a000ae6:	2501      	movs	r5, #1
1a000ae8:	e03b      	b.n	1a000b62 <pll_calc_divs+0x8e>
1a000aea:	694b      	ldr	r3, [r1, #20]
1a000aec:	fb03 f302 	mul.w	r3, r3, r2
1a000af0:	fbb3 f3f5 	udiv	r3, r3, r5
1a000af4:	e014      	b.n	1a000b20 <pll_calc_divs+0x4c>
1a000af6:	461c      	mov	r4, r3
1a000af8:	e020      	b.n	1a000b3c <pll_calc_divs+0x68>
1a000afa:	f1cc 0c00 	rsb	ip, ip, #0
1a000afe:	e020      	b.n	1a000b42 <pll_calc_divs+0x6e>
1a000b00:	3201      	adds	r2, #1
1a000b02:	f5b2 7f80 	cmp.w	r2, #256	; 0x100
1a000b06:	dc26      	bgt.n	1a000b56 <pll_calc_divs+0x82>
1a000b08:	680c      	ldr	r4, [r1, #0]
1a000b0a:	f014 0f40 	tst.w	r4, #64	; 0x40
1a000b0e:	d0ec      	beq.n	1a000aea <pll_calc_divs+0x16>
1a000b10:	1c73      	adds	r3, r6, #1
1a000b12:	fa02 fc03 	lsl.w	ip, r2, r3
1a000b16:	694b      	ldr	r3, [r1, #20]
1a000b18:	fb03 f30c 	mul.w	r3, r3, ip
1a000b1c:	fbb3 f3f5 	udiv	r3, r3, r5
1a000b20:	f8df c04c 	ldr.w	ip, [pc, #76]	; 1a000b70 <pll_calc_divs+0x9c>
1a000b24:	4563      	cmp	r3, ip
1a000b26:	d9eb      	bls.n	1a000b00 <pll_calc_divs+0x2c>
1a000b28:	f8df c048 	ldr.w	ip, [pc, #72]	; 1a000b74 <pll_calc_divs+0xa0>
1a000b2c:	4563      	cmp	r3, ip
1a000b2e:	d812      	bhi.n	1a000b56 <pll_calc_divs+0x82>
1a000b30:	f014 0f80 	tst.w	r4, #128	; 0x80
1a000b34:	d1df      	bne.n	1a000af6 <pll_calc_divs+0x22>
1a000b36:	1c74      	adds	r4, r6, #1
1a000b38:	fa23 f404 	lsr.w	r4, r3, r4
1a000b3c:	ebb0 0c04 	subs.w	ip, r0, r4
1a000b40:	d4db      	bmi.n	1a000afa <pll_calc_divs+0x26>
1a000b42:	4567      	cmp	r7, ip
1a000b44:	d9dc      	bls.n	1a000b00 <pll_calc_divs+0x2c>
1a000b46:	608d      	str	r5, [r1, #8]
1a000b48:	1c77      	adds	r7, r6, #1
1a000b4a:	60cf      	str	r7, [r1, #12]
1a000b4c:	610a      	str	r2, [r1, #16]
1a000b4e:	618c      	str	r4, [r1, #24]
1a000b50:	61cb      	str	r3, [r1, #28]
1a000b52:	4667      	mov	r7, ip
1a000b54:	e7d4      	b.n	1a000b00 <pll_calc_divs+0x2c>
1a000b56:	3601      	adds	r6, #1
1a000b58:	2e03      	cmp	r6, #3
1a000b5a:	dc01      	bgt.n	1a000b60 <pll_calc_divs+0x8c>
1a000b5c:	2201      	movs	r2, #1
1a000b5e:	e7d0      	b.n	1a000b02 <pll_calc_divs+0x2e>
1a000b60:	3501      	adds	r5, #1
1a000b62:	2d04      	cmp	r5, #4
1a000b64:	dc01      	bgt.n	1a000b6a <pll_calc_divs+0x96>
1a000b66:	2600      	movs	r6, #0
1a000b68:	e7f6      	b.n	1a000b58 <pll_calc_divs+0x84>
1a000b6a:	bcf0      	pop	{r4, r5, r6, r7}
1a000b6c:	4770      	bx	lr
1a000b6e:	bf00      	nop
1a000b70:	094c5eff 	.word	0x094c5eff
1a000b74:	1312d000 	.word	0x1312d000

1a000b78 <pll_get_frac>:
1a000b78:	b5f0      	push	{r4, r5, r6, r7, lr}
1a000b7a:	b099      	sub	sp, #100	; 0x64
1a000b7c:	4605      	mov	r5, r0
1a000b7e:	460c      	mov	r4, r1
1a000b80:	225c      	movs	r2, #92	; 0x5c
1a000b82:	2100      	movs	r1, #0
1a000b84:	a801      	add	r0, sp, #4
1a000b86:	f001 f91f 	bl	1a001dc8 <memset>
1a000b8a:	2380      	movs	r3, #128	; 0x80
1a000b8c:	9300      	str	r3, [sp, #0]
1a000b8e:	6963      	ldr	r3, [r4, #20]
1a000b90:	9305      	str	r3, [sp, #20]
1a000b92:	7923      	ldrb	r3, [r4, #4]
1a000b94:	f88d 3004 	strb.w	r3, [sp, #4]
1a000b98:	4669      	mov	r1, sp
1a000b9a:	4628      	mov	r0, r5
1a000b9c:	f7ff ff9a 	bl	1a000ad4 <pll_calc_divs>
1a000ba0:	9b06      	ldr	r3, [sp, #24]
1a000ba2:	42ab      	cmp	r3, r5
1a000ba4:	d027      	beq.n	1a000bf6 <pll_get_frac+0x7e>
1a000ba6:	1aeb      	subs	r3, r5, r3
1a000ba8:	d42e      	bmi.n	1a000c08 <pll_get_frac+0x90>
1a000baa:	461e      	mov	r6, r3
1a000bac:	9b10      	ldr	r3, [sp, #64]	; 0x40
1a000bae:	f023 0340 	bic.w	r3, r3, #64	; 0x40
1a000bb2:	9310      	str	r3, [sp, #64]	; 0x40
1a000bb4:	6963      	ldr	r3, [r4, #20]
1a000bb6:	9315      	str	r3, [sp, #84]	; 0x54
1a000bb8:	7923      	ldrb	r3, [r4, #4]
1a000bba:	f88d 3044 	strb.w	r3, [sp, #68]	; 0x44
1a000bbe:	a910      	add	r1, sp, #64	; 0x40
1a000bc0:	4628      	mov	r0, r5
1a000bc2:	f7ff ff87 	bl	1a000ad4 <pll_calc_divs>
1a000bc6:	9b16      	ldr	r3, [sp, #88]	; 0x58
1a000bc8:	42ab      	cmp	r3, r5
1a000bca:	d01f      	beq.n	1a000c0c <pll_get_frac+0x94>
1a000bcc:	1aeb      	subs	r3, r5, r3
1a000bce:	d425      	bmi.n	1a000c1c <pll_get_frac+0xa4>
1a000bd0:	461f      	mov	r7, r3
1a000bd2:	4b2b      	ldr	r3, [pc, #172]	; (1a000c80 <pll_get_frac+0x108>)
1a000bd4:	429d      	cmp	r5, r3
1a000bd6:	d923      	bls.n	1a000c20 <pll_get_frac+0xa8>
1a000bd8:	9b0e      	ldr	r3, [sp, #56]	; 0x38
1a000bda:	1aed      	subs	r5, r5, r3
1a000bdc:	d433      	bmi.n	1a000c46 <pll_get_frac+0xce>
1a000bde:	42ae      	cmp	r6, r5
1a000be0:	dc3b      	bgt.n	1a000c5a <pll_get_frac+0xe2>
1a000be2:	42be      	cmp	r6, r7
1a000be4:	dc31      	bgt.n	1a000c4a <pll_get_frac+0xd2>
1a000be6:	466d      	mov	r5, sp
1a000be8:	cd0f      	ldmia	r5!, {r0, r1, r2, r3}
1a000bea:	c40f      	stmia	r4!, {r0, r1, r2, r3}
1a000bec:	e895 000f 	ldmia.w	r5, {r0, r1, r2, r3}
1a000bf0:	e884 000f 	stmia.w	r4, {r0, r1, r2, r3}
1a000bf4:	e006      	b.n	1a000c04 <pll_get_frac+0x8c>
1a000bf6:	466d      	mov	r5, sp
1a000bf8:	cd0f      	ldmia	r5!, {r0, r1, r2, r3}
1a000bfa:	c40f      	stmia	r4!, {r0, r1, r2, r3}
1a000bfc:	e895 000f 	ldmia.w	r5, {r0, r1, r2, r3}
1a000c00:	e884 000f 	stmia.w	r4, {r0, r1, r2, r3}
1a000c04:	b019      	add	sp, #100	; 0x64
1a000c06:	bdf0      	pop	{r4, r5, r6, r7, pc}
1a000c08:	425b      	negs	r3, r3
1a000c0a:	e7ce      	b.n	1a000baa <pll_get_frac+0x32>
1a000c0c:	ad10      	add	r5, sp, #64	; 0x40
1a000c0e:	cd0f      	ldmia	r5!, {r0, r1, r2, r3}
1a000c10:	c40f      	stmia	r4!, {r0, r1, r2, r3}
1a000c12:	e895 000f 	ldmia.w	r5, {r0, r1, r2, r3}
1a000c16:	e884 000f 	stmia.w	r4, {r0, r1, r2, r3}
1a000c1a:	e7f3      	b.n	1a000c04 <pll_get_frac+0x8c>
1a000c1c:	425b      	negs	r3, r3
1a000c1e:	e7d7      	b.n	1a000bd0 <pll_get_frac+0x58>
1a000c20:	2340      	movs	r3, #64	; 0x40
1a000c22:	9308      	str	r3, [sp, #32]
1a000c24:	6963      	ldr	r3, [r4, #20]
1a000c26:	930d      	str	r3, [sp, #52]	; 0x34
1a000c28:	a908      	add	r1, sp, #32
1a000c2a:	4628      	mov	r0, r5
1a000c2c:	f7ff ff52 	bl	1a000ad4 <pll_calc_divs>
1a000c30:	9b0e      	ldr	r3, [sp, #56]	; 0x38
1a000c32:	42ab      	cmp	r3, r5
1a000c34:	d1d0      	bne.n	1a000bd8 <pll_get_frac+0x60>
1a000c36:	ad08      	add	r5, sp, #32
1a000c38:	cd0f      	ldmia	r5!, {r0, r1, r2, r3}
1a000c3a:	c40f      	stmia	r4!, {r0, r1, r2, r3}
1a000c3c:	e895 000f 	ldmia.w	r5, {r0, r1, r2, r3}
1a000c40:	e884 000f 	stmia.w	r4, {r0, r1, r2, r3}
1a000c44:	e7de      	b.n	1a000c04 <pll_get_frac+0x8c>
1a000c46:	426d      	negs	r5, r5
1a000c48:	e7c9      	b.n	1a000bde <pll_get_frac+0x66>
1a000c4a:	ad10      	add	r5, sp, #64	; 0x40
1a000c4c:	cd0f      	ldmia	r5!, {r0, r1, r2, r3}
1a000c4e:	c40f      	stmia	r4!, {r0, r1, r2, r3}
1a000c50:	e895 000f 	ldmia.w	r5, {r0, r1, r2, r3}
1a000c54:	e884 000f 	stmia.w	r4, {r0, r1, r2, r3}
1a000c58:	e7d4      	b.n	1a000c04 <pll_get_frac+0x8c>
1a000c5a:	42af      	cmp	r7, r5
1a000c5c:	db07      	blt.n	1a000c6e <pll_get_frac+0xf6>
1a000c5e:	ad08      	add	r5, sp, #32
1a000c60:	cd0f      	ldmia	r5!, {r0, r1, r2, r3}
1a000c62:	c40f      	stmia	r4!, {r0, r1, r2, r3}
1a000c64:	e895 000f 	ldmia.w	r5, {r0, r1, r2, r3}
1a000c68:	e884 000f 	stmia.w	r4, {r0, r1, r2, r3}
1a000c6c:	e7ca      	b.n	1a000c04 <pll_get_frac+0x8c>
1a000c6e:	ad10      	add	r5, sp, #64	; 0x40
1a000c70:	cd0f      	ldmia	r5!, {r0, r1, r2, r3}
1a000c72:	c40f      	stmia	r4!, {r0, r1, r2, r3}
1a000c74:	e895 000f 	ldmia.w	r5, {r0, r1, r2, r3}
1a000c78:	e884 000f 	stmia.w	r4, {r0, r1, r2, r3}
1a000c7c:	e7c2      	b.n	1a000c04 <pll_get_frac+0x8c>
1a000c7e:	bf00      	nop
1a000c80:	068e7780 	.word	0x068e7780

1a000c84 <Chip_Clock_FindBaseClock>:
1a000c84:	b430      	push	{r4, r5}
1a000c86:	4605      	mov	r5, r0
1a000c88:	2300      	movs	r3, #0
1a000c8a:	201c      	movs	r0, #28
1a000c8c:	e000      	b.n	1a000c90 <Chip_Clock_FindBaseClock+0xc>
1a000c8e:	3301      	adds	r3, #1
1a000c90:	281c      	cmp	r0, #28
1a000c92:	d118      	bne.n	1a000cc6 <Chip_Clock_FindBaseClock+0x42>
1a000c94:	eb03 0243 	add.w	r2, r3, r3, lsl #1
1a000c98:	0051      	lsls	r1, r2, #1
1a000c9a:	4a0c      	ldr	r2, [pc, #48]	; (1a000ccc <Chip_Clock_FindBaseClock+0x48>)
1a000c9c:	440a      	add	r2, r1
1a000c9e:	7914      	ldrb	r4, [r2, #4]
1a000ca0:	4284      	cmp	r4, r0
1a000ca2:	d010      	beq.n	1a000cc6 <Chip_Clock_FindBaseClock+0x42>
1a000ca4:	eb03 0143 	add.w	r1, r3, r3, lsl #1
1a000ca8:	004a      	lsls	r2, r1, #1
1a000caa:	4908      	ldr	r1, [pc, #32]	; (1a000ccc <Chip_Clock_FindBaseClock+0x48>)
1a000cac:	5a8a      	ldrh	r2, [r1, r2]
1a000cae:	42aa      	cmp	r2, r5
1a000cb0:	d8ed      	bhi.n	1a000c8e <Chip_Clock_FindBaseClock+0xa>
1a000cb2:	eb03 0243 	add.w	r2, r3, r3, lsl #1
1a000cb6:	0051      	lsls	r1, r2, #1
1a000cb8:	4a04      	ldr	r2, [pc, #16]	; (1a000ccc <Chip_Clock_FindBaseClock+0x48>)
1a000cba:	440a      	add	r2, r1
1a000cbc:	8852      	ldrh	r2, [r2, #2]
1a000cbe:	42aa      	cmp	r2, r5
1a000cc0:	d3e5      	bcc.n	1a000c8e <Chip_Clock_FindBaseClock+0xa>
1a000cc2:	4620      	mov	r0, r4
1a000cc4:	e7e4      	b.n	1a000c90 <Chip_Clock_FindBaseClock+0xc>
1a000cc6:	bc30      	pop	{r4, r5}
1a000cc8:	4770      	bx	lr
1a000cca:	bf00      	nop
1a000ccc:	1a001ea4 	.word	0x1a001ea4

1a000cd0 <Chip_Clock_EnableCrystal>:
1a000cd0:	b082      	sub	sp, #8
1a000cd2:	f44f 737a 	mov.w	r3, #1000	; 0x3e8
1a000cd6:	9301      	str	r3, [sp, #4]
1a000cd8:	4a0d      	ldr	r2, [pc, #52]	; (1a000d10 <Chip_Clock_EnableCrystal+0x40>)
1a000cda:	6993      	ldr	r3, [r2, #24]
1a000cdc:	f023 0102 	bic.w	r1, r3, #2
1a000ce0:	6992      	ldr	r2, [r2, #24]
1a000ce2:	428a      	cmp	r2, r1
1a000ce4:	d001      	beq.n	1a000cea <Chip_Clock_EnableCrystal+0x1a>
1a000ce6:	4a0a      	ldr	r2, [pc, #40]	; (1a000d10 <Chip_Clock_EnableCrystal+0x40>)
1a000ce8:	6191      	str	r1, [r2, #24]
1a000cea:	f023 0303 	bic.w	r3, r3, #3
1a000cee:	4a09      	ldr	r2, [pc, #36]	; (1a000d14 <Chip_Clock_EnableCrystal+0x44>)
1a000cf0:	6811      	ldr	r1, [r2, #0]
1a000cf2:	4a09      	ldr	r2, [pc, #36]	; (1a000d18 <Chip_Clock_EnableCrystal+0x48>)
1a000cf4:	4291      	cmp	r1, r2
1a000cf6:	d901      	bls.n	1a000cfc <Chip_Clock_EnableCrystal+0x2c>
1a000cf8:	f043 0304 	orr.w	r3, r3, #4
1a000cfc:	4a04      	ldr	r2, [pc, #16]	; (1a000d10 <Chip_Clock_EnableCrystal+0x40>)
1a000cfe:	6193      	str	r3, [r2, #24]
1a000d00:	9b01      	ldr	r3, [sp, #4]
1a000d02:	1e5a      	subs	r2, r3, #1
1a000d04:	9201      	str	r2, [sp, #4]
1a000d06:	2b00      	cmp	r3, #0
1a000d08:	d1fa      	bne.n	1a000d00 <Chip_Clock_EnableCrystal+0x30>
1a000d0a:	b002      	add	sp, #8
1a000d0c:	4770      	bx	lr
1a000d0e:	bf00      	nop
1a000d10:	40050000 	.word	0x40050000
1a000d14:	1a001e0c 	.word	0x1a001e0c
1a000d18:	01312cff 	.word	0x01312cff

1a000d1c <Chip_Clock_GetDividerSource>:
1a000d1c:	3012      	adds	r0, #18
1a000d1e:	4b05      	ldr	r3, [pc, #20]	; (1a000d34 <Chip_Clock_GetDividerSource+0x18>)
1a000d20:	f853 0020 	ldr.w	r0, [r3, r0, lsl #2]
1a000d24:	f010 0f01 	tst.w	r0, #1
1a000d28:	d102      	bne.n	1a000d30 <Chip_Clock_GetDividerSource+0x14>
1a000d2a:	f3c0 6004 	ubfx	r0, r0, #24, #5
1a000d2e:	4770      	bx	lr
1a000d30:	2011      	movs	r0, #17
1a000d32:	4770      	bx	lr
1a000d34:	40050000 	.word	0x40050000

1a000d38 <Chip_Clock_GetDividerDivisor>:
1a000d38:	f100 0212 	add.w	r2, r0, #18
1a000d3c:	4b03      	ldr	r3, [pc, #12]	; (1a000d4c <Chip_Clock_GetDividerDivisor+0x14>)
1a000d3e:	f853 2022 	ldr.w	r2, [r3, r2, lsl #2]
1a000d42:	4b03      	ldr	r3, [pc, #12]	; (1a000d50 <Chip_Clock_GetDividerDivisor+0x18>)
1a000d44:	5c18      	ldrb	r0, [r3, r0]
1a000d46:	ea00 0092 	and.w	r0, r0, r2, lsr #2
1a000d4a:	4770      	bx	lr
1a000d4c:	40050000 	.word	0x40050000
1a000d50:	1a001e9c 	.word	0x1a001e9c

1a000d54 <Chip_Clock_GetClockInputHz>:
1a000d54:	b508      	push	{r3, lr}
1a000d56:	2810      	cmp	r0, #16
1a000d58:	d80a      	bhi.n	1a000d70 <Chip_Clock_GetClockInputHz+0x1c>
1a000d5a:	e8df f000 	tbb	[pc, r0]
1a000d5e:	0b42      	.short	0x0b42
1a000d60:	091f160d 	.word	0x091f160d
1a000d64:	2b282522 	.word	0x2b282522
1a000d68:	322e0909 	.word	0x322e0909
1a000d6c:	3a36      	.short	0x3a36
1a000d6e:	3e          	.byte	0x3e
1a000d6f:	00          	.byte	0x00
1a000d70:	2000      	movs	r0, #0
1a000d72:	e038      	b.n	1a000de6 <Chip_Clock_GetClockInputHz+0x92>
1a000d74:	481e      	ldr	r0, [pc, #120]	; (1a000df0 <Chip_Clock_GetClockInputHz+0x9c>)
1a000d76:	e036      	b.n	1a000de6 <Chip_Clock_GetClockInputHz+0x92>
1a000d78:	4b1e      	ldr	r3, [pc, #120]	; (1a000df4 <Chip_Clock_GetClockInputHz+0xa0>)
1a000d7a:	f8d3 312c 	ldr.w	r3, [r3, #300]	; 0x12c
1a000d7e:	f003 0307 	and.w	r3, r3, #7
1a000d82:	2b04      	cmp	r3, #4
1a000d84:	d130      	bne.n	1a000de8 <Chip_Clock_GetClockInputHz+0x94>
1a000d86:	2000      	movs	r0, #0
1a000d88:	e02d      	b.n	1a000de6 <Chip_Clock_GetClockInputHz+0x92>
1a000d8a:	4b1a      	ldr	r3, [pc, #104]	; (1a000df4 <Chip_Clock_GetClockInputHz+0xa0>)
1a000d8c:	f8d3 312c 	ldr.w	r3, [r3, #300]	; 0x12c
1a000d90:	f003 0307 	and.w	r3, r3, #7
1a000d94:	2b04      	cmp	r3, #4
1a000d96:	d029      	beq.n	1a000dec <Chip_Clock_GetClockInputHz+0x98>
1a000d98:	4817      	ldr	r0, [pc, #92]	; (1a000df8 <Chip_Clock_GetClockInputHz+0xa4>)
1a000d9a:	e024      	b.n	1a000de6 <Chip_Clock_GetClockInputHz+0x92>
1a000d9c:	4b17      	ldr	r3, [pc, #92]	; (1a000dfc <Chip_Clock_GetClockInputHz+0xa8>)
1a000d9e:	6818      	ldr	r0, [r3, #0]
1a000da0:	e021      	b.n	1a000de6 <Chip_Clock_GetClockInputHz+0x92>
1a000da2:	4b17      	ldr	r3, [pc, #92]	; (1a000e00 <Chip_Clock_GetClockInputHz+0xac>)
1a000da4:	6818      	ldr	r0, [r3, #0]
1a000da6:	e01e      	b.n	1a000de6 <Chip_Clock_GetClockInputHz+0x92>
1a000da8:	4b16      	ldr	r3, [pc, #88]	; (1a000e04 <Chip_Clock_GetClockInputHz+0xb0>)
1a000daa:	6818      	ldr	r0, [r3, #0]
1a000dac:	e01b      	b.n	1a000de6 <Chip_Clock_GetClockInputHz+0x92>
1a000dae:	4b15      	ldr	r3, [pc, #84]	; (1a000e04 <Chip_Clock_GetClockInputHz+0xb0>)
1a000db0:	6858      	ldr	r0, [r3, #4]
1a000db2:	e018      	b.n	1a000de6 <Chip_Clock_GetClockInputHz+0x92>
1a000db4:	f000 f86a 	bl	1a000e8c <Chip_Clock_GetMainPLLHz>
1a000db8:	e015      	b.n	1a000de6 <Chip_Clock_GetClockInputHz+0x92>
1a000dba:	2100      	movs	r1, #0
1a000dbc:	f000 f89c 	bl	1a000ef8 <Chip_Clock_GetDivRate>
1a000dc0:	e011      	b.n	1a000de6 <Chip_Clock_GetClockInputHz+0x92>
1a000dc2:	2101      	movs	r1, #1
1a000dc4:	f000 f898 	bl	1a000ef8 <Chip_Clock_GetDivRate>
1a000dc8:	e00d      	b.n	1a000de6 <Chip_Clock_GetClockInputHz+0x92>
1a000dca:	2102      	movs	r1, #2
1a000dcc:	f000 f894 	bl	1a000ef8 <Chip_Clock_GetDivRate>
1a000dd0:	e009      	b.n	1a000de6 <Chip_Clock_GetClockInputHz+0x92>
1a000dd2:	2103      	movs	r1, #3
1a000dd4:	f000 f890 	bl	1a000ef8 <Chip_Clock_GetDivRate>
1a000dd8:	e005      	b.n	1a000de6 <Chip_Clock_GetClockInputHz+0x92>
1a000dda:	2104      	movs	r1, #4
1a000ddc:	f000 f88c 	bl	1a000ef8 <Chip_Clock_GetDivRate>
1a000de0:	e001      	b.n	1a000de6 <Chip_Clock_GetClockInputHz+0x92>
1a000de2:	f44f 4000 	mov.w	r0, #32768	; 0x8000
1a000de6:	bd08      	pop	{r3, pc}
1a000de8:	4803      	ldr	r0, [pc, #12]	; (1a000df8 <Chip_Clock_GetClockInputHz+0xa4>)
1a000dea:	e7fc      	b.n	1a000de6 <Chip_Clock_GetClockInputHz+0x92>
1a000dec:	4806      	ldr	r0, [pc, #24]	; (1a000e08 <Chip_Clock_GetClockInputHz+0xb4>)
1a000dee:	e7fa      	b.n	1a000de6 <Chip_Clock_GetClockInputHz+0x92>
1a000df0:	00b71b00 	.word	0x00b71b00
1a000df4:	40043000 	.word	0x40043000
1a000df8:	017d7840 	.word	0x017d7840
1a000dfc:	1a001de0 	.word	0x1a001de0
1a000e00:	1a001e0c 	.word	0x1a001e0c
1a000e04:	10000054 	.word	0x10000054
1a000e08:	02faf080 	.word	0x02faf080

1a000e0c <Chip_Clock_CalcMainPLLValue>:
1a000e0c:	b538      	push	{r3, r4, r5, lr}
1a000e0e:	4605      	mov	r5, r0
1a000e10:	460c      	mov	r4, r1
1a000e12:	7908      	ldrb	r0, [r1, #4]
1a000e14:	f7ff ff9e 	bl	1a000d54 <Chip_Clock_GetClockInputHz>
1a000e18:	6160      	str	r0, [r4, #20]
1a000e1a:	4b19      	ldr	r3, [pc, #100]	; (1a000e80 <Chip_Clock_CalcMainPLLValue+0x74>)
1a000e1c:	442b      	add	r3, r5
1a000e1e:	4a19      	ldr	r2, [pc, #100]	; (1a000e84 <Chip_Clock_CalcMainPLLValue+0x78>)
1a000e20:	4293      	cmp	r3, r2
1a000e22:	d821      	bhi.n	1a000e68 <Chip_Clock_CalcMainPLLValue+0x5c>
1a000e24:	b318      	cbz	r0, 1a000e6e <Chip_Clock_CalcMainPLLValue+0x62>
1a000e26:	2380      	movs	r3, #128	; 0x80
1a000e28:	6023      	str	r3, [r4, #0]
1a000e2a:	2300      	movs	r3, #0
1a000e2c:	60a3      	str	r3, [r4, #8]
1a000e2e:	60e3      	str	r3, [r4, #12]
1a000e30:	fbb5 f3f0 	udiv	r3, r5, r0
1a000e34:	6123      	str	r3, [r4, #16]
1a000e36:	4a14      	ldr	r2, [pc, #80]	; (1a000e88 <Chip_Clock_CalcMainPLLValue+0x7c>)
1a000e38:	4295      	cmp	r5, r2
1a000e3a:	d903      	bls.n	1a000e44 <Chip_Clock_CalcMainPLLValue+0x38>
1a000e3c:	fb03 f000 	mul.w	r0, r3, r0
1a000e40:	42a8      	cmp	r0, r5
1a000e42:	d007      	beq.n	1a000e54 <Chip_Clock_CalcMainPLLValue+0x48>
1a000e44:	4621      	mov	r1, r4
1a000e46:	4628      	mov	r0, r5
1a000e48:	f7ff fe96 	bl	1a000b78 <pll_get_frac>
1a000e4c:	68a3      	ldr	r3, [r4, #8]
1a000e4e:	b18b      	cbz	r3, 1a000e74 <Chip_Clock_CalcMainPLLValue+0x68>
1a000e50:	3b01      	subs	r3, #1
1a000e52:	60a3      	str	r3, [r4, #8]
1a000e54:	6923      	ldr	r3, [r4, #16]
1a000e56:	b183      	cbz	r3, 1a000e7a <Chip_Clock_CalcMainPLLValue+0x6e>
1a000e58:	68e2      	ldr	r2, [r4, #12]
1a000e5a:	b10a      	cbz	r2, 1a000e60 <Chip_Clock_CalcMainPLLValue+0x54>
1a000e5c:	3a01      	subs	r2, #1
1a000e5e:	60e2      	str	r2, [r4, #12]
1a000e60:	3b01      	subs	r3, #1
1a000e62:	6123      	str	r3, [r4, #16]
1a000e64:	2000      	movs	r0, #0
1a000e66:	bd38      	pop	{r3, r4, r5, pc}
1a000e68:	f04f 30ff 	mov.w	r0, #4294967295	; 0xffffffff
1a000e6c:	e7fb      	b.n	1a000e66 <Chip_Clock_CalcMainPLLValue+0x5a>
1a000e6e:	f04f 30ff 	mov.w	r0, #4294967295	; 0xffffffff
1a000e72:	e7f8      	b.n	1a000e66 <Chip_Clock_CalcMainPLLValue+0x5a>
1a000e74:	f04f 30ff 	mov.w	r0, #4294967295	; 0xffffffff
1a000e78:	e7f5      	b.n	1a000e66 <Chip_Clock_CalcMainPLLValue+0x5a>
1a000e7a:	f04f 30ff 	mov.w	r0, #4294967295	; 0xffffffff
1a000e7e:	e7f2      	b.n	1a000e66 <Chip_Clock_CalcMainPLLValue+0x5a>
1a000e80:	ff6b3a10 	.word	0xff6b3a10
1a000e84:	0b940510 	.word	0x0b940510
1a000e88:	094c5eff 	.word	0x094c5eff

1a000e8c <Chip_Clock_GetMainPLLHz>:
1a000e8c:	b530      	push	{r4, r5, lr}
1a000e8e:	b083      	sub	sp, #12
1a000e90:	4d17      	ldr	r5, [pc, #92]	; (1a000ef0 <Chip_Clock_GetMainPLLHz+0x64>)
1a000e92:	6c6c      	ldr	r4, [r5, #68]	; 0x44
1a000e94:	f3c4 6003 	ubfx	r0, r4, #24, #4
1a000e98:	f7ff ff5c 	bl	1a000d54 <Chip_Clock_GetClockInputHz>
1a000e9c:	4b15      	ldr	r3, [pc, #84]	; (1a000ef4 <Chip_Clock_GetMainPLLHz+0x68>)
1a000e9e:	681b      	ldr	r3, [r3, #0]
1a000ea0:	9301      	str	r3, [sp, #4]
1a000ea2:	6c2b      	ldr	r3, [r5, #64]	; 0x40
1a000ea4:	f013 0f01 	tst.w	r3, #1
1a000ea8:	d01f      	beq.n	1a000eea <Chip_Clock_GetMainPLLHz+0x5e>
1a000eaa:	f3c4 4307 	ubfx	r3, r4, #16, #8
1a000eae:	f3c4 3201 	ubfx	r2, r4, #12, #2
1a000eb2:	f3c4 2101 	ubfx	r1, r4, #8, #2
1a000eb6:	f3c4 1580 	ubfx	r5, r4, #6, #1
1a000eba:	3301      	adds	r3, #1
1a000ebc:	3201      	adds	r2, #1
1a000ebe:	f10d 0c08 	add.w	ip, sp, #8
1a000ec2:	4461      	add	r1, ip
1a000ec4:	f811 1c04 	ldrb.w	r1, [r1, #-4]
1a000ec8:	f014 0f80 	tst.w	r4, #128	; 0x80
1a000ecc:	d108      	bne.n	1a000ee0 <Chip_Clock_GetMainPLLHz+0x54>
1a000ece:	b93d      	cbnz	r5, 1a000ee0 <Chip_Clock_GetMainPLLHz+0x54>
1a000ed0:	0049      	lsls	r1, r1, #1
1a000ed2:	fbb3 f3f1 	udiv	r3, r3, r1
1a000ed6:	fbb0 f0f2 	udiv	r0, r0, r2
1a000eda:	fb00 f003 	mul.w	r0, r0, r3
1a000ede:	e005      	b.n	1a000eec <Chip_Clock_GetMainPLLHz+0x60>
1a000ee0:	fbb0 f0f2 	udiv	r0, r0, r2
1a000ee4:	fb03 f000 	mul.w	r0, r3, r0
1a000ee8:	e000      	b.n	1a000eec <Chip_Clock_GetMainPLLHz+0x60>
1a000eea:	2000      	movs	r0, #0
1a000eec:	b003      	add	sp, #12
1a000eee:	bd30      	pop	{r4, r5, pc}
1a000ef0:	40050000 	.word	0x40050000
1a000ef4:	1a001e98 	.word	0x1a001e98

1a000ef8 <Chip_Clock_GetDivRate>:
1a000ef8:	b538      	push	{r3, r4, r5, lr}
1a000efa:	460c      	mov	r4, r1
1a000efc:	4608      	mov	r0, r1
1a000efe:	f7ff ff0d 	bl	1a000d1c <Chip_Clock_GetDividerSource>
1a000f02:	4605      	mov	r5, r0
1a000f04:	4620      	mov	r0, r4
1a000f06:	f7ff ff17 	bl	1a000d38 <Chip_Clock_GetDividerDivisor>
1a000f0a:	4604      	mov	r4, r0
1a000f0c:	4628      	mov	r0, r5
1a000f0e:	f7ff ff21 	bl	1a000d54 <Chip_Clock_GetClockInputHz>
1a000f12:	3401      	adds	r4, #1
1a000f14:	fbb0 f0f4 	udiv	r0, r0, r4
1a000f18:	bd38      	pop	{r3, r4, r5, pc}
1a000f1a:	Address 0x000000001a000f1a is out of bounds.


1a000f1c <Chip_Clock_SetBaseClock>:
1a000f1c:	b430      	push	{r4, r5}
1a000f1e:	f100 0416 	add.w	r4, r0, #22
1a000f22:	00a4      	lsls	r4, r4, #2
1a000f24:	f104 4480 	add.w	r4, r4, #1073741824	; 0x40000000
1a000f28:	f504 24a0 	add.w	r4, r4, #327680	; 0x50000
1a000f2c:	6864      	ldr	r4, [r4, #4]
1a000f2e:	281b      	cmp	r0, #27
1a000f30:	d813      	bhi.n	1a000f5a <Chip_Clock_SetBaseClock+0x3e>
1a000f32:	2911      	cmp	r1, #17
1a000f34:	d01a      	beq.n	1a000f6c <Chip_Clock_SetBaseClock+0x50>
1a000f36:	4d0e      	ldr	r5, [pc, #56]	; (1a000f70 <Chip_Clock_SetBaseClock+0x54>)
1a000f38:	4025      	ands	r5, r4
1a000f3a:	b10a      	cbz	r2, 1a000f40 <Chip_Clock_SetBaseClock+0x24>
1a000f3c:	f445 6500 	orr.w	r5, r5, #2048	; 0x800
1a000f40:	b10b      	cbz	r3, 1a000f46 <Chip_Clock_SetBaseClock+0x2a>
1a000f42:	f045 0501 	orr.w	r5, r5, #1
1a000f46:	ea45 6501 	orr.w	r5, r5, r1, lsl #24
1a000f4a:	3016      	adds	r0, #22
1a000f4c:	0080      	lsls	r0, r0, #2
1a000f4e:	f100 4080 	add.w	r0, r0, #1073741824	; 0x40000000
1a000f52:	f500 20a0 	add.w	r0, r0, #327680	; 0x50000
1a000f56:	6045      	str	r5, [r0, #4]
1a000f58:	e008      	b.n	1a000f6c <Chip_Clock_SetBaseClock+0x50>
1a000f5a:	f044 0401 	orr.w	r4, r4, #1
1a000f5e:	3016      	adds	r0, #22
1a000f60:	0080      	lsls	r0, r0, #2
1a000f62:	f100 4080 	add.w	r0, r0, #1073741824	; 0x40000000
1a000f66:	f500 20a0 	add.w	r0, r0, #327680	; 0x50000
1a000f6a:	6044      	str	r4, [r0, #4]
1a000f6c:	bc30      	pop	{r4, r5}
1a000f6e:	4770      	bx	lr
1a000f70:	e0fff7fe 	.word	0xe0fff7fe

1a000f74 <Chip_Clock_GetBaseClock>:
1a000f74:	281b      	cmp	r0, #27
1a000f76:	d80c      	bhi.n	1a000f92 <Chip_Clock_GetBaseClock+0x1e>
1a000f78:	3016      	adds	r0, #22
1a000f7a:	0080      	lsls	r0, r0, #2
1a000f7c:	f100 4080 	add.w	r0, r0, #1073741824	; 0x40000000
1a000f80:	f500 20a0 	add.w	r0, r0, #327680	; 0x50000
1a000f84:	6840      	ldr	r0, [r0, #4]
1a000f86:	f010 0f01 	tst.w	r0, #1
1a000f8a:	d104      	bne.n	1a000f96 <Chip_Clock_GetBaseClock+0x22>
1a000f8c:	f3c0 6004 	ubfx	r0, r0, #24, #5
1a000f90:	4770      	bx	lr
1a000f92:	2011      	movs	r0, #17
1a000f94:	4770      	bx	lr
1a000f96:	2011      	movs	r0, #17
1a000f98:	4770      	bx	lr

1a000f9a <Chip_Clock_GetBaseClocktHz>:
1a000f9a:	b508      	push	{r3, lr}
1a000f9c:	f7ff ffea 	bl	1a000f74 <Chip_Clock_GetBaseClock>
1a000fa0:	f7ff fed8 	bl	1a000d54 <Chip_Clock_GetClockInputHz>
1a000fa4:	bd08      	pop	{r3, pc}
1a000fa6:	Address 0x000000001a000fa6 is out of bounds.


1a000fa8 <Chip_Clock_EnableOpts>:
1a000fa8:	b969      	cbnz	r1, 1a000fc6 <Chip_Clock_EnableOpts+0x1e>
1a000faa:	2101      	movs	r1, #1
1a000fac:	b10a      	cbz	r2, 1a000fb2 <Chip_Clock_EnableOpts+0xa>
1a000fae:	f041 0104 	orr.w	r1, r1, #4
1a000fb2:	2b02      	cmp	r3, #2
1a000fb4:	d009      	beq.n	1a000fca <Chip_Clock_EnableOpts+0x22>
1a000fb6:	f5b0 7fa1 	cmp.w	r0, #322	; 0x142
1a000fba:	d209      	bcs.n	1a000fd0 <Chip_Clock_EnableOpts+0x28>
1a000fbc:	3020      	adds	r0, #32
1a000fbe:	4b07      	ldr	r3, [pc, #28]	; (1a000fdc <Chip_Clock_EnableOpts+0x34>)
1a000fc0:	f843 1030 	str.w	r1, [r3, r0, lsl #3]
1a000fc4:	4770      	bx	lr
1a000fc6:	2103      	movs	r1, #3
1a000fc8:	e7f0      	b.n	1a000fac <Chip_Clock_EnableOpts+0x4>
1a000fca:	f041 0120 	orr.w	r1, r1, #32
1a000fce:	e7f2      	b.n	1a000fb6 <Chip_Clock_EnableOpts+0xe>
1a000fd0:	f5a0 7091 	sub.w	r0, r0, #290	; 0x122
1a000fd4:	4b02      	ldr	r3, [pc, #8]	; (1a000fe0 <Chip_Clock_EnableOpts+0x38>)
1a000fd6:	f843 1030 	str.w	r1, [r3, r0, lsl #3]
1a000fda:	4770      	bx	lr
1a000fdc:	40051000 	.word	0x40051000
1a000fe0:	40052000 	.word	0x40052000

1a000fe4 <Chip_Clock_Enable>:
1a000fe4:	f5b0 7fa1 	cmp.w	r0, #322	; 0x142
1a000fe8:	d208      	bcs.n	1a000ffc <Chip_Clock_Enable+0x18>
1a000fea:	4a09      	ldr	r2, [pc, #36]	; (1a001010 <Chip_Clock_Enable+0x2c>)
1a000fec:	3020      	adds	r0, #32
1a000fee:	f852 3030 	ldr.w	r3, [r2, r0, lsl #3]
1a000ff2:	f043 0301 	orr.w	r3, r3, #1
1a000ff6:	f842 3030 	str.w	r3, [r2, r0, lsl #3]
1a000ffa:	4770      	bx	lr
1a000ffc:	4a05      	ldr	r2, [pc, #20]	; (1a001014 <Chip_Clock_Enable+0x30>)
1a000ffe:	f5a0 7091 	sub.w	r0, r0, #290	; 0x122
1a001002:	f852 3030 	ldr.w	r3, [r2, r0, lsl #3]
1a001006:	f043 0301 	orr.w	r3, r3, #1
1a00100a:	f842 3030 	str.w	r3, [r2, r0, lsl #3]
1a00100e:	4770      	bx	lr
1a001010:	40051000 	.word	0x40051000
1a001014:	40052000 	.word	0x40052000

1a001018 <Chip_Clock_Disable>:
1a001018:	f5b0 7fa1 	cmp.w	r0, #322	; 0x142
1a00101c:	d208      	bcs.n	1a001030 <Chip_Clock_Disable+0x18>
1a00101e:	4a09      	ldr	r2, [pc, #36]	; (1a001044 <Chip_Clock_Disable+0x2c>)
1a001020:	3020      	adds	r0, #32
1a001022:	f852 3030 	ldr.w	r3, [r2, r0, lsl #3]
1a001026:	f023 0301 	bic.w	r3, r3, #1
1a00102a:	f842 3030 	str.w	r3, [r2, r0, lsl #3]
1a00102e:	4770      	bx	lr
1a001030:	4a05      	ldr	r2, [pc, #20]	; (1a001048 <Chip_Clock_Disable+0x30>)
1a001032:	f5a0 7091 	sub.w	r0, r0, #290	; 0x122
1a001036:	f852 3030 	ldr.w	r3, [r2, r0, lsl #3]
1a00103a:	f023 0301 	bic.w	r3, r3, #1
1a00103e:	f842 3030 	str.w	r3, [r2, r0, lsl #3]
1a001042:	4770      	bx	lr
1a001044:	40051000 	.word	0x40051000
1a001048:	40052000 	.word	0x40052000

1a00104c <Chip_Clock_GetRate>:
1a00104c:	b510      	push	{r4, lr}
1a00104e:	f5b0 7fa1 	cmp.w	r0, #322	; 0x142
1a001052:	d309      	bcc.n	1a001068 <Chip_Clock_GetRate+0x1c>
1a001054:	f5a0 7391 	sub.w	r3, r0, #290	; 0x122
1a001058:	4a0d      	ldr	r2, [pc, #52]	; (1a001090 <Chip_Clock_GetRate+0x44>)
1a00105a:	f852 4033 	ldr.w	r4, [r2, r3, lsl #3]
1a00105e:	f014 0f01 	tst.w	r4, #1
1a001062:	d107      	bne.n	1a001074 <Chip_Clock_GetRate+0x28>
1a001064:	2000      	movs	r0, #0
1a001066:	bd10      	pop	{r4, pc}
1a001068:	f100 0320 	add.w	r3, r0, #32
1a00106c:	4a09      	ldr	r2, [pc, #36]	; (1a001094 <Chip_Clock_GetRate+0x48>)
1a00106e:	f852 4033 	ldr.w	r4, [r2, r3, lsl #3]
1a001072:	e7f4      	b.n	1a00105e <Chip_Clock_GetRate+0x12>
1a001074:	f7ff fe06 	bl	1a000c84 <Chip_Clock_FindBaseClock>
1a001078:	f7ff ff8f 	bl	1a000f9a <Chip_Clock_GetBaseClocktHz>
1a00107c:	f014 0fe0 	tst.w	r4, #224	; 0xe0
1a001080:	d103      	bne.n	1a00108a <Chip_Clock_GetRate+0x3e>
1a001082:	2301      	movs	r3, #1
1a001084:	fbb0 f0f3 	udiv	r0, r0, r3
1a001088:	e7ed      	b.n	1a001066 <Chip_Clock_GetRate+0x1a>
1a00108a:	2302      	movs	r3, #2
1a00108c:	e7fa      	b.n	1a001084 <Chip_Clock_GetRate+0x38>
1a00108e:	bf00      	nop
1a001090:	40052000 	.word	0x40052000
1a001094:	40051000 	.word	0x40051000

1a001098 <Chip_SetupCoreClock>:
1a001098:	b570      	push	{r4, r5, r6, lr}
1a00109a:	b08a      	sub	sp, #40	; 0x28
1a00109c:	4605      	mov	r5, r0
1a00109e:	460e      	mov	r6, r1
1a0010a0:	4614      	mov	r4, r2
1a0010a2:	f24c 3350 	movw	r3, #50000	; 0xc350
1a0010a6:	9309      	str	r3, [sp, #36]	; 0x24
1a0010a8:	2806      	cmp	r0, #6
1a0010aa:	d018      	beq.n	1a0010de <Chip_SetupCoreClock+0x46>
1a0010ac:	2300      	movs	r3, #0
1a0010ae:	2201      	movs	r2, #1
1a0010b0:	4629      	mov	r1, r5
1a0010b2:	2004      	movs	r0, #4
1a0010b4:	f7ff ff32 	bl	1a000f1c <Chip_Clock_SetBaseClock>
1a0010b8:	4a49      	ldr	r2, [pc, #292]	; (1a0011e0 <Chip_SetupCoreClock+0x148>)
1a0010ba:	6c53      	ldr	r3, [r2, #68]	; 0x44
1a0010bc:	f043 0301 	orr.w	r3, r3, #1
1a0010c0:	6453      	str	r3, [r2, #68]	; 0x44
1a0010c2:	f88d 5008 	strb.w	r5, [sp, #8]
1a0010c6:	a901      	add	r1, sp, #4
1a0010c8:	4630      	mov	r0, r6
1a0010ca:	f7ff fe9f 	bl	1a000e0c <Chip_Clock_CalcMainPLLValue>
1a0010ce:	4b45      	ldr	r3, [pc, #276]	; (1a0011e4 <Chip_SetupCoreClock+0x14c>)
1a0010d0:	429e      	cmp	r6, r3
1a0010d2:	d916      	bls.n	1a001102 <Chip_SetupCoreClock+0x6a>
1a0010d4:	9b01      	ldr	r3, [sp, #4]
1a0010d6:	f013 0f40 	tst.w	r3, #64	; 0x40
1a0010da:	d003      	beq.n	1a0010e4 <Chip_SetupCoreClock+0x4c>
1a0010dc:	e7fe      	b.n	1a0010dc <Chip_SetupCoreClock+0x44>
1a0010de:	f7ff fdf7 	bl	1a000cd0 <Chip_Clock_EnableCrystal>
1a0010e2:	e7e3      	b.n	1a0010ac <Chip_SetupCoreClock+0x14>
1a0010e4:	f013 0f80 	tst.w	r3, #128	; 0x80
1a0010e8:	d005      	beq.n	1a0010f6 <Chip_SetupCoreClock+0x5e>
1a0010ea:	f023 0380 	bic.w	r3, r3, #128	; 0x80
1a0010ee:	9301      	str	r3, [sp, #4]
1a0010f0:	2500      	movs	r5, #0
1a0010f2:	2601      	movs	r6, #1
1a0010f4:	e007      	b.n	1a001106 <Chip_SetupCoreClock+0x6e>
1a0010f6:	9b04      	ldr	r3, [sp, #16]
1a0010f8:	3301      	adds	r3, #1
1a0010fa:	9304      	str	r3, [sp, #16]
1a0010fc:	2501      	movs	r5, #1
1a0010fe:	2600      	movs	r6, #0
1a001100:	e001      	b.n	1a001106 <Chip_SetupCoreClock+0x6e>
1a001102:	2500      	movs	r5, #0
1a001104:	462e      	mov	r6, r5
1a001106:	f89d 2008 	ldrb.w	r2, [sp, #8]
1a00110a:	9b01      	ldr	r3, [sp, #4]
1a00110c:	ea43 6302 	orr.w	r3, r3, r2, lsl #24
1a001110:	9a05      	ldr	r2, [sp, #20]
1a001112:	ea43 4302 	orr.w	r3, r3, r2, lsl #16
1a001116:	9a03      	ldr	r2, [sp, #12]
1a001118:	ea43 3302 	orr.w	r3, r3, r2, lsl #12
1a00111c:	9a04      	ldr	r2, [sp, #16]
1a00111e:	ea43 2302 	orr.w	r3, r3, r2, lsl #8
1a001122:	f443 6300 	orr.w	r3, r3, #2048	; 0x800
1a001126:	4a2e      	ldr	r2, [pc, #184]	; (1a0011e0 <Chip_SetupCoreClock+0x148>)
1a001128:	6453      	str	r3, [r2, #68]	; 0x44
1a00112a:	4b2d      	ldr	r3, [pc, #180]	; (1a0011e0 <Chip_SetupCoreClock+0x148>)
1a00112c:	6c1b      	ldr	r3, [r3, #64]	; 0x40
1a00112e:	f013 0f01 	tst.w	r3, #1
1a001132:	d0fa      	beq.n	1a00112a <Chip_SetupCoreClock+0x92>
1a001134:	2300      	movs	r3, #0
1a001136:	2201      	movs	r2, #1
1a001138:	2109      	movs	r1, #9
1a00113a:	2004      	movs	r0, #4
1a00113c:	f7ff feee 	bl	1a000f1c <Chip_Clock_SetBaseClock>
1a001140:	b1fe      	cbz	r6, 1a001182 <Chip_SetupCoreClock+0xea>
1a001142:	f24c 3350 	movw	r3, #50000	; 0xc350
1a001146:	9309      	str	r3, [sp, #36]	; 0x24
1a001148:	9b09      	ldr	r3, [sp, #36]	; 0x24
1a00114a:	1e5a      	subs	r2, r3, #1
1a00114c:	9209      	str	r2, [sp, #36]	; 0x24
1a00114e:	2b00      	cmp	r3, #0
1a001150:	d1fa      	bne.n	1a001148 <Chip_SetupCoreClock+0xb0>
1a001152:	9b01      	ldr	r3, [sp, #4]
1a001154:	f043 0380 	orr.w	r3, r3, #128	; 0x80
1a001158:	9301      	str	r3, [sp, #4]
1a00115a:	f89d 2008 	ldrb.w	r2, [sp, #8]
1a00115e:	ea43 6302 	orr.w	r3, r3, r2, lsl #24
1a001162:	9a05      	ldr	r2, [sp, #20]
1a001164:	ea43 4302 	orr.w	r3, r3, r2, lsl #16
1a001168:	9a03      	ldr	r2, [sp, #12]
1a00116a:	ea43 3302 	orr.w	r3, r3, r2, lsl #12
1a00116e:	9a04      	ldr	r2, [sp, #16]
1a001170:	ea43 2302 	orr.w	r3, r3, r2, lsl #8
1a001174:	f443 6300 	orr.w	r3, r3, #2048	; 0x800
1a001178:	4a19      	ldr	r2, [pc, #100]	; (1a0011e0 <Chip_SetupCoreClock+0x148>)
1a00117a:	6453      	str	r3, [r2, #68]	; 0x44
1a00117c:	b36c      	cbz	r4, 1a0011da <Chip_SetupCoreClock+0x142>
1a00117e:	2400      	movs	r4, #0
1a001180:	e029      	b.n	1a0011d6 <Chip_SetupCoreClock+0x13e>
1a001182:	2d00      	cmp	r5, #0
1a001184:	d0fa      	beq.n	1a00117c <Chip_SetupCoreClock+0xe4>
1a001186:	f24c 3350 	movw	r3, #50000	; 0xc350
1a00118a:	9309      	str	r3, [sp, #36]	; 0x24
1a00118c:	9b09      	ldr	r3, [sp, #36]	; 0x24
1a00118e:	1e5a      	subs	r2, r3, #1
1a001190:	9209      	str	r2, [sp, #36]	; 0x24
1a001192:	2b00      	cmp	r3, #0
1a001194:	d1fa      	bne.n	1a00118c <Chip_SetupCoreClock+0xf4>
1a001196:	9b04      	ldr	r3, [sp, #16]
1a001198:	1e5a      	subs	r2, r3, #1
1a00119a:	9204      	str	r2, [sp, #16]
1a00119c:	f89d 1008 	ldrb.w	r1, [sp, #8]
1a0011a0:	9b01      	ldr	r3, [sp, #4]
1a0011a2:	ea43 6301 	orr.w	r3, r3, r1, lsl #24
1a0011a6:	9905      	ldr	r1, [sp, #20]
1a0011a8:	ea43 4301 	orr.w	r3, r3, r1, lsl #16
1a0011ac:	9903      	ldr	r1, [sp, #12]
1a0011ae:	ea43 3301 	orr.w	r3, r3, r1, lsl #12
1a0011b2:	ea43 2302 	orr.w	r3, r3, r2, lsl #8
1a0011b6:	f443 6300 	orr.w	r3, r3, #2048	; 0x800
1a0011ba:	4a09      	ldr	r2, [pc, #36]	; (1a0011e0 <Chip_SetupCoreClock+0x148>)
1a0011bc:	6453      	str	r3, [r2, #68]	; 0x44
1a0011be:	e7dd      	b.n	1a00117c <Chip_SetupCoreClock+0xe4>
1a0011c0:	4809      	ldr	r0, [pc, #36]	; (1a0011e8 <Chip_SetupCoreClock+0x150>)
1a0011c2:	eb00 0184 	add.w	r1, r0, r4, lsl #2
1a0011c6:	78cb      	ldrb	r3, [r1, #3]
1a0011c8:	788a      	ldrb	r2, [r1, #2]
1a0011ca:	7849      	ldrb	r1, [r1, #1]
1a0011cc:	f810 0024 	ldrb.w	r0, [r0, r4, lsl #2]
1a0011d0:	f7ff fea4 	bl	1a000f1c <Chip_Clock_SetBaseClock>
1a0011d4:	3401      	adds	r4, #1
1a0011d6:	2c11      	cmp	r4, #17
1a0011d8:	d9f2      	bls.n	1a0011c0 <Chip_SetupCoreClock+0x128>
1a0011da:	b00a      	add	sp, #40	; 0x28
1a0011dc:	bd70      	pop	{r4, r5, r6, pc}
1a0011de:	bf00      	nop
1a0011e0:	40050000 	.word	0x40050000
1a0011e4:	068e7780 	.word	0x068e7780
1a0011e8:	1a001f10 	.word	0x1a001f10

1a0011ec <Chip_GPIO_Init>:
1a0011ec:	4770      	bx	lr
1a0011ee:	Address 0x000000001a0011ee is out of bounds.


1a0011f0 <Chip_SSP_GetClockIndex>:
1a0011f0:	4b03      	ldr	r3, [pc, #12]	; (1a001200 <Chip_SSP_GetClockIndex+0x10>)
1a0011f2:	4298      	cmp	r0, r3
1a0011f4:	d001      	beq.n	1a0011fa <Chip_SSP_GetClockIndex+0xa>
1a0011f6:	2083      	movs	r0, #131	; 0x83
1a0011f8:	4770      	bx	lr
1a0011fa:	20a5      	movs	r0, #165	; 0xa5
1a0011fc:	4770      	bx	lr
1a0011fe:	bf00      	nop
1a001200:	400c5000 	.word	0x400c5000

1a001204 <Chip_SSP_GetPeriphClockIndex>:
1a001204:	4b04      	ldr	r3, [pc, #16]	; (1a001218 <Chip_SSP_GetPeriphClockIndex+0x14>)
1a001206:	4298      	cmp	r0, r3
1a001208:	d002      	beq.n	1a001210 <Chip_SSP_GetPeriphClockIndex+0xc>
1a00120a:	f240 2002 	movw	r0, #514	; 0x202
1a00120e:	4770      	bx	lr
1a001210:	f44f 70f1 	mov.w	r0, #482	; 0x1e2
1a001214:	4770      	bx	lr
1a001216:	bf00      	nop
1a001218:	400c5000 	.word	0x400c5000

1a00121c <Chip_SSP_SetClockRate>:
1a00121c:	6803      	ldr	r3, [r0, #0]
1a00121e:	f423 437f 	bic.w	r3, r3, #65280	; 0xff00
1a001222:	0209      	lsls	r1, r1, #8
1a001224:	b289      	uxth	r1, r1
1a001226:	4319      	orrs	r1, r3
1a001228:	6001      	str	r1, [r0, #0]
1a00122a:	6102      	str	r2, [r0, #16]
1a00122c:	4770      	bx	lr

1a00122e <Chip_SSP_SetBitRate>:
1a00122e:	b570      	push	{r4, r5, r6, lr}
1a001230:	4606      	mov	r6, r0
1a001232:	460d      	mov	r5, r1
1a001234:	f7ff ffe6 	bl	1a001204 <Chip_SSP_GetPeriphClockIndex>
1a001238:	f7ff ff08 	bl	1a00104c <Chip_Clock_GetRate>
1a00123c:	2202      	movs	r2, #2
1a00123e:	f04f 33ff 	mov.w	r3, #4294967295	; 0xffffffff
1a001242:	2100      	movs	r1, #0
1a001244:	e000      	b.n	1a001248 <Chip_SSP_SetBitRate+0x1a>
1a001246:	4621      	mov	r1, r4
1a001248:	42ab      	cmp	r3, r5
1a00124a:	d90b      	bls.n	1a001264 <Chip_SSP_SetBitRate+0x36>
1a00124c:	1c4c      	adds	r4, r1, #1
1a00124e:	fb02 f304 	mul.w	r3, r2, r4
1a001252:	fbb0 f3f3 	udiv	r3, r0, r3
1a001256:	429d      	cmp	r5, r3
1a001258:	d2f6      	bcs.n	1a001248 <Chip_SSP_SetBitRate+0x1a>
1a00125a:	2cff      	cmp	r4, #255	; 0xff
1a00125c:	d9f3      	bls.n	1a001246 <Chip_SSP_SetBitRate+0x18>
1a00125e:	3202      	adds	r2, #2
1a001260:	2100      	movs	r1, #0
1a001262:	e7f1      	b.n	1a001248 <Chip_SSP_SetBitRate+0x1a>
1a001264:	4630      	mov	r0, r6
1a001266:	f7ff ffd9 	bl	1a00121c <Chip_SSP_SetClockRate>
1a00126a:	bd70      	pop	{r4, r5, r6, pc}

1a00126c <Chip_SSP_Init>:
1a00126c:	b510      	push	{r4, lr}
1a00126e:	4604      	mov	r4, r0
1a001270:	f7ff ffbe 	bl	1a0011f0 <Chip_SSP_GetClockIndex>
1a001274:	f7ff feb6 	bl	1a000fe4 <Chip_Clock_Enable>
1a001278:	4620      	mov	r0, r4
1a00127a:	f7ff ffc3 	bl	1a001204 <Chip_SSP_GetPeriphClockIndex>
1a00127e:	f7ff feb1 	bl	1a000fe4 <Chip_Clock_Enable>
1a001282:	6863      	ldr	r3, [r4, #4]
1a001284:	f023 0304 	bic.w	r3, r3, #4
1a001288:	6063      	str	r3, [r4, #4]
1a00128a:	6823      	ldr	r3, [r4, #0]
1a00128c:	f023 03ff 	bic.w	r3, r3, #255	; 0xff
1a001290:	f043 0307 	orr.w	r3, r3, #7
1a001294:	6023      	str	r3, [r4, #0]
1a001296:	4902      	ldr	r1, [pc, #8]	; (1a0012a0 <Chip_SSP_Init+0x34>)
1a001298:	4620      	mov	r0, r4
1a00129a:	f7ff ffc8 	bl	1a00122e <Chip_SSP_SetBitRate>
1a00129e:	bd10      	pop	{r4, pc}
1a0012a0:	000186a0 	.word	0x000186a0

1a0012a4 <Chip_I2C_EventHandler>:
1a0012a4:	2901      	cmp	r1, #1
1a0012a6:	d000      	beq.n	1a0012aa <Chip_I2C_EventHandler+0x6>
1a0012a8:	4770      	bx	lr
1a0012aa:	ebc0 00c0 	rsb	r0, r0, r0, lsl #3
1a0012ae:	0082      	lsls	r2, r0, #2
1a0012b0:	4b03      	ldr	r3, [pc, #12]	; (1a0012c0 <Chip_I2C_EventHandler+0x1c>)
1a0012b2:	4413      	add	r3, r2
1a0012b4:	691a      	ldr	r2, [r3, #16]
1a0012b6:	7d13      	ldrb	r3, [r2, #20]
1a0012b8:	b2db      	uxtb	r3, r3
1a0012ba:	2b04      	cmp	r3, #4
1a0012bc:	d0fb      	beq.n	1a0012b6 <Chip_I2C_EventHandler+0x12>
1a0012be:	e7f3      	b.n	1a0012a8 <Chip_I2C_EventHandler+0x4>
1a0012c0:	10000004 	.word	0x10000004

1a0012c4 <Chip_I2C_Init>:
1a0012c4:	b570      	push	{r4, r5, r6, lr}
1a0012c6:	4605      	mov	r5, r0
1a0012c8:	4e06      	ldr	r6, [pc, #24]	; (1a0012e4 <Chip_I2C_Init+0x20>)
1a0012ca:	00c4      	lsls	r4, r0, #3
1a0012cc:	1a22      	subs	r2, r4, r0
1a0012ce:	0093      	lsls	r3, r2, #2
1a0012d0:	4433      	add	r3, r6
1a0012d2:	8898      	ldrh	r0, [r3, #4]
1a0012d4:	f7ff fe86 	bl	1a000fe4 <Chip_Clock_Enable>
1a0012d8:	1b64      	subs	r4, r4, r5
1a0012da:	00a3      	lsls	r3, r4, #2
1a0012dc:	58f3      	ldr	r3, [r6, r3]
1a0012de:	226c      	movs	r2, #108	; 0x6c
1a0012e0:	619a      	str	r2, [r3, #24]
1a0012e2:	bd70      	pop	{r4, r5, r6, pc}
1a0012e4:	10000004 	.word	0x10000004

1a0012e8 <Chip_I2C_SetClockRate>:
1a0012e8:	e92d 41f0 	stmdb	sp!, {r4, r5, r6, r7, r8, lr}
1a0012ec:	460c      	mov	r4, r1
1a0012ee:	4e0b      	ldr	r6, [pc, #44]	; (1a00131c <Chip_I2C_SetClockRate+0x34>)
1a0012f0:	00c5      	lsls	r5, r0, #3
1a0012f2:	1a2b      	subs	r3, r5, r0
1a0012f4:	ea4f 0883 	mov.w	r8, r3, lsl #2
1a0012f8:	eb06 0308 	add.w	r3, r6, r8
1a0012fc:	8898      	ldrh	r0, [r3, #4]
1a0012fe:	f7ff fea5 	bl	1a00104c <Chip_Clock_GetRate>
1a001302:	fbb0 f0f4 	udiv	r0, r0, r4
1a001306:	f856 3008 	ldr.w	r3, [r6, r8]
1a00130a:	0842      	lsrs	r2, r0, #1
1a00130c:	611a      	str	r2, [r3, #16]
1a00130e:	f856 3008 	ldr.w	r3, [r6, r8]
1a001312:	691a      	ldr	r2, [r3, #16]
1a001314:	1a80      	subs	r0, r0, r2
1a001316:	6158      	str	r0, [r3, #20]
1a001318:	e8bd 81f0 	ldmia.w	sp!, {r4, r5, r6, r7, r8, pc}
1a00131c:	10000004 	.word	0x10000004

1a001320 <SystemInit>:
1a001320:	b508      	push	{r3, lr}
1a001322:	4a0b      	ldr	r2, [pc, #44]	; (1a001350 <SystemInit+0x30>)
1a001324:	4b0b      	ldr	r3, [pc, #44]	; (1a001354 <SystemInit+0x34>)
1a001326:	609a      	str	r2, [r3, #8]
1a001328:	f503 730c 	add.w	r3, r3, #560	; 0x230
1a00132c:	691b      	ldr	r3, [r3, #16]
1a00132e:	f403 637f 	and.w	r3, r3, #4080	; 0xff0
1a001332:	2b20      	cmp	r3, #32
1a001334:	d004      	beq.n	1a001340 <SystemInit+0x20>
1a001336:	f7ff f9eb 	bl	1a000710 <Board_SystemInit>
1a00133a:	f7ff f97b 	bl	1a000634 <Board_Init>
1a00133e:	bd08      	pop	{r3, pc}
1a001340:	4a04      	ldr	r2, [pc, #16]	; (1a001354 <SystemInit+0x34>)
1a001342:	f8d2 3088 	ldr.w	r3, [r2, #136]	; 0x88
1a001346:	f443 0370 	orr.w	r3, r3, #15728640	; 0xf00000
1a00134a:	f8c2 3088 	str.w	r3, [r2, #136]	; 0x88
1a00134e:	e7f2      	b.n	1a001336 <SystemInit+0x16>
1a001350:	1a000000 	.word	0x1a000000
1a001354:	e000ed00 	.word	0xe000ed00

1a001358 <cyclesCounterInit>:
1a001358:	4b04      	ldr	r3, [pc, #16]	; (1a00136c <cyclesCounterInit+0x14>)
1a00135a:	6018      	str	r0, [r3, #0]
1a00135c:	4a04      	ldr	r2, [pc, #16]	; (1a001370 <cyclesCounterInit+0x18>)
1a00135e:	6813      	ldr	r3, [r2, #0]
1a001360:	f043 0301 	orr.w	r3, r3, #1
1a001364:	6013      	str	r3, [r2, #0]
1a001366:	2001      	movs	r0, #1
1a001368:	4770      	bx	lr
1a00136a:	bf00      	nop
1a00136c:	1000003c 	.word	0x1000003c
1a001370:	e0001000 	.word	0xe0001000

1a001374 <dacInit>:
1a001374:	b510      	push	{r4, lr}
1a001376:	b110      	cbz	r0, 1a00137e <dacInit+0xa>
1a001378:	2801      	cmp	r0, #1
1a00137a:	d016      	beq.n	1a0013aa <dacInit+0x36>
1a00137c:	bd10      	pop	{r4, pc}
1a00137e:	2301      	movs	r3, #1
1a001380:	461a      	mov	r2, r3
1a001382:	4619      	mov	r1, r3
1a001384:	2002      	movs	r0, #2
1a001386:	f7ff fe0f 	bl	1a000fa8 <Chip_Clock_EnableOpts>
1a00138a:	4c0a      	ldr	r4, [pc, #40]	; (1a0013b4 <dacInit+0x40>)
1a00138c:	2101      	movs	r1, #1
1a00138e:	4620      	mov	r0, r4
1a001390:	f7ff f9d1 	bl	1a000736 <Chip_DAC_SetBias>
1a001394:	6863      	ldr	r3, [r4, #4]
1a001396:	f023 030f 	bic.w	r3, r3, #15
1a00139a:	f043 0308 	orr.w	r3, r3, #8
1a00139e:	6063      	str	r3, [r4, #4]
1a0013a0:	2100      	movs	r1, #0
1a0013a2:	4620      	mov	r0, r4
1a0013a4:	f7ff f9bf 	bl	1a000726 <Chip_DAC_UpdateValue>
1a0013a8:	e7e8      	b.n	1a00137c <dacInit+0x8>
1a0013aa:	4802      	ldr	r0, [pc, #8]	; (1a0013b4 <dacInit+0x40>)
1a0013ac:	f7ff f9b6 	bl	1a00071c <Chip_DAC_DeInit>
1a0013b0:	e7e4      	b.n	1a00137c <dacInit+0x8>
1a0013b2:	bf00      	nop
1a0013b4:	400e1000 	.word	0x400e1000

1a0013b8 <dacWrite>:
1a0013b8:	b948      	cbnz	r0, 1a0013ce <dacWrite+0x16>
1a0013ba:	b508      	push	{r3, lr}
1a0013bc:	f5b1 6f80 	cmp.w	r1, #1024	; 0x400
1a0013c0:	d301      	bcc.n	1a0013c6 <dacWrite+0xe>
1a0013c2:	f240 31ff 	movw	r1, #1023	; 0x3ff
1a0013c6:	4802      	ldr	r0, [pc, #8]	; (1a0013d0 <dacWrite+0x18>)
1a0013c8:	f7ff f9ad 	bl	1a000726 <Chip_DAC_UpdateValue>
1a0013cc:	bd08      	pop	{r3, pc}
1a0013ce:	4770      	bx	lr
1a0013d0:	400e1000 	.word	0x400e1000

1a0013d4 <uartTxReady>:
1a0013d4:	eb00 0040 	add.w	r0, r0, r0, lsl #1
1a0013d8:	0083      	lsls	r3, r0, #2
1a0013da:	4a03      	ldr	r2, [pc, #12]	; (1a0013e8 <uartTxReady+0x14>)
1a0013dc:	58d3      	ldr	r3, [r2, r3]
1a0013de:	6958      	ldr	r0, [r3, #20]
1a0013e0:	f000 0020 	and.w	r0, r0, #32
1a0013e4:	4770      	bx	lr
1a0013e6:	bf00      	nop
1a0013e8:	1a001f58 	.word	0x1a001f58

1a0013ec <uartTxWrite>:
1a0013ec:	eb00 0040 	add.w	r0, r0, r0, lsl #1
1a0013f0:	0083      	lsls	r3, r0, #2
1a0013f2:	4a02      	ldr	r2, [pc, #8]	; (1a0013fc <uartTxWrite+0x10>)
1a0013f4:	58d3      	ldr	r3, [r2, r3]
1a0013f6:	6019      	str	r1, [r3, #0]
1a0013f8:	4770      	bx	lr
1a0013fa:	bf00      	nop
1a0013fc:	1a001f58 	.word	0x1a001f58

1a001400 <uartInit>:
1a001400:	e92d 43f8 	stmdb	sp!, {r3, r4, r5, r6, r7, r8, r9, lr}
1a001404:	4680      	mov	r8, r0
1a001406:	4689      	mov	r9, r1
1a001408:	4c19      	ldr	r4, [pc, #100]	; (1a001470 <uartInit+0x70>)
1a00140a:	0045      	lsls	r5, r0, #1
1a00140c:	182a      	adds	r2, r5, r0
1a00140e:	0093      	lsls	r3, r2, #2
1a001410:	18e6      	adds	r6, r4, r3
1a001412:	58e7      	ldr	r7, [r4, r3]
1a001414:	4638      	mov	r0, r7
1a001416:	f7ff f9b1 	bl	1a00077c <Chip_UART_Init>
1a00141a:	4649      	mov	r1, r9
1a00141c:	4638      	mov	r0, r7
1a00141e:	f7ff f9d7 	bl	1a0007d0 <Chip_UART_SetBaud>
1a001422:	2307      	movs	r3, #7
1a001424:	60bb      	str	r3, [r7, #8]
1a001426:	683b      	ldr	r3, [r7, #0]
1a001428:	2301      	movs	r3, #1
1a00142a:	65fb      	str	r3, [r7, #92]	; 0x5c
1a00142c:	7930      	ldrb	r0, [r6, #4]
1a00142e:	7973      	ldrb	r3, [r6, #5]
1a001430:	79b2      	ldrb	r2, [r6, #6]
1a001432:	f042 0218 	orr.w	r2, r2, #24
1a001436:	490f      	ldr	r1, [pc, #60]	; (1a001474 <uartInit+0x74>)
1a001438:	eb03 1340 	add.w	r3, r3, r0, lsl #5
1a00143c:	f841 2023 	str.w	r2, [r1, r3, lsl #2]
1a001440:	79f0      	ldrb	r0, [r6, #7]
1a001442:	7a33      	ldrb	r3, [r6, #8]
1a001444:	7a72      	ldrb	r2, [r6, #9]
1a001446:	f042 02d0 	orr.w	r2, r2, #208	; 0xd0
1a00144a:	eb03 1340 	add.w	r3, r3, r0, lsl #5
1a00144e:	f841 2023 	str.w	r2, [r1, r3, lsl #2]
1a001452:	f1b8 0f01 	cmp.w	r8, #1
1a001456:	d001      	beq.n	1a00145c <uartInit+0x5c>
1a001458:	e8bd 83f8 	ldmia.w	sp!, {r3, r4, r5, r6, r7, r8, r9, pc}
1a00145c:	4a06      	ldr	r2, [pc, #24]	; (1a001478 <uartInit+0x78>)
1a00145e:	6cd3      	ldr	r3, [r2, #76]	; 0x4c
1a001460:	f043 0330 	orr.w	r3, r3, #48	; 0x30
1a001464:	64d3      	str	r3, [r2, #76]	; 0x4c
1a001466:	221a      	movs	r2, #26
1a001468:	f8c1 2308 	str.w	r2, [r1, #776]	; 0x308
1a00146c:	e7f4      	b.n	1a001458 <uartInit+0x58>
1a00146e:	bf00      	nop
1a001470:	1a001f58 	.word	0x1a001f58
1a001474:	40086000 	.word	0x40086000
1a001478:	40081000 	.word	0x40081000

1a00147c <uartWriteByte>:
1a00147c:	b538      	push	{r3, r4, r5, lr}
1a00147e:	4604      	mov	r4, r0
1a001480:	460d      	mov	r5, r1
1a001482:	4620      	mov	r0, r4
1a001484:	f7ff ffa6 	bl	1a0013d4 <uartTxReady>
1a001488:	2800      	cmp	r0, #0
1a00148a:	d0fa      	beq.n	1a001482 <uartWriteByte+0x6>
1a00148c:	4629      	mov	r1, r5
1a00148e:	4620      	mov	r0, r4
1a001490:	f7ff ffac 	bl	1a0013ec <uartTxWrite>
1a001494:	bd38      	pop	{r3, r4, r5, pc}

1a001496 <uartWriteByteArray>:
1a001496:	b5f8      	push	{r3, r4, r5, r6, r7, lr}
1a001498:	4607      	mov	r7, r0
1a00149a:	460e      	mov	r6, r1
1a00149c:	4615      	mov	r5, r2
1a00149e:	2400      	movs	r4, #0
1a0014a0:	e004      	b.n	1a0014ac <uartWriteByteArray+0x16>
1a0014a2:	5d31      	ldrb	r1, [r6, r4]
1a0014a4:	4638      	mov	r0, r7
1a0014a6:	f7ff ffe9 	bl	1a00147c <uartWriteByte>
1a0014aa:	3401      	adds	r4, #1
1a0014ac:	42ac      	cmp	r4, r5
1a0014ae:	d3f8      	bcc.n	1a0014a2 <uartWriteByteArray+0xc>
1a0014b0:	bdf8      	pop	{r3, r4, r5, r6, r7, pc}
1a0014b2:	Address 0x000000001a0014b2 is out of bounds.


1a0014b4 <tickPowerSet>:
1a0014b4:	b918      	cbnz	r0, 1a0014be <tickPowerSet+0xa>
1a0014b6:	4b04      	ldr	r3, [pc, #16]	; (1a0014c8 <tickPowerSet+0x14>)
1a0014b8:	2200      	movs	r2, #0
1a0014ba:	601a      	str	r2, [r3, #0]
1a0014bc:	4770      	bx	lr
1a0014be:	4b02      	ldr	r3, [pc, #8]	; (1a0014c8 <tickPowerSet+0x14>)
1a0014c0:	2207      	movs	r2, #7
1a0014c2:	601a      	str	r2, [r3, #0]
1a0014c4:	4770      	bx	lr
1a0014c6:	bf00      	nop
1a0014c8:	e000e010 	.word	0xe000e010

1a0014cc <tickInit>:
1a0014cc:	b538      	push	{r3, r4, r5, lr}
1a0014ce:	ea50 0301 	orrs.w	r3, r0, r1
1a0014d2:	d02a      	beq.n	1a00152a <tickInit+0x5e>
1a0014d4:	f110 32ff 	adds.w	r2, r0, #4294967295	; 0xffffffff
1a0014d8:	f141 33ff 	adc.w	r3, r1, #4294967295	; 0xffffffff
1a0014dc:	2b00      	cmp	r3, #0
1a0014de:	bf08      	it	eq
1a0014e0:	2a32      	cmpeq	r2, #50	; 0x32
1a0014e2:	d227      	bcs.n	1a001534 <tickInit+0x68>
1a0014e4:	4b14      	ldr	r3, [pc, #80]	; (1a001538 <tickInit+0x6c>)
1a0014e6:	e9c3 0100 	strd	r0, r1, [r3]
1a0014ea:	4b14      	ldr	r3, [pc, #80]	; (1a00153c <tickInit+0x70>)
1a0014ec:	681b      	ldr	r3, [r3, #0]
1a0014ee:	fba3 4500 	umull	r4, r5, r3, r0
1a0014f2:	fb03 5501 	mla	r5, r3, r1, r5
1a0014f6:	f44f 727a 	mov.w	r2, #1000	; 0x3e8
1a0014fa:	2300      	movs	r3, #0
1a0014fc:	4620      	mov	r0, r4
1a0014fe:	4629      	mov	r1, r5
1a001500:	f000 fabe 	bl	1a001a80 <__aeabi_uldivmod>
1a001504:	3801      	subs	r0, #1
1a001506:	f1b0 7f80 	cmp.w	r0, #16777216	; 0x1000000
1a00150a:	d209      	bcs.n	1a001520 <tickInit+0x54>
1a00150c:	4b0c      	ldr	r3, [pc, #48]	; (1a001540 <tickInit+0x74>)
1a00150e:	6058      	str	r0, [r3, #4]
1a001510:	4a0c      	ldr	r2, [pc, #48]	; (1a001544 <tickInit+0x78>)
1a001512:	21e0      	movs	r1, #224	; 0xe0
1a001514:	f882 1023 	strb.w	r1, [r2, #35]	; 0x23
1a001518:	2200      	movs	r2, #0
1a00151a:	609a      	str	r2, [r3, #8]
1a00151c:	2207      	movs	r2, #7
1a00151e:	601a      	str	r2, [r3, #0]
1a001520:	2001      	movs	r0, #1
1a001522:	f7ff ffc7 	bl	1a0014b4 <tickPowerSet>
1a001526:	2001      	movs	r0, #1
1a001528:	bd38      	pop	{r3, r4, r5, pc}
1a00152a:	2000      	movs	r0, #0
1a00152c:	f7ff ffc2 	bl	1a0014b4 <tickPowerSet>
1a001530:	2000      	movs	r0, #0
1a001532:	e7f9      	b.n	1a001528 <tickInit+0x5c>
1a001534:	2000      	movs	r0, #0
1a001536:	e7f7      	b.n	1a001528 <tickInit+0x5c>
1a001538:	10000040 	.word	0x10000040
1a00153c:	10000470 	.word	0x10000470
1a001540:	e000e010 	.word	0xe000e010
1a001544:	e000ed00 	.word	0xe000ed00

1a001548 <SysTick_Handler>:
1a001548:	e92d 4800 	stmdb	sp!, {fp, lr}
1a00154c:	4908      	ldr	r1, [pc, #32]	; (1a001570 <SysTick_Handler+0x28>)
1a00154e:	e9d1 2300 	ldrd	r2, r3, [r1]
1a001552:	f112 0b01 	adds.w	fp, r2, #1
1a001556:	f143 0c00 	adc.w	ip, r3, #0
1a00155a:	e9c1 bc00 	strd	fp, ip, [r1]
1a00155e:	4b05      	ldr	r3, [pc, #20]	; (1a001574 <SysTick_Handler+0x2c>)
1a001560:	681b      	ldr	r3, [r3, #0]
1a001562:	b113      	cbz	r3, 1a00156a <SysTick_Handler+0x22>
1a001564:	4a04      	ldr	r2, [pc, #16]	; (1a001578 <SysTick_Handler+0x30>)
1a001566:	6810      	ldr	r0, [r2, #0]
1a001568:	4798      	blx	r3
1a00156a:	e8bd 8800 	ldmia.w	sp!, {fp, pc}
1a00156e:	bf00      	nop
1a001570:	10000060 	.word	0x10000060
1a001574:	10000068 	.word	0x10000068
1a001578:	1000005c 	.word	0x1000005c

1a00157c <adcInit>:
1a00157c:	b530      	push	{r4, r5, lr}
1a00157e:	b083      	sub	sp, #12
1a001580:	b118      	cbz	r0, 1a00158a <adcInit+0xe>
1a001582:	2801      	cmp	r0, #1
1a001584:	d04a      	beq.n	1a00161c <adcInit+0xa0>
1a001586:	b003      	add	sp, #12
1a001588:	bd30      	pop	{r4, r5, pc}
1a00158a:	4b26      	ldr	r3, [pc, #152]	; (1a001624 <adcInit+0xa8>)
1a00158c:	466d      	mov	r5, sp
1a00158e:	e893 0003 	ldmia.w	r3, {r0, r1}
1a001592:	e885 0003 	stmia.w	r5, {r0, r1}
1a001596:	4c24      	ldr	r4, [pc, #144]	; (1a001628 <adcInit+0xac>)
1a001598:	4629      	mov	r1, r5
1a00159a:	4620      	mov	r0, r4
1a00159c:	f7ff f9e2 	bl	1a000964 <Chip_ADC_Init>
1a0015a0:	2100      	movs	r1, #0
1a0015a2:	4620      	mov	r0, r4
1a0015a4:	f7ff fa7b 	bl	1a000a9e <Chip_ADC_SetBurstCmd>
1a0015a8:	4a20      	ldr	r2, [pc, #128]	; (1a00162c <adcInit+0xb0>)
1a0015aa:	4629      	mov	r1, r5
1a0015ac:	4620      	mov	r0, r4
1a0015ae:	f7ff fa43 	bl	1a000a38 <Chip_ADC_SetSampleRate>
1a0015b2:	2200      	movs	r2, #0
1a0015b4:	2101      	movs	r1, #1
1a0015b6:	4620      	mov	r0, r4
1a0015b8:	f7ff fa5d 	bl	1a000a76 <Chip_ADC_EnableChannel>
1a0015bc:	2200      	movs	r2, #0
1a0015be:	2101      	movs	r1, #1
1a0015c0:	4620      	mov	r0, r4
1a0015c2:	f7ff fa19 	bl	1a0009f8 <Chip_ADC_Int_SetChannelCmd>
1a0015c6:	2200      	movs	r2, #0
1a0015c8:	2102      	movs	r1, #2
1a0015ca:	4620      	mov	r0, r4
1a0015cc:	f7ff fa53 	bl	1a000a76 <Chip_ADC_EnableChannel>
1a0015d0:	2200      	movs	r2, #0
1a0015d2:	2102      	movs	r1, #2
1a0015d4:	4620      	mov	r0, r4
1a0015d6:	f7ff fa0f 	bl	1a0009f8 <Chip_ADC_Int_SetChannelCmd>
1a0015da:	2200      	movs	r2, #0
1a0015dc:	2103      	movs	r1, #3
1a0015de:	4620      	mov	r0, r4
1a0015e0:	f7ff fa49 	bl	1a000a76 <Chip_ADC_EnableChannel>
1a0015e4:	2200      	movs	r2, #0
1a0015e6:	2103      	movs	r1, #3
1a0015e8:	4620      	mov	r0, r4
1a0015ea:	f7ff fa05 	bl	1a0009f8 <Chip_ADC_Int_SetChannelCmd>
1a0015ee:	2200      	movs	r2, #0
1a0015f0:	2104      	movs	r1, #4
1a0015f2:	4620      	mov	r0, r4
1a0015f4:	f7ff fa3f 	bl	1a000a76 <Chip_ADC_EnableChannel>
1a0015f8:	2200      	movs	r2, #0
1a0015fa:	2104      	movs	r1, #4
1a0015fc:	4620      	mov	r0, r4
1a0015fe:	f7ff f9fb 	bl	1a0009f8 <Chip_ADC_Int_SetChannelCmd>
1a001602:	4a0b      	ldr	r2, [pc, #44]	; (1a001630 <adcInit+0xb4>)
1a001604:	f8d2 3c88 	ldr.w	r3, [r2, #3208]	; 0xc88
1a001608:	f043 0310 	orr.w	r3, r3, #16
1a00160c:	f8c2 3c88 	str.w	r3, [r2, #3208]	; 0xc88
1a001610:	2200      	movs	r2, #0
1a001612:	2105      	movs	r1, #5
1a001614:	4620      	mov	r0, r4
1a001616:	f7ff f9ef 	bl	1a0009f8 <Chip_ADC_Int_SetChannelCmd>
1a00161a:	e7b4      	b.n	1a001586 <adcInit+0xa>
1a00161c:	4802      	ldr	r0, [pc, #8]	; (1a001628 <adcInit+0xac>)
1a00161e:	f7ff f9c1 	bl	1a0009a4 <Chip_ADC_DeInit>
1a001622:	e7b0      	b.n	1a001586 <adcInit+0xa>
1a001624:	1a001fa0 	.word	0x1a001fa0
1a001628:	400e3000 	.word	0x400e3000
1a00162c:	00030d40 	.word	0x00030d40
1a001630:	40086000 	.word	0x40086000

1a001634 <adcRead>:
1a001634:	b570      	push	{r4, r5, r6, lr}
1a001636:	b082      	sub	sp, #8
1a001638:	3001      	adds	r0, #1
1a00163a:	b2c4      	uxtb	r4, r0
1a00163c:	2600      	movs	r6, #0
1a00163e:	f8ad 6006 	strh.w	r6, [sp, #6]
1a001642:	4d11      	ldr	r5, [pc, #68]	; (1a001688 <adcRead+0x54>)
1a001644:	2201      	movs	r2, #1
1a001646:	4621      	mov	r1, r4
1a001648:	4628      	mov	r0, r5
1a00164a:	f7ff fa14 	bl	1a000a76 <Chip_ADC_EnableChannel>
1a00164e:	4632      	mov	r2, r6
1a001650:	2101      	movs	r1, #1
1a001652:	4628      	mov	r0, r5
1a001654:	f7ff f9e0 	bl	1a000a18 <Chip_ADC_SetStartMode>
1a001658:	2200      	movs	r2, #0
1a00165a:	4621      	mov	r1, r4
1a00165c:	480a      	ldr	r0, [pc, #40]	; (1a001688 <adcRead+0x54>)
1a00165e:	f7ff f9b0 	bl	1a0009c2 <Chip_ADC_ReadStatus>
1a001662:	2801      	cmp	r0, #1
1a001664:	d1f8      	bne.n	1a001658 <adcRead+0x24>
1a001666:	4d08      	ldr	r5, [pc, #32]	; (1a001688 <adcRead+0x54>)
1a001668:	f10d 0206 	add.w	r2, sp, #6
1a00166c:	4621      	mov	r1, r4
1a00166e:	4628      	mov	r0, r5
1a001670:	f7ff f9a3 	bl	1a0009ba <Chip_ADC_ReadValue>
1a001674:	2200      	movs	r2, #0
1a001676:	4621      	mov	r1, r4
1a001678:	4628      	mov	r0, r5
1a00167a:	f7ff f9fc 	bl	1a000a76 <Chip_ADC_EnableChannel>
1a00167e:	f8bd 0006 	ldrh.w	r0, [sp, #6]
1a001682:	b002      	add	sp, #8
1a001684:	bd70      	pop	{r4, r5, r6, pc}
1a001686:	bf00      	nop
1a001688:	400e3000 	.word	0x400e3000

1a00168c <gpioObtainPinInit>:
1a00168c:	b430      	push	{r4, r5}
1a00168e:	4d0b      	ldr	r5, [pc, #44]	; (1a0016bc <gpioObtainPinInit+0x30>)
1a001690:	eb00 0080 	add.w	r0, r0, r0, lsl #2
1a001694:	182c      	adds	r4, r5, r0
1a001696:	5628      	ldrsb	r0, [r5, r0]
1a001698:	7008      	strb	r0, [r1, #0]
1a00169a:	f994 1001 	ldrsb.w	r1, [r4, #1]
1a00169e:	7011      	strb	r1, [r2, #0]
1a0016a0:	f994 2002 	ldrsb.w	r2, [r4, #2]
1a0016a4:	701a      	strb	r2, [r3, #0]
1a0016a6:	f994 2003 	ldrsb.w	r2, [r4, #3]
1a0016aa:	9b02      	ldr	r3, [sp, #8]
1a0016ac:	701a      	strb	r2, [r3, #0]
1a0016ae:	f994 2004 	ldrsb.w	r2, [r4, #4]
1a0016b2:	9b03      	ldr	r3, [sp, #12]
1a0016b4:	701a      	strb	r2, [r3, #0]
1a0016b6:	bc30      	pop	{r4, r5}
1a0016b8:	4770      	bx	lr
1a0016ba:	bf00      	nop
1a0016bc:	1a001fa8 	.word	0x1a001fa8

1a0016c0 <gpioInit>:
1a0016c0:	f110 0f02 	cmn.w	r0, #2
1a0016c4:	f000 80c7 	beq.w	1a001856 <gpioInit+0x196>
1a0016c8:	f1b0 3fff 	cmp.w	r0, #4294967295	; 0xffffffff
1a0016cc:	f000 80c5 	beq.w	1a00185a <gpioInit+0x19a>
1a0016d0:	b570      	push	{r4, r5, r6, lr}
1a0016d2:	b084      	sub	sp, #16
1a0016d4:	460c      	mov	r4, r1
1a0016d6:	2300      	movs	r3, #0
1a0016d8:	f88d 300f 	strb.w	r3, [sp, #15]
1a0016dc:	f88d 300e 	strb.w	r3, [sp, #14]
1a0016e0:	f88d 300d 	strb.w	r3, [sp, #13]
1a0016e4:	f88d 300c 	strb.w	r3, [sp, #12]
1a0016e8:	f88d 300b 	strb.w	r3, [sp, #11]
1a0016ec:	f10d 030b 	add.w	r3, sp, #11
1a0016f0:	9301      	str	r3, [sp, #4]
1a0016f2:	ab03      	add	r3, sp, #12
1a0016f4:	9300      	str	r3, [sp, #0]
1a0016f6:	f10d 030d 	add.w	r3, sp, #13
1a0016fa:	f10d 020e 	add.w	r2, sp, #14
1a0016fe:	f10d 010f 	add.w	r1, sp, #15
1a001702:	f7ff ffc3 	bl	1a00168c <gpioObtainPinInit>
1a001706:	2c05      	cmp	r4, #5
1a001708:	f200 80a9 	bhi.w	1a00185e <gpioInit+0x19e>
1a00170c:	e8df f004 	tbb	[pc, r4]
1a001710:	45278109 	.word	0x45278109
1a001714:	0363      	.short	0x0363
1a001716:	4853      	ldr	r0, [pc, #332]	; (1a001864 <gpioInit+0x1a4>)
1a001718:	f7ff fd68 	bl	1a0011ec <Chip_GPIO_Init>
1a00171c:	2001      	movs	r0, #1
1a00171e:	b004      	add	sp, #16
1a001720:	bd70      	pop	{r4, r5, r6, pc}
1a001722:	f89d 100f 	ldrb.w	r1, [sp, #15]
1a001726:	f89d 300e 	ldrb.w	r3, [sp, #14]
1a00172a:	f89d 200d 	ldrb.w	r2, [sp, #13]
1a00172e:	f042 02d0 	orr.w	r2, r2, #208	; 0xd0
1a001732:	eb03 1341 	add.w	r3, r3, r1, lsl #5
1a001736:	494c      	ldr	r1, [pc, #304]	; (1a001868 <gpioInit+0x1a8>)
1a001738:	f841 2023 	str.w	r2, [r1, r3, lsl #2]
1a00173c:	f89d 300c 	ldrb.w	r3, [sp, #12]
1a001740:	f99d 200b 	ldrsb.w	r2, [sp, #11]
1a001744:	2001      	movs	r0, #1
1a001746:	fa00 f102 	lsl.w	r1, r0, r2
1a00174a:	4c46      	ldr	r4, [pc, #280]	; (1a001864 <gpioInit+0x1a4>)
1a00174c:	f503 6300 	add.w	r3, r3, #2048	; 0x800
1a001750:	f854 2023 	ldr.w	r2, [r4, r3, lsl #2]
1a001754:	ea22 0201 	bic.w	r2, r2, r1
1a001758:	f844 2023 	str.w	r2, [r4, r3, lsl #2]
1a00175c:	e7df      	b.n	1a00171e <gpioInit+0x5e>
1a00175e:	f89d 100f 	ldrb.w	r1, [sp, #15]
1a001762:	f89d 300e 	ldrb.w	r3, [sp, #14]
1a001766:	f89d 200d 	ldrb.w	r2, [sp, #13]
1a00176a:	f042 02c0 	orr.w	r2, r2, #192	; 0xc0
1a00176e:	eb03 1341 	add.w	r3, r3, r1, lsl #5
1a001772:	493d      	ldr	r1, [pc, #244]	; (1a001868 <gpioInit+0x1a8>)
1a001774:	f841 2023 	str.w	r2, [r1, r3, lsl #2]
1a001778:	f89d 300c 	ldrb.w	r3, [sp, #12]
1a00177c:	f99d 200b 	ldrsb.w	r2, [sp, #11]
1a001780:	2001      	movs	r0, #1
1a001782:	fa00 f102 	lsl.w	r1, r0, r2
1a001786:	4c37      	ldr	r4, [pc, #220]	; (1a001864 <gpioInit+0x1a4>)
1a001788:	f503 6300 	add.w	r3, r3, #2048	; 0x800
1a00178c:	f854 2023 	ldr.w	r2, [r4, r3, lsl #2]
1a001790:	ea22 0201 	bic.w	r2, r2, r1
1a001794:	f844 2023 	str.w	r2, [r4, r3, lsl #2]
1a001798:	e7c1      	b.n	1a00171e <gpioInit+0x5e>
1a00179a:	f89d 100f 	ldrb.w	r1, [sp, #15]
1a00179e:	f89d 300e 	ldrb.w	r3, [sp, #14]
1a0017a2:	f89d 200d 	ldrb.w	r2, [sp, #13]
1a0017a6:	f042 02d8 	orr.w	r2, r2, #216	; 0xd8
1a0017aa:	eb03 1341 	add.w	r3, r3, r1, lsl #5
1a0017ae:	492e      	ldr	r1, [pc, #184]	; (1a001868 <gpioInit+0x1a8>)
1a0017b0:	f841 2023 	str.w	r2, [r1, r3, lsl #2]
1a0017b4:	f89d 300c 	ldrb.w	r3, [sp, #12]
1a0017b8:	f99d 200b 	ldrsb.w	r2, [sp, #11]
1a0017bc:	2001      	movs	r0, #1
1a0017be:	fa00 f102 	lsl.w	r1, r0, r2
1a0017c2:	4c28      	ldr	r4, [pc, #160]	; (1a001864 <gpioInit+0x1a4>)
1a0017c4:	f503 6300 	add.w	r3, r3, #2048	; 0x800
1a0017c8:	f854 2023 	ldr.w	r2, [r4, r3, lsl #2]
1a0017cc:	ea22 0201 	bic.w	r2, r2, r1
1a0017d0:	f844 2023 	str.w	r2, [r4, r3, lsl #2]
1a0017d4:	e7a3      	b.n	1a00171e <gpioInit+0x5e>
1a0017d6:	f89d 100f 	ldrb.w	r1, [sp, #15]
1a0017da:	f89d 300e 	ldrb.w	r3, [sp, #14]
1a0017de:	f89d 200d 	ldrb.w	r2, [sp, #13]
1a0017e2:	f042 02c8 	orr.w	r2, r2, #200	; 0xc8
1a0017e6:	eb03 1341 	add.w	r3, r3, r1, lsl #5
1a0017ea:	491f      	ldr	r1, [pc, #124]	; (1a001868 <gpioInit+0x1a8>)
1a0017ec:	f841 2023 	str.w	r2, [r1, r3, lsl #2]
1a0017f0:	f89d 300c 	ldrb.w	r3, [sp, #12]
1a0017f4:	f99d 200b 	ldrsb.w	r2, [sp, #11]
1a0017f8:	2001      	movs	r0, #1
1a0017fa:	fa00 f102 	lsl.w	r1, r0, r2
1a0017fe:	4c19      	ldr	r4, [pc, #100]	; (1a001864 <gpioInit+0x1a4>)
1a001800:	f503 6300 	add.w	r3, r3, #2048	; 0x800
1a001804:	f854 2023 	ldr.w	r2, [r4, r3, lsl #2]
1a001808:	ea22 0201 	bic.w	r2, r2, r1
1a00180c:	f844 2023 	str.w	r2, [r4, r3, lsl #2]
1a001810:	e785      	b.n	1a00171e <gpioInit+0x5e>
1a001812:	f89d 100f 	ldrb.w	r1, [sp, #15]
1a001816:	f89d 300e 	ldrb.w	r3, [sp, #14]
1a00181a:	f89d 200d 	ldrb.w	r2, [sp, #13]
1a00181e:	f042 02d0 	orr.w	r2, r2, #208	; 0xd0
1a001822:	eb03 1341 	add.w	r3, r3, r1, lsl #5
1a001826:	4910      	ldr	r1, [pc, #64]	; (1a001868 <gpioInit+0x1a8>)
1a001828:	f841 2023 	str.w	r2, [r1, r3, lsl #2]
1a00182c:	f89d 400c 	ldrb.w	r4, [sp, #12]
1a001830:	f99d 200b 	ldrsb.w	r2, [sp, #11]
1a001834:	2001      	movs	r0, #1
1a001836:	fa00 f102 	lsl.w	r1, r0, r2
1a00183a:	4b0a      	ldr	r3, [pc, #40]	; (1a001864 <gpioInit+0x1a4>)
1a00183c:	f504 6500 	add.w	r5, r4, #2048	; 0x800
1a001840:	f853 6025 	ldr.w	r6, [r3, r5, lsl #2]
1a001844:	4331      	orrs	r1, r6
1a001846:	f843 1025 	str.w	r1, [r3, r5, lsl #2]
1a00184a:	b2d2      	uxtb	r2, r2
1a00184c:	eb03 1344 	add.w	r3, r3, r4, lsl #5
1a001850:	2100      	movs	r1, #0
1a001852:	5499      	strb	r1, [r3, r2]
1a001854:	e763      	b.n	1a00171e <gpioInit+0x5e>
1a001856:	2000      	movs	r0, #0
1a001858:	4770      	bx	lr
1a00185a:	2000      	movs	r0, #0
1a00185c:	4770      	bx	lr
1a00185e:	2000      	movs	r0, #0
1a001860:	e75d      	b.n	1a00171e <gpioInit+0x5e>
1a001862:	bf00      	nop
1a001864:	400f4000 	.word	0x400f4000
1a001868:	40086000 	.word	0x40086000

1a00186c <gpioWrite>:
1a00186c:	f110 0f02 	cmn.w	r0, #2
1a001870:	d02d      	beq.n	1a0018ce <gpioWrite+0x62>
1a001872:	f1b0 3fff 	cmp.w	r0, #4294967295	; 0xffffffff
1a001876:	d02c      	beq.n	1a0018d2 <gpioWrite+0x66>
1a001878:	b510      	push	{r4, lr}
1a00187a:	b084      	sub	sp, #16
1a00187c:	460c      	mov	r4, r1
1a00187e:	2300      	movs	r3, #0
1a001880:	f88d 300f 	strb.w	r3, [sp, #15]
1a001884:	f88d 300e 	strb.w	r3, [sp, #14]
1a001888:	f88d 300d 	strb.w	r3, [sp, #13]
1a00188c:	f88d 300c 	strb.w	r3, [sp, #12]
1a001890:	f88d 300b 	strb.w	r3, [sp, #11]
1a001894:	f10d 030b 	add.w	r3, sp, #11
1a001898:	9301      	str	r3, [sp, #4]
1a00189a:	ab03      	add	r3, sp, #12
1a00189c:	9300      	str	r3, [sp, #0]
1a00189e:	f10d 030d 	add.w	r3, sp, #13
1a0018a2:	f10d 020e 	add.w	r2, sp, #14
1a0018a6:	f10d 010f 	add.w	r1, sp, #15
1a0018aa:	f7ff feef 	bl	1a00168c <gpioObtainPinInit>
1a0018ae:	f89d 300c 	ldrb.w	r3, [sp, #12]
1a0018b2:	f89d 200b 	ldrb.w	r2, [sp, #11]
1a0018b6:	1c21      	adds	r1, r4, #0
1a0018b8:	bf18      	it	ne
1a0018ba:	2101      	movne	r1, #1
1a0018bc:	015b      	lsls	r3, r3, #5
1a0018be:	f103 2340 	add.w	r3, r3, #1073758208	; 0x40004000
1a0018c2:	f503 2370 	add.w	r3, r3, #983040	; 0xf0000
1a0018c6:	5499      	strb	r1, [r3, r2]
1a0018c8:	2001      	movs	r0, #1
1a0018ca:	b004      	add	sp, #16
1a0018cc:	bd10      	pop	{r4, pc}
1a0018ce:	2000      	movs	r0, #0
1a0018d0:	4770      	bx	lr
1a0018d2:	2000      	movs	r0, #0
1a0018d4:	4770      	bx	lr

1a0018d6 <gpioRead>:
1a0018d6:	f110 0f02 	cmn.w	r0, #2
1a0018da:	d02c      	beq.n	1a001936 <gpioRead+0x60>
1a0018dc:	f1b0 3fff 	cmp.w	r0, #4294967295	; 0xffffffff
1a0018e0:	d02b      	beq.n	1a00193a <gpioRead+0x64>
1a0018e2:	b500      	push	{lr}
1a0018e4:	b085      	sub	sp, #20
1a0018e6:	2300      	movs	r3, #0
1a0018e8:	f88d 300f 	strb.w	r3, [sp, #15]
1a0018ec:	f88d 300e 	strb.w	r3, [sp, #14]
1a0018f0:	f88d 300d 	strb.w	r3, [sp, #13]
1a0018f4:	f88d 300c 	strb.w	r3, [sp, #12]
1a0018f8:	f88d 300b 	strb.w	r3, [sp, #11]
1a0018fc:	f10d 030b 	add.w	r3, sp, #11
1a001900:	9301      	str	r3, [sp, #4]
1a001902:	ab03      	add	r3, sp, #12
1a001904:	9300      	str	r3, [sp, #0]
1a001906:	f10d 030d 	add.w	r3, sp, #13
1a00190a:	f10d 020e 	add.w	r2, sp, #14
1a00190e:	f10d 010f 	add.w	r1, sp, #15
1a001912:	f7ff febb 	bl	1a00168c <gpioObtainPinInit>
1a001916:	f99d 300c 	ldrsb.w	r3, [sp, #12]
1a00191a:	f89d 200b 	ldrb.w	r2, [sp, #11]
1a00191e:	015b      	lsls	r3, r3, #5
1a001920:	f103 2340 	add.w	r3, r3, #1073758208	; 0x40004000
1a001924:	f503 2370 	add.w	r3, r3, #983040	; 0xf0000
1a001928:	5c98      	ldrb	r0, [r3, r2]
1a00192a:	3000      	adds	r0, #0
1a00192c:	bf18      	it	ne
1a00192e:	2001      	movne	r0, #1
1a001930:	b005      	add	sp, #20
1a001932:	f85d fb04 	ldr.w	pc, [sp], #4
1a001936:	2001      	movs	r0, #1
1a001938:	4770      	bx	lr
1a00193a:	2000      	movs	r0, #0
1a00193c:	4770      	bx	lr

1a00193e <gpioToggle>:
1a00193e:	b510      	push	{r4, lr}
1a001940:	4604      	mov	r4, r0
1a001942:	f7ff ffc8 	bl	1a0018d6 <gpioRead>
1a001946:	fab0 f180 	clz	r1, r0
1a00194a:	0949      	lsrs	r1, r1, #5
1a00194c:	4620      	mov	r0, r4
1a00194e:	f7ff ff8d 	bl	1a00186c <gpioWrite>
1a001952:	bd10      	pop	{r4, pc}

1a001954 <USB0_IRQHandler>:
1a001954:	b508      	push	{r3, lr}
1a001956:	4b04      	ldr	r3, [pc, #16]	; (1a001968 <USB0_IRQHandler+0x14>)
1a001958:	681b      	ldr	r3, [r3, #0]
1a00195a:	681b      	ldr	r3, [r3, #0]
1a00195c:	68db      	ldr	r3, [r3, #12]
1a00195e:	4a03      	ldr	r2, [pc, #12]	; (1a00196c <USB0_IRQHandler+0x18>)
1a001960:	6810      	ldr	r0, [r2, #0]
1a001962:	4798      	blx	r3
1a001964:	bd08      	pop	{r3, pc}
1a001966:	bf00      	nop
1a001968:	10000474 	.word	0x10000474
1a00196c:	1000006c 	.word	0x1000006c

1a001970 <boardInit>:
1a001970:	b508      	push	{r3, lr}
1a001972:	f7ff f8a5 	bl	1a000ac0 <SystemCoreClockUpdate>
1a001976:	4b1a      	ldr	r3, [pc, #104]	; (1a0019e0 <boardInit+0x70>)
1a001978:	6818      	ldr	r0, [r3, #0]
1a00197a:	f7ff fced 	bl	1a001358 <cyclesCounterInit>
1a00197e:	2001      	movs	r0, #1
1a001980:	2100      	movs	r1, #0
1a001982:	f7ff fda3 	bl	1a0014cc <tickInit>
1a001986:	2105      	movs	r1, #5
1a001988:	2000      	movs	r0, #0
1a00198a:	f7ff fe99 	bl	1a0016c0 <gpioInit>
1a00198e:	2100      	movs	r1, #0
1a001990:	2024      	movs	r0, #36	; 0x24
1a001992:	f7ff fe95 	bl	1a0016c0 <gpioInit>
1a001996:	2100      	movs	r1, #0
1a001998:	2025      	movs	r0, #37	; 0x25
1a00199a:	f7ff fe91 	bl	1a0016c0 <gpioInit>
1a00199e:	2100      	movs	r1, #0
1a0019a0:	2026      	movs	r0, #38	; 0x26
1a0019a2:	f7ff fe8d 	bl	1a0016c0 <gpioInit>
1a0019a6:	2100      	movs	r1, #0
1a0019a8:	2027      	movs	r0, #39	; 0x27
1a0019aa:	f7ff fe89 	bl	1a0016c0 <gpioInit>
1a0019ae:	2101      	movs	r1, #1
1a0019b0:	2028      	movs	r0, #40	; 0x28
1a0019b2:	f7ff fe85 	bl	1a0016c0 <gpioInit>
1a0019b6:	2101      	movs	r1, #1
1a0019b8:	2029      	movs	r0, #41	; 0x29
1a0019ba:	f7ff fe81 	bl	1a0016c0 <gpioInit>
1a0019be:	2101      	movs	r1, #1
1a0019c0:	202a      	movs	r0, #42	; 0x2a
1a0019c2:	f7ff fe7d 	bl	1a0016c0 <gpioInit>
1a0019c6:	2101      	movs	r1, #1
1a0019c8:	202b      	movs	r0, #43	; 0x2b
1a0019ca:	f7ff fe79 	bl	1a0016c0 <gpioInit>
1a0019ce:	2101      	movs	r1, #1
1a0019d0:	202c      	movs	r0, #44	; 0x2c
1a0019d2:	f7ff fe75 	bl	1a0016c0 <gpioInit>
1a0019d6:	2101      	movs	r1, #1
1a0019d8:	202d      	movs	r0, #45	; 0x2d
1a0019da:	f7ff fe71 	bl	1a0016c0 <gpioInit>
1a0019de:	bd08      	pop	{r3, pc}
1a0019e0:	10000470 	.word	0x10000470

1a0019e4 <arm_sin_f32>:
1a0019e4:	eeb5 0ac0 	vcmpe.f32	s0, #0.0
1a0019e8:	eef1 fa10 	vmrs	APSR_nzcv, fpscr
1a0019ec:	d42c      	bmi.n	1a001a48 <arm_sin_f32+0x64>
1a0019ee:	eddf 7a20 	vldr	s15, [pc, #128]	; 1a001a70 <arm_sin_f32+0x8c>
1a0019f2:	ee20 0a27 	vmul.f32	s0, s0, s15
1a0019f6:	eefd 7ac0 	vcvt.s32.f32	s15, s0
1a0019fa:	d432      	bmi.n	1a001a62 <arm_sin_f32+0x7e>
1a0019fc:	eef8 7ae7 	vcvt.f32.s32	s15, s15
1a001a00:	eddf 6a1c 	vldr	s13, [pc, #112]	; 1a001a74 <arm_sin_f32+0x90>
1a001a04:	4a1c      	ldr	r2, [pc, #112]	; (1a001a78 <arm_sin_f32+0x94>)
1a001a06:	ee30 0a67 	vsub.f32	s0, s0, s15
1a001a0a:	eeb7 7a00 	vmov.f32	s14, #112	; 0x3f800000  1.0
1a001a0e:	ee20 0a26 	vmul.f32	s0, s0, s13
1a001a12:	eefc 7ac0 	vcvt.u32.f32	s15, s0
1a001a16:	ee17 3a90 	vmov	r3, s15
1a001a1a:	f3c3 0308 	ubfx	r3, r3, #0, #9
1a001a1e:	ee07 3a90 	vmov	s15, r3
1a001a22:	eef8 7a67 	vcvt.f32.u32	s15, s15
1a001a26:	eb02 0183 	add.w	r1, r2, r3, lsl #2
1a001a2a:	ee70 7a67 	vsub.f32	s15, s0, s15
1a001a2e:	edd1 6a01 	vldr	s13, [r1, #4]
1a001a32:	ed91 0a00 	vldr	s0, [r1]
1a001a36:	ee37 7a67 	vsub.f32	s14, s14, s15
1a001a3a:	ee67 7aa6 	vmul.f32	s15, s15, s13
1a001a3e:	ee27 0a00 	vmul.f32	s0, s14, s0
1a001a42:	ee30 0a27 	vadd.f32	s0, s0, s15
1a001a46:	4770      	bx	lr
1a001a48:	eddf 7a0c 	vldr	s15, [pc, #48]	; 1a001a7c <arm_sin_f32+0x98>
1a001a4c:	eeb4 0ae7 	vcmpe.f32	s0, s15
1a001a50:	eef1 fa10 	vmrs	APSR_nzcv, fpscr
1a001a54:	da0b      	bge.n	1a001a6e <arm_sin_f32+0x8a>
1a001a56:	eddf 7a06 	vldr	s15, [pc, #24]	; 1a001a70 <arm_sin_f32+0x8c>
1a001a5a:	ee20 0a27 	vmul.f32	s0, s0, s15
1a001a5e:	eefd 7ac0 	vcvt.s32.f32	s15, s0
1a001a62:	ee17 3a90 	vmov	r3, s15
1a001a66:	3b01      	subs	r3, #1
1a001a68:	ee07 3a90 	vmov	s15, r3
1a001a6c:	e7c6      	b.n	1a0019fc <arm_sin_f32+0x18>
1a001a6e:	4770      	bx	lr
1a001a70:	3e22f983 	.word	0x3e22f983
1a001a74:	44000000 	.word	0x44000000
1a001a78:	1a002090 	.word	0x1a002090
1a001a7c:	b44c02cd 	.word	0xb44c02cd

1a001a80 <__aeabi_uldivmod>:
1a001a80:	b953      	cbnz	r3, 1a001a98 <__aeabi_uldivmod+0x18>
1a001a82:	b94a      	cbnz	r2, 1a001a98 <__aeabi_uldivmod+0x18>
1a001a84:	2900      	cmp	r1, #0
1a001a86:	bf08      	it	eq
1a001a88:	2800      	cmpeq	r0, #0
1a001a8a:	bf1c      	itt	ne
1a001a8c:	f04f 31ff 	movne.w	r1, #4294967295	; 0xffffffff
1a001a90:	f04f 30ff 	movne.w	r0, #4294967295	; 0xffffffff
1a001a94:	f000 b972 	b.w	1a001d7c <__aeabi_idiv0>
1a001a98:	f1ad 0c08 	sub.w	ip, sp, #8
1a001a9c:	e96d ce04 	strd	ip, lr, [sp, #-16]!
1a001aa0:	f000 f806 	bl	1a001ab0 <__udivmoddi4>
1a001aa4:	f8dd e004 	ldr.w	lr, [sp, #4]
1a001aa8:	e9dd 2302 	ldrd	r2, r3, [sp, #8]
1a001aac:	b004      	add	sp, #16
1a001aae:	4770      	bx	lr

1a001ab0 <__udivmoddi4>:
1a001ab0:	e92d 47f0 	stmdb	sp!, {r4, r5, r6, r7, r8, r9, sl, lr}
1a001ab4:	9e08      	ldr	r6, [sp, #32]
1a001ab6:	4604      	mov	r4, r0
1a001ab8:	4688      	mov	r8, r1
1a001aba:	2b00      	cmp	r3, #0
1a001abc:	d14b      	bne.n	1a001b56 <__udivmoddi4+0xa6>
1a001abe:	428a      	cmp	r2, r1
1a001ac0:	4615      	mov	r5, r2
1a001ac2:	d967      	bls.n	1a001b94 <__udivmoddi4+0xe4>
1a001ac4:	fab2 f282 	clz	r2, r2
1a001ac8:	b14a      	cbz	r2, 1a001ade <__udivmoddi4+0x2e>
1a001aca:	f1c2 0720 	rsb	r7, r2, #32
1a001ace:	fa01 f302 	lsl.w	r3, r1, r2
1a001ad2:	fa20 f707 	lsr.w	r7, r0, r7
1a001ad6:	4095      	lsls	r5, r2
1a001ad8:	ea47 0803 	orr.w	r8, r7, r3
1a001adc:	4094      	lsls	r4, r2
1a001ade:	ea4f 4e15 	mov.w	lr, r5, lsr #16
1a001ae2:	0c23      	lsrs	r3, r4, #16
1a001ae4:	fbb8 f7fe 	udiv	r7, r8, lr
1a001ae8:	fa1f fc85 	uxth.w	ip, r5
1a001aec:	fb0e 8817 	mls	r8, lr, r7, r8
1a001af0:	ea43 4308 	orr.w	r3, r3, r8, lsl #16
1a001af4:	fb07 f10c 	mul.w	r1, r7, ip
1a001af8:	4299      	cmp	r1, r3
1a001afa:	d909      	bls.n	1a001b10 <__udivmoddi4+0x60>
1a001afc:	18eb      	adds	r3, r5, r3
1a001afe:	f107 30ff 	add.w	r0, r7, #4294967295	; 0xffffffff
1a001b02:	f080 811b 	bcs.w	1a001d3c <__udivmoddi4+0x28c>
1a001b06:	4299      	cmp	r1, r3
1a001b08:	f240 8118 	bls.w	1a001d3c <__udivmoddi4+0x28c>
1a001b0c:	3f02      	subs	r7, #2
1a001b0e:	442b      	add	r3, r5
1a001b10:	1a5b      	subs	r3, r3, r1
1a001b12:	b2a4      	uxth	r4, r4
1a001b14:	fbb3 f0fe 	udiv	r0, r3, lr
1a001b18:	fb0e 3310 	mls	r3, lr, r0, r3
1a001b1c:	ea44 4403 	orr.w	r4, r4, r3, lsl #16
1a001b20:	fb00 fc0c 	mul.w	ip, r0, ip
1a001b24:	45a4      	cmp	ip, r4
1a001b26:	d909      	bls.n	1a001b3c <__udivmoddi4+0x8c>
1a001b28:	192c      	adds	r4, r5, r4
1a001b2a:	f100 33ff 	add.w	r3, r0, #4294967295	; 0xffffffff
1a001b2e:	f080 8107 	bcs.w	1a001d40 <__udivmoddi4+0x290>
1a001b32:	45a4      	cmp	ip, r4
1a001b34:	f240 8104 	bls.w	1a001d40 <__udivmoddi4+0x290>
1a001b38:	3802      	subs	r0, #2
1a001b3a:	442c      	add	r4, r5
1a001b3c:	ea40 4007 	orr.w	r0, r0, r7, lsl #16
1a001b40:	eba4 040c 	sub.w	r4, r4, ip
1a001b44:	2700      	movs	r7, #0
1a001b46:	b11e      	cbz	r6, 1a001b50 <__udivmoddi4+0xa0>
1a001b48:	40d4      	lsrs	r4, r2
1a001b4a:	2300      	movs	r3, #0
1a001b4c:	e9c6 4300 	strd	r4, r3, [r6]
1a001b50:	4639      	mov	r1, r7
1a001b52:	e8bd 87f0 	ldmia.w	sp!, {r4, r5, r6, r7, r8, r9, sl, pc}
1a001b56:	428b      	cmp	r3, r1
1a001b58:	d909      	bls.n	1a001b6e <__udivmoddi4+0xbe>
1a001b5a:	2e00      	cmp	r6, #0
1a001b5c:	f000 80eb 	beq.w	1a001d36 <__udivmoddi4+0x286>
1a001b60:	2700      	movs	r7, #0
1a001b62:	e9c6 0100 	strd	r0, r1, [r6]
1a001b66:	4638      	mov	r0, r7
1a001b68:	4639      	mov	r1, r7
1a001b6a:	e8bd 87f0 	ldmia.w	sp!, {r4, r5, r6, r7, r8, r9, sl, pc}
1a001b6e:	fab3 f783 	clz	r7, r3
1a001b72:	2f00      	cmp	r7, #0
1a001b74:	d147      	bne.n	1a001c06 <__udivmoddi4+0x156>
1a001b76:	428b      	cmp	r3, r1
1a001b78:	d302      	bcc.n	1a001b80 <__udivmoddi4+0xd0>
1a001b7a:	4282      	cmp	r2, r0
1a001b7c:	f200 80fa 	bhi.w	1a001d74 <__udivmoddi4+0x2c4>
1a001b80:	1a84      	subs	r4, r0, r2
1a001b82:	eb61 0303 	sbc.w	r3, r1, r3
1a001b86:	2001      	movs	r0, #1
1a001b88:	4698      	mov	r8, r3
1a001b8a:	2e00      	cmp	r6, #0
1a001b8c:	d0e0      	beq.n	1a001b50 <__udivmoddi4+0xa0>
1a001b8e:	e9c6 4800 	strd	r4, r8, [r6]
1a001b92:	e7dd      	b.n	1a001b50 <__udivmoddi4+0xa0>
1a001b94:	b902      	cbnz	r2, 1a001b98 <__udivmoddi4+0xe8>
1a001b96:	deff      	udf	#255	; 0xff
1a001b98:	fab2 f282 	clz	r2, r2
1a001b9c:	2a00      	cmp	r2, #0
1a001b9e:	f040 808f 	bne.w	1a001cc0 <__udivmoddi4+0x210>
1a001ba2:	1b49      	subs	r1, r1, r5
1a001ba4:	ea4f 4e15 	mov.w	lr, r5, lsr #16
1a001ba8:	fa1f f885 	uxth.w	r8, r5
1a001bac:	2701      	movs	r7, #1
1a001bae:	fbb1 fcfe 	udiv	ip, r1, lr
1a001bb2:	0c23      	lsrs	r3, r4, #16
1a001bb4:	fb0e 111c 	mls	r1, lr, ip, r1
1a001bb8:	ea43 4301 	orr.w	r3, r3, r1, lsl #16
1a001bbc:	fb08 f10c 	mul.w	r1, r8, ip
1a001bc0:	4299      	cmp	r1, r3
1a001bc2:	d907      	bls.n	1a001bd4 <__udivmoddi4+0x124>
1a001bc4:	18eb      	adds	r3, r5, r3
1a001bc6:	f10c 30ff 	add.w	r0, ip, #4294967295	; 0xffffffff
1a001bca:	d202      	bcs.n	1a001bd2 <__udivmoddi4+0x122>
1a001bcc:	4299      	cmp	r1, r3
1a001bce:	f200 80cd 	bhi.w	1a001d6c <__udivmoddi4+0x2bc>
1a001bd2:	4684      	mov	ip, r0
1a001bd4:	1a59      	subs	r1, r3, r1
1a001bd6:	b2a3      	uxth	r3, r4
1a001bd8:	fbb1 f0fe 	udiv	r0, r1, lr
1a001bdc:	fb0e 1410 	mls	r4, lr, r0, r1
1a001be0:	ea43 4404 	orr.w	r4, r3, r4, lsl #16
1a001be4:	fb08 f800 	mul.w	r8, r8, r0
1a001be8:	45a0      	cmp	r8, r4
1a001bea:	d907      	bls.n	1a001bfc <__udivmoddi4+0x14c>
1a001bec:	192c      	adds	r4, r5, r4
1a001bee:	f100 33ff 	add.w	r3, r0, #4294967295	; 0xffffffff
1a001bf2:	d202      	bcs.n	1a001bfa <__udivmoddi4+0x14a>
1a001bf4:	45a0      	cmp	r8, r4
1a001bf6:	f200 80b6 	bhi.w	1a001d66 <__udivmoddi4+0x2b6>
1a001bfa:	4618      	mov	r0, r3
1a001bfc:	eba4 0408 	sub.w	r4, r4, r8
1a001c00:	ea40 400c 	orr.w	r0, r0, ip, lsl #16
1a001c04:	e79f      	b.n	1a001b46 <__udivmoddi4+0x96>
1a001c06:	f1c7 0c20 	rsb	ip, r7, #32
1a001c0a:	40bb      	lsls	r3, r7
1a001c0c:	fa22 fe0c 	lsr.w	lr, r2, ip
1a001c10:	ea4e 0e03 	orr.w	lr, lr, r3
1a001c14:	fa01 f407 	lsl.w	r4, r1, r7
1a001c18:	fa20 f50c 	lsr.w	r5, r0, ip
1a001c1c:	fa21 f30c 	lsr.w	r3, r1, ip
1a001c20:	ea4f 481e 	mov.w	r8, lr, lsr #16
1a001c24:	4325      	orrs	r5, r4
1a001c26:	fbb3 f9f8 	udiv	r9, r3, r8
1a001c2a:	0c2c      	lsrs	r4, r5, #16
1a001c2c:	fb08 3319 	mls	r3, r8, r9, r3
1a001c30:	fa1f fa8e 	uxth.w	sl, lr
1a001c34:	ea44 4303 	orr.w	r3, r4, r3, lsl #16
1a001c38:	fb09 f40a 	mul.w	r4, r9, sl
1a001c3c:	429c      	cmp	r4, r3
1a001c3e:	fa02 f207 	lsl.w	r2, r2, r7
1a001c42:	fa00 f107 	lsl.w	r1, r0, r7
1a001c46:	d90b      	bls.n	1a001c60 <__udivmoddi4+0x1b0>
1a001c48:	eb1e 0303 	adds.w	r3, lr, r3
1a001c4c:	f109 30ff 	add.w	r0, r9, #4294967295	; 0xffffffff
1a001c50:	f080 8087 	bcs.w	1a001d62 <__udivmoddi4+0x2b2>
1a001c54:	429c      	cmp	r4, r3
1a001c56:	f240 8084 	bls.w	1a001d62 <__udivmoddi4+0x2b2>
1a001c5a:	f1a9 0902 	sub.w	r9, r9, #2
1a001c5e:	4473      	add	r3, lr
1a001c60:	1b1b      	subs	r3, r3, r4
1a001c62:	b2ad      	uxth	r5, r5
1a001c64:	fbb3 f0f8 	udiv	r0, r3, r8
1a001c68:	fb08 3310 	mls	r3, r8, r0, r3
1a001c6c:	ea45 4403 	orr.w	r4, r5, r3, lsl #16
1a001c70:	fb00 fa0a 	mul.w	sl, r0, sl
1a001c74:	45a2      	cmp	sl, r4
1a001c76:	d908      	bls.n	1a001c8a <__udivmoddi4+0x1da>
1a001c78:	eb1e 0404 	adds.w	r4, lr, r4
1a001c7c:	f100 33ff 	add.w	r3, r0, #4294967295	; 0xffffffff
1a001c80:	d26b      	bcs.n	1a001d5a <__udivmoddi4+0x2aa>
1a001c82:	45a2      	cmp	sl, r4
1a001c84:	d969      	bls.n	1a001d5a <__udivmoddi4+0x2aa>
1a001c86:	3802      	subs	r0, #2
1a001c88:	4474      	add	r4, lr
1a001c8a:	ea40 4009 	orr.w	r0, r0, r9, lsl #16
1a001c8e:	fba0 8902 	umull	r8, r9, r0, r2
1a001c92:	eba4 040a 	sub.w	r4, r4, sl
1a001c96:	454c      	cmp	r4, r9
1a001c98:	46c2      	mov	sl, r8
1a001c9a:	464b      	mov	r3, r9
1a001c9c:	d354      	bcc.n	1a001d48 <__udivmoddi4+0x298>
1a001c9e:	d051      	beq.n	1a001d44 <__udivmoddi4+0x294>
1a001ca0:	2e00      	cmp	r6, #0
1a001ca2:	d069      	beq.n	1a001d78 <__udivmoddi4+0x2c8>
1a001ca4:	ebb1 050a 	subs.w	r5, r1, sl
1a001ca8:	eb64 0403 	sbc.w	r4, r4, r3
1a001cac:	fa04 fc0c 	lsl.w	ip, r4, ip
1a001cb0:	40fd      	lsrs	r5, r7
1a001cb2:	40fc      	lsrs	r4, r7
1a001cb4:	ea4c 0505 	orr.w	r5, ip, r5
1a001cb8:	e9c6 5400 	strd	r5, r4, [r6]
1a001cbc:	2700      	movs	r7, #0
1a001cbe:	e747      	b.n	1a001b50 <__udivmoddi4+0xa0>
1a001cc0:	f1c2 0320 	rsb	r3, r2, #32
1a001cc4:	fa20 f703 	lsr.w	r7, r0, r3
1a001cc8:	4095      	lsls	r5, r2
1a001cca:	fa01 f002 	lsl.w	r0, r1, r2
1a001cce:	fa21 f303 	lsr.w	r3, r1, r3
1a001cd2:	ea4f 4e15 	mov.w	lr, r5, lsr #16
1a001cd6:	4338      	orrs	r0, r7
1a001cd8:	0c01      	lsrs	r1, r0, #16
1a001cda:	fbb3 f7fe 	udiv	r7, r3, lr
1a001cde:	fa1f f885 	uxth.w	r8, r5
1a001ce2:	fb0e 3317 	mls	r3, lr, r7, r3
1a001ce6:	ea41 4103 	orr.w	r1, r1, r3, lsl #16
1a001cea:	fb07 f308 	mul.w	r3, r7, r8
1a001cee:	428b      	cmp	r3, r1
1a001cf0:	fa04 f402 	lsl.w	r4, r4, r2
1a001cf4:	d907      	bls.n	1a001d06 <__udivmoddi4+0x256>
1a001cf6:	1869      	adds	r1, r5, r1
1a001cf8:	f107 3cff 	add.w	ip, r7, #4294967295	; 0xffffffff
1a001cfc:	d22f      	bcs.n	1a001d5e <__udivmoddi4+0x2ae>
1a001cfe:	428b      	cmp	r3, r1
1a001d00:	d92d      	bls.n	1a001d5e <__udivmoddi4+0x2ae>
1a001d02:	3f02      	subs	r7, #2
1a001d04:	4429      	add	r1, r5
1a001d06:	1acb      	subs	r3, r1, r3
1a001d08:	b281      	uxth	r1, r0
1a001d0a:	fbb3 f0fe 	udiv	r0, r3, lr
1a001d0e:	fb0e 3310 	mls	r3, lr, r0, r3
1a001d12:	ea41 4103 	orr.w	r1, r1, r3, lsl #16
1a001d16:	fb00 f308 	mul.w	r3, r0, r8
1a001d1a:	428b      	cmp	r3, r1
1a001d1c:	d907      	bls.n	1a001d2e <__udivmoddi4+0x27e>
1a001d1e:	1869      	adds	r1, r5, r1
1a001d20:	f100 3cff 	add.w	ip, r0, #4294967295	; 0xffffffff
1a001d24:	d217      	bcs.n	1a001d56 <__udivmoddi4+0x2a6>
1a001d26:	428b      	cmp	r3, r1
1a001d28:	d915      	bls.n	1a001d56 <__udivmoddi4+0x2a6>
1a001d2a:	3802      	subs	r0, #2
1a001d2c:	4429      	add	r1, r5
1a001d2e:	1ac9      	subs	r1, r1, r3
1a001d30:	ea40 4707 	orr.w	r7, r0, r7, lsl #16
1a001d34:	e73b      	b.n	1a001bae <__udivmoddi4+0xfe>
1a001d36:	4637      	mov	r7, r6
1a001d38:	4630      	mov	r0, r6
1a001d3a:	e709      	b.n	1a001b50 <__udivmoddi4+0xa0>
1a001d3c:	4607      	mov	r7, r0
1a001d3e:	e6e7      	b.n	1a001b10 <__udivmoddi4+0x60>
1a001d40:	4618      	mov	r0, r3
1a001d42:	e6fb      	b.n	1a001b3c <__udivmoddi4+0x8c>
1a001d44:	4541      	cmp	r1, r8
1a001d46:	d2ab      	bcs.n	1a001ca0 <__udivmoddi4+0x1f0>
1a001d48:	ebb8 0a02 	subs.w	sl, r8, r2
1a001d4c:	eb69 020e 	sbc.w	r2, r9, lr
1a001d50:	3801      	subs	r0, #1
1a001d52:	4613      	mov	r3, r2
1a001d54:	e7a4      	b.n	1a001ca0 <__udivmoddi4+0x1f0>
1a001d56:	4660      	mov	r0, ip
1a001d58:	e7e9      	b.n	1a001d2e <__udivmoddi4+0x27e>
1a001d5a:	4618      	mov	r0, r3
1a001d5c:	e795      	b.n	1a001c8a <__udivmoddi4+0x1da>
1a001d5e:	4667      	mov	r7, ip
1a001d60:	e7d1      	b.n	1a001d06 <__udivmoddi4+0x256>
1a001d62:	4681      	mov	r9, r0
1a001d64:	e77c      	b.n	1a001c60 <__udivmoddi4+0x1b0>
1a001d66:	3802      	subs	r0, #2
1a001d68:	442c      	add	r4, r5
1a001d6a:	e747      	b.n	1a001bfc <__udivmoddi4+0x14c>
1a001d6c:	f1ac 0c02 	sub.w	ip, ip, #2
1a001d70:	442b      	add	r3, r5
1a001d72:	e72f      	b.n	1a001bd4 <__udivmoddi4+0x124>
1a001d74:	4638      	mov	r0, r7
1a001d76:	e708      	b.n	1a001b8a <__udivmoddi4+0xda>
1a001d78:	4637      	mov	r7, r6
1a001d7a:	e6e9      	b.n	1a001b50 <__udivmoddi4+0xa0>

1a001d7c <__aeabi_idiv0>:
1a001d7c:	4770      	bx	lr
1a001d7e:	bf00      	nop

1a001d80 <__libc_init_array>:
1a001d80:	b570      	push	{r4, r5, r6, lr}
1a001d82:	4e0d      	ldr	r6, [pc, #52]	; (1a001db8 <__libc_init_array+0x38>)
1a001d84:	4c0d      	ldr	r4, [pc, #52]	; (1a001dbc <__libc_init_array+0x3c>)
1a001d86:	1ba4      	subs	r4, r4, r6
1a001d88:	10a4      	asrs	r4, r4, #2
1a001d8a:	2500      	movs	r5, #0
1a001d8c:	42a5      	cmp	r5, r4
1a001d8e:	d109      	bne.n	1a001da4 <__libc_init_array+0x24>
1a001d90:	4e0b      	ldr	r6, [pc, #44]	; (1a001dc0 <__libc_init_array+0x40>)
1a001d92:	4c0c      	ldr	r4, [pc, #48]	; (1a001dc4 <__libc_init_array+0x44>)
1a001d94:	f7fe fb93 	bl	1a0004be <_init>
1a001d98:	1ba4      	subs	r4, r4, r6
1a001d9a:	10a4      	asrs	r4, r4, #2
1a001d9c:	2500      	movs	r5, #0
1a001d9e:	42a5      	cmp	r5, r4
1a001da0:	d105      	bne.n	1a001dae <__libc_init_array+0x2e>
1a001da2:	bd70      	pop	{r4, r5, r6, pc}
1a001da4:	f856 3025 	ldr.w	r3, [r6, r5, lsl #2]
1a001da8:	4798      	blx	r3
1a001daa:	3501      	adds	r5, #1
1a001dac:	e7ee      	b.n	1a001d8c <__libc_init_array+0xc>
1a001dae:	f856 3025 	ldr.w	r3, [r6, r5, lsl #2]
1a001db2:	4798      	blx	r3
1a001db4:	3501      	adds	r5, #1
1a001db6:	e7f2      	b.n	1a001d9e <__libc_init_array+0x1e>
1a001db8:	1a002894 	.word	0x1a002894
1a001dbc:	1a002894 	.word	0x1a002894
1a001dc0:	1a002894 	.word	0x1a002894
1a001dc4:	1a002898 	.word	0x1a002898

1a001dc8 <memset>:
1a001dc8:	4402      	add	r2, r0
1a001dca:	4603      	mov	r3, r0
1a001dcc:	4293      	cmp	r3, r2
1a001dce:	d100      	bne.n	1a001dd2 <memset+0xa>
1a001dd0:	4770      	bx	lr
1a001dd2:	f803 1b01 	strb.w	r1, [r3], #1
1a001dd6:	e7f9      	b.n	1a001dcc <memset+0x4>
1a001dd8:	64616568 	.word	0x64616568
1a001ddc:	ff007265 	.word	0xff007265

1a001de0 <ExtRateIn>:
1a001de0:	00000000                                ....

1a001de4 <GpioButtons>:
1a001de4:	08000400 09010900                       ........

1a001dec <GpioLeds>:
1a001dec:	01050005 0e000205 0c010b01              ............

1a001df8 <GpioPorts>:
1a001df8:	03030003 0f050403 05031005 07030603     ................
1a001e08:	ffff0802                                ....

1a001e0c <OscRateIn>:
1a001e0c:	00b71b00                                ....

1a001e10 <InitClkStates>:
1a001e10:	01010f01                                ....

1a001e14 <pinmuxing>:
1a001e14:	00440002 00440102 00440202 00400a02     ..D...D...D...@.
1a001e24:	00400b02 00400c02 00500001 00500101     ..@...@...P...P.
1a001e34:	00500201 00500601 00500106 00500406     ..P...P...P...P.
1a001e44:	00500506 00540706 00540806 00500906     ..P...T...T...P.
1a001e54:	00500a06 00500b06 00500c06 00f0040f     ..P...P...P.....
1a001e64:	00d50301 00d50401 00160107 00560207     ..............V.
1a001e74:	00520302 00520402 00520509 00570609     ..R...R...R...W.
1a001e84:	00570206                                ..W.

1a001e88 <UART_BClock>:
1a001e88:	01a201c2 01620182                       ......b.

1a001e90 <UART_PClock>:
1a001e90:	00820081 00a200a1 08040201 0f0f0f03     ................
1a001ea0:	000000ff                                ....

1a001ea4 <periph_to_base>:
1a001ea4:	00050000 0020000a 00090024 00400040     ...... .$...@.@.
1a001eb4:	00600005 000400a6 00c300c0 00e00002     ..`.............
1a001ec4:	000100e0 01000100 01200003 00060120     .......... . ...
1a001ed4:	01400140 0142000c 00190142 01620162     @.@...B.B...b.b.
1a001ee4:	01820013 00120182 01a201a2 01c20011     ................
1a001ef4:	001001c2 01e201e2 0202000f 000e0202     ................
1a001f04:	02220222 0223000d 001c0223              "."...#.#...

1a001f10 <InitClkStates>:
1a001f10:	00010100 00010909 0001090a 01010701     ................
1a001f20:	00010902 00010906 0101090c 0001090d     ................
1a001f30:	0001090e 0001090f 00010910 00010911     ................
1a001f40:	00010912 00010913 00011114 00011119     ................
1a001f50:	0001111a 0001111b                       ........

1a001f58 <lpcUarts>:
1a001f58:	40081000 06020406 00180205 40081000     ...@...........@
1a001f68:	09070509 00180706 40082000 00000000     ......... .@....
1a001f78:	00190000 400c1000 07060107 001a0602     .......@........
1a001f88:	400c1000 01010f01 001a0110 400c2000     ...@......... .@
1a001f98:	02020302 001b0204 00061a80 0000000a     ................

1a001fa8 <gpioPinsInit>:
1a001fa8:	02000104 00050701 05010d03 04080100     ................
1a001fb8:	02020002 02000304 00000403 04070002     ................
1a001fc8:	030c0300 09050402 05040103 04030208     ................
1a001fd8:	04020305 06040504 0802000c 03000b06     ................
1a001fe8:	00090607 07060503 060f0504 03030004     ................
1a001ff8:	02000404 00050404 06040502 04060200     ................
1a002008:	0c050408 05040a04 0003010e 14010a00     ................
1a002018:	010f0000 0d000012 00001101 0010010c     ................
1a002028:	07070300 000f0300 01000001 00000000     ................
1a002038:	000a0600 08060603 06100504 04030005     ................
1a002048:	03000106 04090400 04010d05 010b0000     ................
1a002058:	0200000f 00000001 00010104 02010800     ................
1a002068:	01090000 09010006 05040002 04010200     ................
1a002078:	02020105 02020504 0e00000a 01000b02     ................
1a002088:	000c020b ffff0c01                       ........

1a002090 <sinTable_f32>:
1a002090:	00000000 3c490e92 3cc90ab1 3d16c32b     ......I<...<+..=
1a0020a0:	3d48fb2e 3d7b2b75 3d96a904 3dafb680     ..H=u+{=...=...=
1a0020b0:	3dc8bd36 3de1bc2f 3dfab273 3e09cf87     6..=/..=s..=...>
1a0020c0:	3e164083 3e22abb5 3e2f10a2 3e3b6ecf     .@.>..">../>.n;>
1a0020d0:	3e47c5c2 3e541501 3e605c13 3e6c9a7f     ..G>..T>.\`>..l>
1a0020e0:	3e78cfcc 3e827dc0 3e888e93 3e8e9a22     ..x>.}.>...>"..>
1a0020f0:	3e94a032 3e9aa086 3ea09ae5 3ea68f12     2..>...>...>...>
1a002100:	3eac7cd4 3eb263ef 3eb8442a 3ebe1d49     .|.>.c.>*D.>I..>
1a002110:	3ec3ef15 3ec9b953 3ecf7bca 3ed53641     ...>S..>.{.>A6.>
1a002120:	3edae880 3ee0924f 3ee63375 3eebcbbb     ...>O..>u3.>...>
1a002130:	3ef15aea 3ef6e0cb 3efc5d27 3f00e7e4     .Z.>...>'].>...?
1a002140:	3f039c3d 3f064b82 3f08f59b 3f0b9a6b     =..?.K.?...?k..?
1a002150:	3f0e39da 3f10d3cd 3f13682a 3f15f6d9     .9.?...?*h.?...?
1a002160:	3f187fc0 3f1b02c6 3f1d7fd1 3f1ff6cb     ...?...?...?...?
1a002170:	3f226799 3f24d225 3f273656 3f299415     .g"?%.$?V6'?..)?
1a002180:	3f2beb4a 3f2e3bde 3f3085bb 3f32c8c9     J.+?.;.?..0?..2?
1a002190:	3f3504f3 3f373a23 3f396842 3f3b8f3b     ..5?#:7?Bh9?;.;?
1a0021a0:	3f3daef9 3f3fc767 3f41d870 3f43e201     ..=?g.??p.A?..C?
1a0021b0:	3f45e403 3f47de65 3f49d112 3f4bbbf8     ..E?e.G?..I?..K?
1a0021c0:	3f4d9f02 3f4f7a20 3f514d3d 3f531849     ..M? zO?=MQ?I.S?
1a0021d0:	3f54db31 3f5695e5 3f584853 3f59f26a     1.T?..V?SHX?j.Y?
1a0021e0:	3f5b941a 3f5d2d53 3f5ebe05 3f604621     ..[?S-]?..^?!F`?
1a0021f0:	3f61c597 3f633c5a 3f64aa59 3f660f88     ..a?Z<c?Y.d?..f?
1a002200:	3f676bd8 3f68bf3c 3f6a09a7 3f6b4b0c     .kg?<.h?..j?.Kk?
1a002210:	3f6c835e 3f6db293 3f6ed89e 3f6ff573     ^.l?..m?..n?s.o?
1a002220:	3f710908 3f721352 3f731447 3f740bdd     ..q?R.r?G.s?..t?
1a002230:	3f74fa0b 3f75dec6 3f76ba07 3f778bc5     ..t?..u?..v?..w?
1a002240:	3f7853f8 3f791298 3f79c79d 3f7a7302     .Sx?..y?..y?.sz?
1a002250:	3f7b14be 3f7baccd 3f7c3b28 3f7cbfc9     ..{?..{?(;|?..|?
1a002260:	3f7d3aac 3f7dabcc 3f7e1323 3f7e70b0     .:}?..}?#.~?.p~?
1a002270:	3f7ec46d 3f7f0e58 3f7f4e6d 3f7f84ab     m.~?X..?mN.?...?
1a002280:	3f7fb10f 3f7fd397 3f7fec43 3f7ffb11     ...?...?C..?...?
1a002290:	3f800000 3f7ffb11 3f7fec43 3f7fd397     ...?...?C..?...?
1a0022a0:	3f7fb10f 3f7f84ab 3f7f4e6d 3f7f0e58     ...?...?mN.?X..?
1a0022b0:	3f7ec46d 3f7e70b0 3f7e1323 3f7dabcc     m.~?.p~?#.~?..}?
1a0022c0:	3f7d3aac 3f7cbfc9 3f7c3b28 3f7baccd     .:}?..|?(;|?..{?
1a0022d0:	3f7b14be 3f7a7302 3f79c79d 3f791298     ..{?.sz?..y?..y?
1a0022e0:	3f7853f8 3f778bc5 3f76ba07 3f75dec6     .Sx?..w?..v?..u?
1a0022f0:	3f74fa0b 3f740bdd 3f731447 3f721352     ..t?..t?G.s?R.r?
1a002300:	3f710908 3f6ff573 3f6ed89e 3f6db293     ..q?s.o?..n?..m?
1a002310:	3f6c835e 3f6b4b0c 3f6a09a7 3f68bf3c     ^.l?.Kk?..j?<.h?
1a002320:	3f676bd8 3f660f88 3f64aa59 3f633c5a     .kg?..f?Y.d?Z<c?
1a002330:	3f61c597 3f604621 3f5ebe05 3f5d2d53     ..a?!F`?..^?S-]?
1a002340:	3f5b941a 3f59f26a 3f584853 3f5695e5     ..[?j.Y?SHX?..V?
1a002350:	3f54db31 3f531849 3f514d3d 3f4f7a20     1.T?I.S?=MQ? zO?
1a002360:	3f4d9f02 3f4bbbf8 3f49d112 3f47de65     ..M?..K?..I?e.G?
1a002370:	3f45e403 3f43e201 3f41d870 3f3fc767     ..E?..C?p.A?g.??
1a002380:	3f3daef9 3f3b8f3b 3f396842 3f373a23     ..=?;.;?Bh9?#:7?
1a002390:	3f3504f3 3f32c8c9 3f3085bb 3f2e3bde     ..5?..2?..0?.;.?
1a0023a0:	3f2beb4a 3f299415 3f273656 3f24d225     J.+?..)?V6'?%.$?
1a0023b0:	3f226799 3f1ff6cb 3f1d7fd1 3f1b02c6     .g"?...?...?...?
1a0023c0:	3f187fc0 3f15f6d9 3f13682a 3f10d3cd     ...?...?*h.?...?
1a0023d0:	3f0e39da 3f0b9a6b 3f08f59b 3f064b82     .9.?k..?...?.K.?
1a0023e0:	3f039c3d 3f00e7e4 3efc5d27 3ef6e0cb     =..?...?'].>...>
1a0023f0:	3ef15aea 3eebcbbb 3ee63375 3ee0924f     .Z.>...>u3.>O..>
1a002400:	3edae880 3ed53641 3ecf7bca 3ec9b953     ...>A6.>.{.>S..>
1a002410:	3ec3ef15 3ebe1d49 3eb8442a 3eb263ef     ...>I..>*D.>.c.>
1a002420:	3eac7cd4 3ea68f12 3ea09ae5 3e9aa086     .|.>...>...>...>
1a002430:	3e94a032 3e8e9a22 3e888e93 3e827dc0     2..>"..>...>.}.>
1a002440:	3e78cfcc 3e6c9a7f 3e605c13 3e541501     ..x>..l>.\`>..T>
1a002450:	3e47c5c2 3e3b6ecf 3e2f10a2 3e22abb5     ..G>.n;>../>..">
1a002460:	3e164083 3e09cf87 3dfab273 3de1bc2f     .@.>...>s..=/..=
1a002470:	3dc8bd36 3dafb680 3d96a904 3d7b2b75     6..=...=...=u+{=
1a002480:	3d48fb2e 3d16c32b 3cc90ab1 3c490e92     ..H=+..=...<..I<
1a002490:	00000000 bc490e92 bcc90ab1 bd16c32b     ......I.....+...
1a0024a0:	bd48fb2e bd7b2b75 bd96a904 bdafb680     ..H.u+{.........
1a0024b0:	bdc8bd36 bde1bc2f bdfab273 be09cf87     6.../...s.......
1a0024c0:	be164083 be22abb5 be2f10a2 be3b6ecf     .@....".../..n;.
1a0024d0:	be47c5c2 be541501 be605c13 be6c9a7f     ..G...T..\`...l.
1a0024e0:	be78cfcc be827dc0 be888e93 be8e9a22     ..x..}......"...
1a0024f0:	be94a032 be9aa086 bea09ae5 bea68f12     2...............
1a002500:	beac7cd4 beb263ef beb8442a bebe1d49     .|...c..*D..I...
1a002510:	bec3ef15 bec9b953 becf7bca bed53641     ....S....{..A6..
1a002520:	bedae880 bee0924f bee63375 beebcbbb     ....O...u3......
1a002530:	bef15aea bef6e0cb befc5d27 bf00e7e4     .Z......']......
1a002540:	bf039c3d bf064b82 bf08f59b bf0b9a6b     =....K......k...
1a002550:	bf0e39da bf10d3cd bf13682a bf15f6d9     .9......*h......
1a002560:	bf187fc0 bf1b02c6 bf1d7fd1 bf1ff6cb     ................
1a002570:	bf226799 bf24d225 bf273656 bf299415     .g".%.$.V6'...).
1a002580:	bf2beb4a bf2e3bde bf3085bb bf32c8c9     J.+..;....0...2.
1a002590:	bf3504f3 bf373a23 bf396842 bf3b8f3b     ..5.#:7.Bh9.;.;.
1a0025a0:	bf3daef9 bf3fc767 bf41d870 bf43e201     ..=.g.?.p.A...C.
1a0025b0:	bf45e403 bf47de65 bf49d112 bf4bbbf8     ..E.e.G...I...K.
1a0025c0:	bf4d9f02 bf4f7a20 bf514d3d bf531849     ..M. zO.=MQ.I.S.
1a0025d0:	bf54db31 bf5695e5 bf584853 bf59f26a     1.T...V.SHX.j.Y.
1a0025e0:	bf5b941a bf5d2d53 bf5ebe05 bf604621     ..[.S-]...^.!F`.
1a0025f0:	bf61c597 bf633c5a bf64aa59 bf660f88     ..a.Z<c.Y.d...f.
1a002600:	bf676bd8 bf68bf3c bf6a09a7 bf6b4b0c     .kg.<.h...j..Kk.
1a002610:	bf6c835e bf6db293 bf6ed89e bf6ff573     ^.l...m...n.s.o.
1a002620:	bf710908 bf721352 bf731447 bf740bdd     ..q.R.r.G.s...t.
1a002630:	bf74fa0b bf75dec6 bf76ba07 bf778bc5     ..t...u...v...w.
1a002640:	bf7853f8 bf791298 bf79c79d bf7a7302     .Sx...y...y..sz.
1a002650:	bf7b14be bf7baccd bf7c3b28 bf7cbfc9     ..{...{.(;|...|.
1a002660:	bf7d3aac bf7dabcc bf7e1323 bf7e70b0     .:}...}.#.~..p~.
1a002670:	bf7ec46d bf7f0e58 bf7f4e6d bf7f84ab     m.~.X...mN......
1a002680:	bf7fb10f bf7fd397 bf7fec43 bf7ffb11     ........C.......
1a002690:	bf800000 bf7ffb11 bf7fec43 bf7fd397     ........C.......
1a0026a0:	bf7fb10f bf7f84ab bf7f4e6d bf7f0e58     ........mN..X...
1a0026b0:	bf7ec46d bf7e70b0 bf7e1323 bf7dabcc     m.~..p~.#.~...}.
1a0026c0:	bf7d3aac bf7cbfc9 bf7c3b28 bf7baccd     .:}...|.(;|...{.
1a0026d0:	bf7b14be bf7a7302 bf79c79d bf791298     ..{..sz...y...y.
1a0026e0:	bf7853f8 bf778bc5 bf76ba07 bf75dec6     .Sx...w...v...u.
1a0026f0:	bf74fa0b bf740bdd bf731447 bf721352     ..t...t.G.s.R.r.
1a002700:	bf710908 bf6ff573 bf6ed89e bf6db293     ..q.s.o...n...m.
1a002710:	bf6c835e bf6b4b0c bf6a09a7 bf68bf3c     ^.l..Kk...j.<.h.
1a002720:	bf676bd8 bf660f88 bf64aa59 bf633c5a     .kg...f.Y.d.Z<c.
1a002730:	bf61c597 bf604621 bf5ebe05 bf5d2d53     ..a.!F`...^.S-].
1a002740:	bf5b941a bf59f26a bf584853 bf5695e5     ..[.j.Y.SHX...V.
1a002750:	bf54db31 bf531849 bf514d3d bf4f7a20     1.T.I.S.=MQ. zO.
1a002760:	bf4d9f02 bf4bbbf8 bf49d112 bf47de65     ..M...K...I.e.G.
1a002770:	bf45e403 bf43e201 bf41d870 bf3fc767     ..E...C.p.A.g.?.
1a002780:	bf3daef9 bf3b8f3b bf396842 bf373a23     ..=.;.;.Bh9.#:7.
1a002790:	bf3504f3 bf32c8c9 bf3085bb bf2e3bde     ..5...2...0..;..
1a0027a0:	bf2beb4a bf299415 bf273656 bf24d225     J.+...).V6'.%.$.
1a0027b0:	bf226799 bf1ff6cb bf1d7fd1 bf1b02c6     .g".............
1a0027c0:	bf187fc0 bf15f6d9 bf13682a bf10d3cd     ........*h......
1a0027d0:	bf0e39da bf0b9a6b bf08f59b bf064b82     .9..k........K..
1a0027e0:	bf039c3d bf00e7e4 befc5d27 bef6e0cb     =.......']......
1a0027f0:	bef15aea beebcbbb bee63375 bee0924f     .Z......u3..O...
1a002800:	bedae880 bed53641 becf7bca bec9b953     ....A6...{..S...
1a002810:	bec3ef15 bebe1d49 beb8442a beb263ef     ....I...*D...c..
1a002820:	beac7cd4 bea68f12 bea09ae5 be9aa086     .|..............
1a002830:	be94a032 be8e9a22 be888e93 be827dc0     2..."........}..
1a002840:	be78cfcc be6c9a7f be605c13 be541501     ..x...l..\`...T.
1a002850:	be47c5c2 be3b6ecf be2f10a2 be22abb5     ..G..n;.../...".
1a002860:	be164083 be09cf87 bdfab273 bde1bc2f     .@......s.../...
1a002870:	bdc8bd36 bdafb680 bd96a904 bd7b2b75     6...........u+{.
1a002880:	bd48fb2e bd16c32b bcc90ab1 bc490e92     ..H.+.........I.
1a002890:	80000000                                ....
